

Microchip Technology PIC LITE Macro Assembler V1.36 build -262312587 
                                                                                               Sun May 22 13:11:24 2016

Microchip Technology Omniscient Code Generator v1.36 (Free mode) build 201601150325
     1                           	processor	16F877A
     2                           	opt	pw 120
     3                           	opt	lm
     4                           	psect	nvBANK0,global,class=BANK0,space=1,delta=1
     5                           	psect	cinit,global,class=CODE,merge=1,delta=2
     6                           	psect	bitbssCOMMON,global,bit,class=COMMON,space=1,delta=1
     7                           	psect	bitbssBANK0,global,bit,class=BANK0,space=1,delta=1
     8                           	psect	bssBANK0,global,class=BANK0,space=1,delta=1
     9                           	psect	clrtext,global,class=CODE,delta=2
    10                           	psect	cstackCOMMON,global,class=COMMON,space=1,delta=1
    11                           	psect	cstackBANK0,global,class=BANK0,space=1,delta=1
    12                           	psect	maintext,global,class=CODE,split=1,delta=2
    13                           	psect	text1,local,class=CODE,merge=1,delta=2
    14                           	psect	text2,local,class=CODE,merge=1,delta=2
    15                           	psect	text3,local,class=CODE,merge=1,delta=2
    16                           	psect	text4,local,class=CODE,merge=1,delta=2
    17                           	psect	text5,local,class=CODE,merge=1,delta=2
    18                           	psect	text6,local,class=CODE,merge=1,delta=2
    19                           	psect	text7,local,class=CODE,merge=1,delta=2
    20                           	psect	text8,local,class=CODE,merge=1,delta=2
    21                           	psect	text9,local,class=CODE,merge=1,delta=2
    22                           	psect	text10,local,class=CODE,merge=1,delta=2
    23                           	psect	text11,local,class=CODE,merge=1,delta=2
    24                           	psect	text12,local,class=CODE,merge=1,delta=2
    25                           	psect	text13,local,class=CODE,merge=1,delta=2
    26                           	psect	text14,local,class=CODE,merge=1,delta=2
    27                           	psect	text15,local,class=CODE,merge=1,delta=2
    28                           	psect	text16,local,class=CODE,merge=1,delta=2
    29                           	psect	text17,local,class=CODE,merge=1,delta=2
    30                           	psect	intentry,global,class=CODE,delta=2
    31                           	psect	text18,local,class=CODE,merge=1,delta=2
    32                           	psect	text19,local,class=CODE,merge=1,delta=2
    33                           	psect	text20,local,class=CODE,merge=1,delta=2
    34                           	psect	text21,local,class=CODE,merge=1,delta=2
    35                           	psect	text22,local,class=CODE,merge=1,delta=2
    36                           	psect	text23,local,class=CODE,merge=1,delta=2
    37                           	psect	text24,local,class=CODE,merge=1,delta=2
    38                           	dabs	1,0x7E,2
    39  0000                     	;# 
    40  0001                     	;# 
    41  0002                     	;# 
    42  0003                     	;# 
    43  0004                     	;# 
    44  0005                     	;# 
    45  0006                     	;# 
    46  0007                     	;# 
    47  0008                     	;# 
    48  0009                     	;# 
    49  000A                     	;# 
    50  000B                     	;# 
    51  000C                     	;# 
    52  000D                     	;# 
    53  000E                     	;# 
    54  000E                     	;# 
    55  000F                     	;# 
    56  0010                     	;# 
    57  0011                     	;# 
    58  0012                     	;# 
    59  0013                     	;# 
    60  0014                     	;# 
    61  0015                     	;# 
    62  0015                     	;# 
    63  0016                     	;# 
    64  0017                     	;# 
    65  0018                     	;# 
    66  0019                     	;# 
    67  001A                     	;# 
    68  001B                     	;# 
    69  001B                     	;# 
    70  001C                     	;# 
    71  001D                     	;# 
    72  001E                     	;# 
    73  001F                     	;# 
    74  0081                     	;# 
    75  0085                     	;# 
    76  0086                     	;# 
    77  0087                     	;# 
    78  0088                     	;# 
    79  0089                     	;# 
    80  008C                     	;# 
    81  008D                     	;# 
    82  008E                     	;# 
    83  0091                     	;# 
    84  0092                     	;# 
    85  0093                     	;# 
    86  0094                     	;# 
    87  0098                     	;# 
    88  0099                     	;# 
    89  009C                     	;# 
    90  009D                     	;# 
    91  009E                     	;# 
    92  009F                     	;# 
    93  010C                     	;# 
    94  010D                     	;# 
    95  010E                     	;# 
    96  010F                     	;# 
    97  018C                     	;# 
    98  018D                     	;# 
    99  0000                     	;# 
   100  0001                     	;# 
   101  0002                     	;# 
   102  0003                     	;# 
   103  0004                     	;# 
   104  0005                     	;# 
   105  0006                     	;# 
   106  0007                     	;# 
   107  0008                     	;# 
   108  0009                     	;# 
   109  000A                     	;# 
   110  000B                     	;# 
   111  000C                     	;# 
   112  000D                     	;# 
   113  000E                     	;# 
   114  000E                     	;# 
   115  000F                     	;# 
   116  0010                     	;# 
   117  0011                     	;# 
   118  0012                     	;# 
   119  0013                     	;# 
   120  0014                     	;# 
   121  0015                     	;# 
   122  0015                     	;# 
   123  0016                     	;# 
   124  0017                     	;# 
   125  0018                     	;# 
   126  0019                     	;# 
   127  001A                     	;# 
   128  001B                     	;# 
   129  001B                     	;# 
   130  001C                     	;# 
   131  001D                     	;# 
   132  001E                     	;# 
   133  001F                     	;# 
   134  0081                     	;# 
   135  0085                     	;# 
   136  0086                     	;# 
   137  0087                     	;# 
   138  0088                     	;# 
   139  0089                     	;# 
   140  008C                     	;# 
   141  008D                     	;# 
   142  008E                     	;# 
   143  0091                     	;# 
   144  0092                     	;# 
   145  0093                     	;# 
   146  0094                     	;# 
   147  0098                     	;# 
   148  0099                     	;# 
   149  009C                     	;# 
   150  009D                     	;# 
   151  009E                     	;# 
   152  009F                     	;# 
   153  010C                     	;# 
   154  010D                     	;# 
   155  010E                     	;# 
   156  010F                     	;# 
   157  018C                     	;# 
   158  018D                     	;# 
   159                           
   160                           	psect	nvBANK0
   161  0031                     __pnvBANK0:	
   162  0031                     _cur_state:	
   163  0031                     	ds	1
   164  0032                     _prev_state:	
   165  0032                     	ds	1
   166  0033                     _skip_beg:	
   167  0033                     	ds	1
   168  001F                     _ADCON0	set	31
   169  0017                     _CCP1CON	set	23
   170  001D                     _CCP2CON	set	29
   171  000B                     _INTCON	set	11
   172  000C                     _PIR1	set	12
   173  000D                     _PIR2	set	13
   174  0010                     _T1CON	set	16
   175  0012                     _T2CON	set	18
   176  0001                     _TMR0	set	1
   177  000F                     _TMR1H	set	15
   178  000E                     _TMR1L	set	14
   179  0011                     _TMR2	set	17
   180  0007                     _PORTC	set	7
   181  005F                     _GIE	set	95
   182  0059                     _INTF	set	89
   183  0028                     _RA0	set	40
   184  0029                     _RA1	set	41
   185  002A                     _RA2	set	42
   186  002B                     _RA3	set	43
   187  002D                     _RA5	set	45
   188  0030                     _RB0	set	48
   189  0031                     _RB1	set	49
   190  0032                     _RB2	set	50
   191  0033                     _RB3	set	51
   192  0034                     _RB4	set	52
   193  0035                     _RB5	set	53
   194  0036                     _RB6	set	54
   195  0037                     _RB7	set	55
   196  0058                     _RBIF	set	88
   197  0038                     _RC0	set	56
   198  0039                     _RC1	set	57
   199  003A                     _RC2	set	58
   200  0040                     _RD0	set	64
   201  0041                     _RD1	set	65
   202  0042                     _RD2	set	66
   203  0043                     _RD3	set	67
   204  0044                     _RD4	set	68
   205  0045                     _RD5	set	69
   206  0046                     _RD6	set	70
   207  0047                     _RD7	set	71
   208  0048                     _RE0	set	72
   209  0049                     _RE1	set	73
   210  00C7                     _SPEN	set	199
   211  00A5                     _SSPEN	set	165
   212  0060                     _TMR1IF	set	96
   213  0080                     _TMR1ON	set	128
   214  0061                     _TMR2IF	set	97
   215  0092                     _TMR2ON	set	146
   216  009F                     _ADCON1	set	159
   217  009C                     _CMCON	set	156
   218  009D                     _CVRCON	set	157
   219  0081                     _OPTION_REG	set	129
   220  008C                     _PIE1	set	140
   221  008D                     _PIE2	set	141
   222  0092                     _PR2	set	146
   223  0085                     _TRISA	set	133
   224  0086                     _TRISB	set	134
   225  0087                     _TRISC	set	135
   226  0088                     _TRISD	set	136
   227  0089                     _TRISE	set	137
   228  0428                     _TRISA0	set	1064
   229  0447                     _TRISD7	set	1095
   230                           
   231                           ; #config settings
   232  0000                     
   233                           	psect	cinit
   234  0015                     start_initialization:	
   235  0015                     __initialization:	
   236                           
   237                           ; Clear objects allocated to BITCOMMON
   238  0015  01FD               	clrf	(__pbitbssCOMMON/(0+8))& (0+127)
   239                           
   240                           ; Clear objects allocated to BITBANK0
   241  0016  01B0               	clrf	(__pbitbssBANK0/(0+8))& (0+127)
   242                           
   243                           ; Clear objects allocated to BANK0
   244  0017  1383               	bcf	3,7	;select IRP bank0
   245  0018  3020               	movlw	low __pbssBANK0
   246  0019  0084               	movwf	4
   247  001A  3030               	movlw	low (__pbssBANK0+16)
   248  001B  120A  118A  2700   	fcall	clear_ram0
   249  001E                     end_of_initialization:	
   250                           ;End of C runtime variable initialization code
   251                           
   252  001E                     __end_of__initialization:	
   253  001E  0183               	clrf	3
   254  001F  120A  118A  2A94   	ljmp	_main	;jump to C main() function
   255                           
   256                           	psect	bitbssCOMMON
   257  03E8                     __pbitbssCOMMON:	
   258  03E8                     _dp_is_on:	
   259  03E8                     	ds	1
   260  03E9                     _dp_on:	
   261  03E9                     	ds	1
   262  03EA                     _half_load:	
   263  03EA                     	ds	1
   264  03EB                     _ht_on:	
   265  03EB                     	ds	1
   266  03EC                     _mot_high:	
   267  03EC                     	ds	1
   268  03ED                     _mot_is_rot:	
   269  03ED                     	ds	1
   270  03EE                     _mot_rot:	
   271  03EE                     	ds	1
   272                           
   273                           	psect	bitbssBANK0
   274  0180                     __pbitbssBANK0:	
   275  0180                     _ht_is_on:	
   276  0180                     	ds	1
   277  0181                     _no_spin:	
   278  0181                     	ds	1
   279  0182                     _sol1_on:	
   280  0182                     	ds	1
   281  0183                     _sol2_on:	
   282  0183                     	ds	1
   283  0184                     _sol3_on:	
   284  0184                     	ds	1
   285  0185                     _sol_is_on:	
   286  0185                     	ds	1
   287  0186                     isr@mot_is_high:	
   288  0186                     	ds	1
   289  0187                     isr@mot_is_left:	
   290  0187                     	ds	1
   291                           
   292                           	psect	bssBANK0
   293  0020                     __pbssBANK0:	
   294  0020                     isr@ticks:	
   295  0020                     	ds	4
   296  0024                     isr@i:	
   297  0024                     	ds	2
   298  0026                     _cur_step:	
   299  0026                     	ds	1
   300  0027                     _dp_op_time:	
   301  0027                     	ds	1
   302  0028                     _idle_time:	
   303  0028                     	ds	1
   304  0029                     _rot_time:	
   305  0029                     	ds	1
   306  002A                     _seconds:	
   307  002A                     	ds	1
   308  002B                     _skip_end:	
   309  002B                     	ds	1
   310  002C                     _sol_op_time:	
   311  002C                     	ds	1
   312  002D                     _temp:	
   313  002D                     	ds	1
   314  002E                     _temp_beg:	
   315  002E                     	ds	1
   316  002F                     _temp_end:	
   317  002F                     	ds	1
   318                           
   319                           	psect	clrtext
   320  0700                     clear_ram0:	
   321                           ;	Called with FSR containing the base address, and
   322                           ;	W with the last address+1
   323                           
   324  0700  0064               	clrwdt	;clear the watchdog before getting into this loop
   325  0701                     clrloop0:	
   326  0701  0180               	clrf	0	;clear RAM location pointed to by FSR
   327  0702  0A84               	incf	4,f	;increment pointer
   328  0703  0604               	xorwf	4,w	;XOR with final address
   329  0704  1903               	btfsc	3,2	;have we reached the end yet?
   330  0705  3400               	retlw	0	;all done for this memory range, return
   331  0706  0604               	xorwf	4,w	;XOR again to restore value
   332  0707  2F01               	goto	clrloop0	;do the next byte
   333                           
   334                           	psect	cstackCOMMON
   335  0070                     __pcstackCOMMON:	
   336  0070                     ?_init:	
   337  0070                     ?_state_a:	
   338                           ; 1 bytes @ 0x0
   339                           
   340  0070                     ?_state_b:	
   341                           ; 1 bytes @ 0x0
   342                           
   343  0070                     ?_state_c:	
   344                           ; 1 bytes @ 0x0
   345                           
   346  0070                     ?_state_d:	
   347                           ; 1 bytes @ 0x0
   348                           
   349  0070                     ?_state_f:	
   350                           ; 1 bytes @ 0x0
   351                           
   352  0070                     ?_state_g:	
   353                           ; 1 bytes @ 0x0
   354                           
   355  0070                     ?_state_h:	
   356                           ; 1 bytes @ 0x0
   357                           
   358  0070                     ?_state_j:	
   359                           ; 1 bytes @ 0x0
   360                           
   361  0070                     ?_state_k:	
   362                           ; 1 bytes @ 0x0
   363                           
   364  0070                     ?_state_l:	
   365                           ; 1 bytes @ 0x0
   366                           
   367  0070                     ?_state_m:	
   368                           ; 1 bytes @ 0x0
   369                           
   370  0070                     ?_state_n:	
   371                           ; 1 bytes @ 0x0
   372                           
   373  0070                     ?_state_p:	
   374                           ; 1 bytes @ 0x0
   375                           
   376  0070                     ?_state_q:	
   377                           ; 1 bytes @ 0x0
   378                           
   379  0070                     ?_discharge:	
   380                           ; 1 bytes @ 0x0
   381                           
   382  0070                     ?_suspend:	
   383                           ; 1 bytes @ 0x0
   384                           
   385  0070                     ??_suspend:	
   386                           ; 1 bytes @ 0x0
   387                           
   388  0070                     ?_rev_cw:	
   389                           ; 1 bytes @ 0x0
   390                           
   391  0070                     ?_mot_off:	
   392                           ; 1 bytes @ 0x0
   393                           
   394  0070                     ??_mot_off:	
   395                           ; 1 bytes @ 0x0
   396                           
   397  0070                     ?_resume:	
   398                           ; 1 bytes @ 0x0
   399                           
   400  0070                     ??_resume:	
   401                           ; 1 bytes @ 0x0
   402                           
   403  0070                     ?_main:	
   404                           ; 1 bytes @ 0x0
   405                           
   406  0070                     ?_isr:	
   407                           ; 1 bytes @ 0x0
   408                           
   409  0070                     ?_step:	
   410                           ; 1 bytes @ 0x0
   411                           
   412  0070                     ??_step:	
   413                           ; 1 bytes @ 0x0
   414                           
   415  0070                     ?_step_cw:	
   416                           ; 1 bytes @ 0x0
   417                           
   418  0070                     ?___lwmod:	
   419                           ; 1 bytes @ 0x0
   420                           
   421  0070                     step@step_num:	
   422                           ; 2 bytes @ 0x0
   423                           
   424  0070                     ___lwmod@divisor:	
   425                           ; 1 bytes @ 0x0
   426                           
   427                           
   428                           ; 2 bytes @ 0x0
   429  0070                     	ds	1
   430  0071                     ??_step_cw:	
   431                           
   432                           ; 1 bytes @ 0x1
   433  0071                     	ds	1
   434  0072                     ??_rev_cw:	
   435  0072                     rev_cw@i:	
   436                           ; 1 bytes @ 0x2
   437                           
   438  0072                     ___lwmod@dividend:	
   439                           ; 2 bytes @ 0x2
   440                           
   441                           
   442                           ; 2 bytes @ 0x2
   443  0072                     	ds	2
   444  0074                     ??___lwmod:	
   445                           
   446                           ; 1 bytes @ 0x4
   447  0074                     	ds	1
   448  0075                     ___lwmod@counter:	
   449                           
   450                           ; 1 bytes @ 0x5
   451  0075                     	ds	1
   452  0076                     ??_isr:	
   453                           
   454                           ; 1 bytes @ 0x6
   455  0076                     	ds	7
   456                           
   457                           	psect	cstackBANK0
   458  0034                     __pcstackBANK0:	
   459  0034                     ??_init:	
   460  0034                     ??_state_a:	
   461                           ; 1 bytes @ 0x0
   462                           
   463  0034                     ??_state_b:	
   464                           ; 1 bytes @ 0x0
   465                           
   466  0034                     ??_state_c:	
   467                           ; 1 bytes @ 0x0
   468                           
   469  0034                     ??_state_d:	
   470                           ; 1 bytes @ 0x0
   471                           
   472  0034                     ??_state_f:	
   473                           ; 1 bytes @ 0x0
   474                           
   475  0034                     ??_state_g:	
   476                           ; 1 bytes @ 0x0
   477                           
   478  0034                     ??_state_j:	
   479                           ; 1 bytes @ 0x0
   480                           
   481  0034                     ??_state_k:	
   482                           ; 1 bytes @ 0x0
   483                           
   484  0034                     ??_state_l:	
   485                           ; 1 bytes @ 0x0
   486                           
   487  0034                     ??_state_m:	
   488                           ; 1 bytes @ 0x0
   489                           
   490  0034                     ??_state_n:	
   491                           ; 1 bytes @ 0x0
   492                           
   493  0034                     ??_state_p:	
   494                           ; 1 bytes @ 0x0
   495                           
   496  0034                     ??_state_q:	
   497                           ; 1 bytes @ 0x0
   498                           
   499  0034                     ??_discharge:	
   500                           ; 1 bytes @ 0x0
   501                           
   502                           
   503                           ; 1 bytes @ 0x0
   504  0034                     	ds	1
   505  0035                     ??_state_h:	
   506                           
   507                           ; 1 bytes @ 0x1
   508  0035                     	ds	1
   509  0036                     ??_main:	
   510                           
   511                           	psect	maintext
   512  0294                     __pmaintext:	
   513                           ; 1 bytes @ 0x2
   514 ;;
   515 ;;Main: autosize = 0, tempsize = 0, incstack = 0, save=0
   516 ;;
   517 ;; *************** function _main *****************
   518 ;; Defined at:
   519 ;;		line 122 in file "auto_washing_machine.c"
   520 ;; Parameters:    Size  Location     Type
   521 ;;		None
   522 ;; Auto vars:     Size  Location     Type
   523 ;;		None
   524 ;; Return value:  Size  Location     Type
   525 ;;                  1    wreg      void 
   526 ;; Registers used:
   527 ;;		wreg, status,2, status,0, pclath, cstack
   528 ;; Tracked objects:
   529 ;;		On entry : B00/0
   530 ;;		On exit  : 0/0
   531 ;;		Unchanged: 0/0
   532 ;; Data sizes:     COMMON   BANK0   BANK1   BANK3   BANK2
   533 ;;      Params:         0       0       0       0       0
   534 ;;      Locals:         0       0       0       0       0
   535 ;;      Temps:          0       0       0       0       0
   536 ;;      Totals:         0       0       0       0       0
   537 ;;Total ram usage:        0 bytes
   538 ;; Hardware stack levels required when called:    6
   539 ;; This function calls:
   540 ;;		_init
   541 ;;		_state_a
   542 ;;		_state_b
   543 ;;		_state_c
   544 ;;		_state_d
   545 ;;		_state_f
   546 ;;		_state_g
   547 ;;		_state_h
   548 ;;		_state_j
   549 ;;		_state_k
   550 ;;		_state_l
   551 ;;		_state_m
   552 ;;		_state_n
   553 ;;		_state_p
   554 ;;		_state_q
   555 ;; This function is called by:
   556 ;;		Startup code after reset
   557 ;; This function uses a non-reentrant model
   558 ;;
   559                           
   560                           
   561                           ;psect for function _main
   562  0294                     _main:	
   563                           
   564                           ;auto_washing_machine.c: 124: (GIE = 0);
   565                           
   566                           ;incstack = 0
   567                           ; Regs used in _main: [wreg+status,2+status,0+pclath+cstack]
   568  0294  138B               	bcf	11,7	;volatile
   569                           
   570                           ;auto_washing_machine.c: 125: TRISD7 = 0b0;
   571  0295  1683               	bsf	3,5	;RP0=1, select bank1
   572  0296  1303               	bcf	3,6	;RP1=0, select bank1
   573  0297  1388               	bcf	8,7	;volatile
   574                           
   575                           ;auto_washing_machine.c: 126: RD7 = 0b1;
   576  0298  1283               	bcf	3,5	;RP0=0, select bank0
   577  0299  1303               	bcf	3,6	;RP1=0, select bank0
   578  029A  1788               	bsf	8,7	;volatile
   579                           
   580                           ;auto_washing_machine.c: 127: TRISA0 = 0b0;
   581  029B  1683               	bsf	3,5	;RP0=1, select bank1
   582  029C  1303               	bcf	3,6	;RP1=0, select bank1
   583  029D  1005               	bcf	5,0	;volatile
   584                           
   585                           ;auto_washing_machine.c: 128: RA0 = !0b1;
   586  029E  1283               	bcf	3,5	;RP0=0, select bank0
   587  029F  1303               	bcf	3,6	;RP1=0, select bank0
   588  02A0  1005               	bcf	5,0	;volatile
   589                           
   590                           ;auto_washing_machine.c: 138: INTCON = 0x58;
   591  02A1  3058               	movlw	88
   592  02A2  008B               	movwf	11	;volatile
   593                           
   594                           ;auto_washing_machine.c: 144: PIE1 = 0x03;
   595  02A3  3003               	movlw	3
   596  02A4  1683               	bsf	3,5	;RP0=1, select bank1
   597  02A5  1303               	bcf	3,6	;RP1=0, select bank1
   598  02A6  008C               	movwf	12	;volatile
   599                           
   600                           ;auto_washing_machine.c: 145: PIE2 = 0x00;
   601  02A7  018D               	clrf	13	;volatile
   602                           
   603                           ;auto_washing_machine.c: 147: PIR1 = 0x00;
   604  02A8  1283               	bcf	3,5	;RP0=0, select bank0
   605  02A9  1303               	bcf	3,6	;RP1=0, select bank0
   606  02AA  018C               	clrf	12	;volatile
   607                           
   608                           ;auto_washing_machine.c: 148: PIR2 = 0x00;
   609  02AB  018D               	clrf	13	;volatile
   610                           
   611                           ;auto_washing_machine.c: 158: OPTION_REG = 0x0F;
   612  02AC  300F               	movlw	15
   613  02AD  1683               	bsf	3,5	;RP0=1, select bank1
   614  02AE  1303               	bcf	3,6	;RP1=0, select bank1
   615  02AF  0081               	movwf	1	;volatile
   616                           
   617                           ;auto_washing_machine.c: 161: ADCON0 = 0x00;
   618  02B0  1283               	bcf	3,5	;RP0=0, select bank0
   619  02B1  1303               	bcf	3,6	;RP1=0, select bank0
   620  02B2  019F               	clrf	31	;volatile
   621                           
   622                           ;auto_washing_machine.c: 162: ADCON1 = 0x07;
   623  02B3  3007               	movlw	7
   624  02B4  1683               	bsf	3,5	;RP0=1, select bank1
   625  02B5  1303               	bcf	3,6	;RP1=0, select bank1
   626  02B6  009F               	movwf	31	;volatile
   627                           
   628                           ;auto_washing_machine.c: 163: CMCON = 0x07;
   629  02B7  3007               	movlw	7
   630  02B8  009C               	movwf	28	;volatile
   631                           
   632                           ;auto_washing_machine.c: 164: CVRCON = 0x00;
   633  02B9  019D               	clrf	29	;volatile
   634                           
   635                           ;auto_washing_machine.c: 165: SSPEN = 0b0;
   636  02BA  1283               	bcf	3,5	;RP0=0, select bank0
   637  02BB  1303               	bcf	3,6	;RP1=0, select bank0
   638  02BC  1294               	bcf	20,5	;volatile
   639                           
   640                           ;auto_washing_machine.c: 166: TRISA = 0x00;
   641  02BD  1683               	bsf	3,5	;RP0=1, select bank1
   642  02BE  1303               	bcf	3,6	;RP1=0, select bank1
   643  02BF  0185               	clrf	5	;volatile
   644                           
   645                           ;auto_washing_machine.c: 169: TRISB = 0xFF;
   646  02C0  30FF               	movlw	255
   647  02C1  0086               	movwf	6	;volatile
   648                           
   649                           ;auto_washing_machine.c: 172: CCP1CON = 0x00;
   650  02C2  1283               	bcf	3,5	;RP0=0, select bank0
   651  02C3  1303               	bcf	3,6	;RP1=0, select bank0
   652  02C4  0197               	clrf	23	;volatile
   653                           
   654                           ;auto_washing_machine.c: 173: CCP2CON = 0x00;
   655  02C5  019D               	clrf	29	;volatile
   656                           
   657                           ;auto_washing_machine.c: 174: SPEN = 0b0;
   658  02C6  1398               	bcf	24,7	;volatile
   659                           
   660                           ;auto_washing_machine.c: 175: TRISC = 0x00;
   661  02C7  1683               	bsf	3,5	;RP0=1, select bank1
   662  02C8  1303               	bcf	3,6	;RP1=0, select bank1
   663  02C9  0187               	clrf	7	;volatile
   664                           
   665                           ;auto_washing_machine.c: 178: TRISD = 0x00;
   666  02CA  0188               	clrf	8	;volatile
   667                           
   668                           ;auto_washing_machine.c: 181: TRISE = 0x03;
   669  02CB  3003               	movlw	3
   670  02CC  0089               	movwf	9	;volatile
   671                           
   672                           ;auto_washing_machine.c: 183: TMR0 = 0x00;
   673  02CD  1283               	bcf	3,5	;RP0=0, select bank0
   674  02CE  1303               	bcf	3,6	;RP1=0, select bank0
   675  02CF  0181               	clrf	1	;volatile
   676                           
   677                           ;auto_washing_machine.c: 192: T1CON = 0x30;
   678  02D0  3030               	movlw	48
   679  02D1  0090               	movwf	16	;volatile
   680                           
   681                           ;auto_washing_machine.c: 195: T2CON = 0x7B;
   682  02D2  307B               	movlw	123
   683  02D3  0092               	movwf	18	;volatile
   684                           
   685                           ;auto_washing_machine.c: 196: PR2 = 0xFF;
   686  02D4  30FF               	movlw	255
   687  02D5  1683               	bsf	3,5	;RP0=1, select bank1
   688  02D6  1303               	bcf	3,6	;RP1=0, select bank1
   689  02D7  0092               	movwf	18	;volatile
   690                           
   691                           ;auto_washing_machine.c: 198: init();
   692  02D8  120A  118A  2621  120A  118A  	fcall	_init
   693                           
   694                           ;auto_washing_machine.c: 199: (GIE = 1);
   695  02DD  178B               	bsf	11,7	;volatile
   696  02DE  2B2C               	goto	l219
   697  02DF                     l3153:	
   698                           
   699                           ;auto_washing_machine.c: 205: state_a();
   700  02DF  120A  118A  25E3  120A  118A  	fcall	_state_a
   701  02E4  2B2C               	goto	l219
   702  02E5                     l3157:	
   703                           
   704                           ;auto_washing_machine.c: 207: state_b();
   705  02E5  120A  118A  25A4  120A  118A  	fcall	_state_b
   706  02EA  2B2C               	goto	l219
   707  02EB                     l3161:	
   708                           
   709                           ;auto_washing_machine.c: 209: state_c();
   710  02EB  120A  118A  2563  120A  118A  	fcall	_state_c
   711  02F0  2B2C               	goto	l219
   712  02F1                     l3165:	
   713                           
   714                           ;auto_washing_machine.c: 211: state_d();
   715  02F1  120A  118A  251A  120A  118A  	fcall	_state_d
   716  02F6  2B2C               	goto	l219
   717  02F7                     l3169:	
   718                           
   719                           ;auto_washing_machine.c: 213: state_f();
   720  02F7  120A  118A  2385  120A  118A  	fcall	_state_f
   721  02FC  2B2C               	goto	l219
   722  02FD                     l3173:	
   723                           
   724                           ;auto_washing_machine.c: 215: state_g();
   725  02FD  120A  118A  24CE  120A  118A  	fcall	_state_g
   726  0302  2B2C               	goto	l219
   727  0303                     l3177:	
   728                           
   729                           ;auto_washing_machine.c: 217: state_h();
   730  0303  120A  118A  2687  120A  118A  	fcall	_state_h
   731  0308  2B2C               	goto	l219
   732  0309                     l3181:	
   733                           
   734                           ;auto_washing_machine.c: 219: state_j();
   735  0309  120A  118A  2715  120A  118A  	fcall	_state_j
   736  030E  2B2C               	goto	l219
   737  030F                     l3185:	
   738                           
   739                           ;auto_washing_machine.c: 221: state_k();
   740  030F  120A  118A  2714  120A  118A  	fcall	_state_k
   741  0314  2B2C               	goto	l219
   742  0315                     l3189:	
   743                           
   744                           ;auto_washing_machine.c: 223: state_l();
   745  0315  120A  118A  2713  120A  118A  	fcall	_state_l
   746  031A  2B2C               	goto	l219
   747  031B                     l3193:	
   748                           
   749                           ;auto_washing_machine.c: 225: state_m();
   750  031B  120A  118A  2712  120A  118A  	fcall	_state_m
   751  0320  2B2C               	goto	l219
   752  0321                     l3197:	
   753                           
   754                           ;auto_washing_machine.c: 227: state_n();
   755  0321  120A  118A  2711  120A  118A  	fcall	_state_n
   756  0326  2B2C               	goto	l219
   757  0327                     l3201:	
   758                           
   759                           ;auto_washing_machine.c: 229: state_p();
   760  0327  120A  118A  2710  120A  118A  	fcall	_state_p
   761  032C                     l219:	
   762                           ;auto_washing_machine.c: 201: while(1)
   763                           
   764  032C  0064               	clrwdt	;# 
   765                           
   766                           ;auto_washing_machine.c: 204: if(A == cur_state)
   767  032D  1283               	bcf	3,5	;RP0=0, select bank0
   768  032E  1303               	bcf	3,6	;RP1=0, select bank0
   769  032F  0831               	movf	_cur_state,w
   770  0330  1903               	btfsc	3,2
   771  0331  2ADF               	goto	l3153
   772                           
   773                           ;auto_washing_machine.c: 206: else if(B == cur_state)
   774  0332  1283               	bcf	3,5	;RP0=0, select bank0
   775  0333  1303               	bcf	3,6	;RP1=0, select bank0
   776  0334  0331               	decf	_cur_state,w
   777  0335  1903               	btfsc	3,2
   778  0336  2AE5               	goto	l3157
   779                           
   780                           ;auto_washing_machine.c: 208: else if(C == cur_state)
   781  0337  3002               	movlw	2
   782  0338  1283               	bcf	3,5	;RP0=0, select bank0
   783  0339  1303               	bcf	3,6	;RP1=0, select bank0
   784  033A  0631               	xorwf	_cur_state,w
   785  033B  1903               	btfsc	3,2
   786  033C  2AEB               	goto	l3161
   787                           
   788                           ;auto_washing_machine.c: 210: else if(D == cur_state)
   789  033D  3003               	movlw	3
   790  033E  1283               	bcf	3,5	;RP0=0, select bank0
   791  033F  1303               	bcf	3,6	;RP1=0, select bank0
   792  0340  0631               	xorwf	_cur_state,w
   793  0341  1903               	btfsc	3,2
   794  0342  2AF1               	goto	l3165
   795                           
   796                           ;auto_washing_machine.c: 212: else if(F == cur_state)
   797  0343  3004               	movlw	4
   798  0344  1283               	bcf	3,5	;RP0=0, select bank0
   799  0345  1303               	bcf	3,6	;RP1=0, select bank0
   800  0346  0631               	xorwf	_cur_state,w
   801  0347  1903               	btfsc	3,2
   802  0348  2AF7               	goto	l3169
   803                           
   804                           ;auto_washing_machine.c: 214: else if(G == cur_state)
   805  0349  3005               	movlw	5
   806  034A  1283               	bcf	3,5	;RP0=0, select bank0
   807  034B  1303               	bcf	3,6	;RP1=0, select bank0
   808  034C  0631               	xorwf	_cur_state,w
   809  034D  1903               	btfsc	3,2
   810  034E  2AFD               	goto	l3173
   811                           
   812                           ;auto_washing_machine.c: 216: else if(H == cur_state)
   813  034F  3006               	movlw	6
   814  0350  1283               	bcf	3,5	;RP0=0, select bank0
   815  0351  1303               	bcf	3,6	;RP1=0, select bank0
   816  0352  0631               	xorwf	_cur_state,w
   817  0353  1903               	btfsc	3,2
   818  0354  2B03               	goto	l3177
   819                           
   820                           ;auto_washing_machine.c: 218: else if(J == cur_state)
   821  0355  3007               	movlw	7
   822  0356  1283               	bcf	3,5	;RP0=0, select bank0
   823  0357  1303               	bcf	3,6	;RP1=0, select bank0
   824  0358  0631               	xorwf	_cur_state,w
   825  0359  1903               	btfsc	3,2
   826  035A  2B09               	goto	l3181
   827                           
   828                           ;auto_washing_machine.c: 220: else if(K == cur_state)
   829  035B  3008               	movlw	8
   830  035C  1283               	bcf	3,5	;RP0=0, select bank0
   831  035D  1303               	bcf	3,6	;RP1=0, select bank0
   832  035E  0631               	xorwf	_cur_state,w
   833  035F  1903               	btfsc	3,2
   834  0360  2B0F               	goto	l3185
   835                           
   836                           ;auto_washing_machine.c: 222: else if(L == cur_state)
   837  0361  3009               	movlw	9
   838  0362  1283               	bcf	3,5	;RP0=0, select bank0
   839  0363  1303               	bcf	3,6	;RP1=0, select bank0
   840  0364  0631               	xorwf	_cur_state,w
   841  0365  1903               	btfsc	3,2
   842  0366  2B15               	goto	l3189
   843                           
   844                           ;auto_washing_machine.c: 224: else if(M == cur_state)
   845  0367  300A               	movlw	10
   846  0368  1283               	bcf	3,5	;RP0=0, select bank0
   847  0369  1303               	bcf	3,6	;RP1=0, select bank0
   848  036A  0631               	xorwf	_cur_state,w
   849  036B  1903               	btfsc	3,2
   850  036C  2B1B               	goto	l3193
   851                           
   852                           ;auto_washing_machine.c: 226: else if(N == cur_state)
   853  036D  300B               	movlw	11
   854  036E  1283               	bcf	3,5	;RP0=0, select bank0
   855  036F  1303               	bcf	3,6	;RP1=0, select bank0
   856  0370  0631               	xorwf	_cur_state,w
   857  0371  1903               	btfsc	3,2
   858  0372  2B21               	goto	l3197
   859                           
   860                           ;auto_washing_machine.c: 228: else if(P == cur_state)
   861  0373  300C               	movlw	12
   862  0374  1283               	bcf	3,5	;RP0=0, select bank0
   863  0375  1303               	bcf	3,6	;RP1=0, select bank0
   864  0376  0631               	xorwf	_cur_state,w
   865  0377  1903               	btfsc	3,2
   866  0378  2B27               	goto	l3201
   867                           
   868                           ;auto_washing_machine.c: 230: else if(Q == cur_state)
   869  0379  300D               	movlw	13
   870  037A  1283               	bcf	3,5	;RP0=0, select bank0
   871  037B  1303               	bcf	3,6	;RP1=0, select bank0
   872  037C  0631               	xorwf	_cur_state,w
   873  037D  1D03               	btfss	3,2
   874  037E  2B2C               	goto	l219
   875                           
   876                           ;auto_washing_machine.c: 231: state_q();
   877  037F  120A  118A  270F  120A  118A  	fcall	_state_q
   878  0384  2B2C               	goto	l219
   879  0385                     __end_of_main:	
   880                           
   881                           	psect	text1
   882  070F                     __ptext1:	
   883 ;; *************** function _state_q *****************
   884 ;; Defined at:
   885 ;;		line 652 in file "auto_washing_machine.c"
   886 ;; Parameters:    Size  Location     Type
   887 ;;		None
   888 ;; Auto vars:     Size  Location     Type
   889 ;;		None
   890 ;; Return value:  Size  Location     Type
   891 ;;                  1    wreg      void 
   892 ;; Registers used:
   893 ;;		None
   894 ;; Tracked objects:
   895 ;;		On entry : 0/0
   896 ;;		On exit  : 0/0
   897 ;;		Unchanged: 0/0
   898 ;; Data sizes:     COMMON   BANK0   BANK1   BANK3   BANK2
   899 ;;      Params:         0       0       0       0       0
   900 ;;      Locals:         0       0       0       0       0
   901 ;;      Temps:          0       0       0       0       0
   902 ;;      Totals:         0       0       0       0       0
   903 ;;Total ram usage:        0 bytes
   904 ;; Hardware stack levels used:    1
   905 ;; Hardware stack levels required when called:    4
   906 ;; This function calls:
   907 ;;		Nothing
   908 ;; This function is called by:
   909 ;;		_main
   910 ;; This function uses a non-reentrant model
   911 ;;
   912                           
   913                           
   914                           ;psect for function _state_q
   915  070F                     _state_q:	
   916                           
   917                           ;incstack = 0
   918                           ; Regs used in _state_q: []
   919  070F  0008               	return
   920  0710                     __end_of_state_q:	
   921                           
   922                           	psect	text2
   923  0710                     __ptext2:	
   924 ;; *************** function _state_p *****************
   925 ;; Defined at:
   926 ;;		line 646 in file "auto_washing_machine.c"
   927 ;; Parameters:    Size  Location     Type
   928 ;;		None
   929 ;; Auto vars:     Size  Location     Type
   930 ;;		None
   931 ;; Return value:  Size  Location     Type
   932 ;;                  1    wreg      void 
   933 ;; Registers used:
   934 ;;		None
   935 ;; Tracked objects:
   936 ;;		On entry : 0/0
   937 ;;		On exit  : 0/0
   938 ;;		Unchanged: 0/0
   939 ;; Data sizes:     COMMON   BANK0   BANK1   BANK3   BANK2
   940 ;;      Params:         0       0       0       0       0
   941 ;;      Locals:         0       0       0       0       0
   942 ;;      Temps:          0       0       0       0       0
   943 ;;      Totals:         0       0       0       0       0
   944 ;;Total ram usage:        0 bytes
   945 ;; Hardware stack levels used:    1
   946 ;; Hardware stack levels required when called:    4
   947 ;; This function calls:
   948 ;;		Nothing
   949 ;; This function is called by:
   950 ;;		_main
   951 ;; This function uses a non-reentrant model
   952 ;;
   953                           
   954                           
   955                           ;psect for function _state_p
   956  0710                     _state_p:	
   957                           
   958                           ;incstack = 0
   959                           ; Regs used in _state_p: []
   960  0710  0008               	return
   961  0711                     __end_of_state_p:	
   962                           
   963                           	psect	text3
   964  0711                     __ptext3:	
   965 ;; *************** function _state_n *****************
   966 ;; Defined at:
   967 ;;		line 640 in file "auto_washing_machine.c"
   968 ;; Parameters:    Size  Location     Type
   969 ;;		None
   970 ;; Auto vars:     Size  Location     Type
   971 ;;		None
   972 ;; Return value:  Size  Location     Type
   973 ;;                  1    wreg      void 
   974 ;; Registers used:
   975 ;;		None
   976 ;; Tracked objects:
   977 ;;		On entry : 0/0
   978 ;;		On exit  : 0/0
   979 ;;		Unchanged: 0/0
   980 ;; Data sizes:     COMMON   BANK0   BANK1   BANK3   BANK2
   981 ;;      Params:         0       0       0       0       0
   982 ;;      Locals:         0       0       0       0       0
   983 ;;      Temps:          0       0       0       0       0
   984 ;;      Totals:         0       0       0       0       0
   985 ;;Total ram usage:        0 bytes
   986 ;; Hardware stack levels used:    1
   987 ;; Hardware stack levels required when called:    4
   988 ;; This function calls:
   989 ;;		Nothing
   990 ;; This function is called by:
   991 ;;		_main
   992 ;; This function uses a non-reentrant model
   993 ;;
   994                           
   995                           
   996                           ;psect for function _state_n
   997  0711                     _state_n:	
   998                           
   999                           ;incstack = 0
  1000                           ; Regs used in _state_n: []
  1001  0711  0008               	return
  1002  0712                     __end_of_state_n:	
  1003                           
  1004                           	psect	text4
  1005  0712                     __ptext4:	
  1006 ;; *************** function _state_m *****************
  1007 ;; Defined at:
  1008 ;;		line 634 in file "auto_washing_machine.c"
  1009 ;; Parameters:    Size  Location     Type
  1010 ;;		None
  1011 ;; Auto vars:     Size  Location     Type
  1012 ;;		None
  1013 ;; Return value:  Size  Location     Type
  1014 ;;                  1    wreg      void 
  1015 ;; Registers used:
  1016 ;;		None
  1017 ;; Tracked objects:
  1018 ;;		On entry : 0/0
  1019 ;;		On exit  : 0/0
  1020 ;;		Unchanged: 0/0
  1021 ;; Data sizes:     COMMON   BANK0   BANK1   BANK3   BANK2
  1022 ;;      Params:         0       0       0       0       0
  1023 ;;      Locals:         0       0       0       0       0
  1024 ;;      Temps:          0       0       0       0       0
  1025 ;;      Totals:         0       0       0       0       0
  1026 ;;Total ram usage:        0 bytes
  1027 ;; Hardware stack levels used:    1
  1028 ;; Hardware stack levels required when called:    4
  1029 ;; This function calls:
  1030 ;;		Nothing
  1031 ;; This function is called by:
  1032 ;;		_main
  1033 ;; This function uses a non-reentrant model
  1034 ;;
  1035                           
  1036                           
  1037                           ;psect for function _state_m
  1038  0712                     _state_m:	
  1039                           
  1040                           ;incstack = 0
  1041                           ; Regs used in _state_m: []
  1042  0712  0008               	return
  1043  0713                     __end_of_state_m:	
  1044                           
  1045                           	psect	text5
  1046  0713                     __ptext5:	
  1047 ;; *************** function _state_l *****************
  1048 ;; Defined at:
  1049 ;;		line 628 in file "auto_washing_machine.c"
  1050 ;; Parameters:    Size  Location     Type
  1051 ;;		None
  1052 ;; Auto vars:     Size  Location     Type
  1053 ;;		None
  1054 ;; Return value:  Size  Location     Type
  1055 ;;                  1    wreg      void 
  1056 ;; Registers used:
  1057 ;;		None
  1058 ;; Tracked objects:
  1059 ;;		On entry : 0/0
  1060 ;;		On exit  : 0/0
  1061 ;;		Unchanged: 0/0
  1062 ;; Data sizes:     COMMON   BANK0   BANK1   BANK3   BANK2
  1063 ;;      Params:         0       0       0       0       0
  1064 ;;      Locals:         0       0       0       0       0
  1065 ;;      Temps:          0       0       0       0       0
  1066 ;;      Totals:         0       0       0       0       0
  1067 ;;Total ram usage:        0 bytes
  1068 ;; Hardware stack levels used:    1
  1069 ;; Hardware stack levels required when called:    4
  1070 ;; This function calls:
  1071 ;;		Nothing
  1072 ;; This function is called by:
  1073 ;;		_main
  1074 ;; This function uses a non-reentrant model
  1075 ;;
  1076                           
  1077                           
  1078                           ;psect for function _state_l
  1079  0713                     _state_l:	
  1080                           
  1081                           ;incstack = 0
  1082                           ; Regs used in _state_l: []
  1083  0713  0008               	return
  1084  0714                     __end_of_state_l:	
  1085                           
  1086                           	psect	text6
  1087  0714                     __ptext6:	
  1088 ;; *************** function _state_k *****************
  1089 ;; Defined at:
  1090 ;;		line 622 in file "auto_washing_machine.c"
  1091 ;; Parameters:    Size  Location     Type
  1092 ;;		None
  1093 ;; Auto vars:     Size  Location     Type
  1094 ;;		None
  1095 ;; Return value:  Size  Location     Type
  1096 ;;                  1    wreg      void 
  1097 ;; Registers used:
  1098 ;;		None
  1099 ;; Tracked objects:
  1100 ;;		On entry : 0/0
  1101 ;;		On exit  : 0/0
  1102 ;;		Unchanged: 0/0
  1103 ;; Data sizes:     COMMON   BANK0   BANK1   BANK3   BANK2
  1104 ;;      Params:         0       0       0       0       0
  1105 ;;      Locals:         0       0       0       0       0
  1106 ;;      Temps:          0       0       0       0       0
  1107 ;;      Totals:         0       0       0       0       0
  1108 ;;Total ram usage:        0 bytes
  1109 ;; Hardware stack levels used:    1
  1110 ;; Hardware stack levels required when called:    4
  1111 ;; This function calls:
  1112 ;;		Nothing
  1113 ;; This function is called by:
  1114 ;;		_main
  1115 ;; This function uses a non-reentrant model
  1116 ;;
  1117                           
  1118                           
  1119                           ;psect for function _state_k
  1120  0714                     _state_k:	
  1121                           
  1122                           ;incstack = 0
  1123                           ; Regs used in _state_k: []
  1124  0714  0008               	return
  1125  0715                     __end_of_state_k:	
  1126                           
  1127                           	psect	text7
  1128  0715                     __ptext7:	
  1129 ;; *************** function _state_j *****************
  1130 ;; Defined at:
  1131 ;;		line 616 in file "auto_washing_machine.c"
  1132 ;; Parameters:    Size  Location     Type
  1133 ;;		None
  1134 ;; Auto vars:     Size  Location     Type
  1135 ;;		None
  1136 ;; Return value:  Size  Location     Type
  1137 ;;                  1    wreg      void 
  1138 ;; Registers used:
  1139 ;;		None
  1140 ;; Tracked objects:
  1141 ;;		On entry : 0/0
  1142 ;;		On exit  : 0/0
  1143 ;;		Unchanged: 0/0
  1144 ;; Data sizes:     COMMON   BANK0   BANK1   BANK3   BANK2
  1145 ;;      Params:         0       0       0       0       0
  1146 ;;      Locals:         0       0       0       0       0
  1147 ;;      Temps:          0       0       0       0       0
  1148 ;;      Totals:         0       0       0       0       0
  1149 ;;Total ram usage:        0 bytes
  1150 ;; Hardware stack levels used:    1
  1151 ;; Hardware stack levels required when called:    4
  1152 ;; This function calls:
  1153 ;;		Nothing
  1154 ;; This function is called by:
  1155 ;;		_main
  1156 ;; This function uses a non-reentrant model
  1157 ;;
  1158                           
  1159                           
  1160                           ;psect for function _state_j
  1161  0715                     _state_j:	
  1162                           
  1163                           ;incstack = 0
  1164                           ; Regs used in _state_j: []
  1165  0715  0008               	return
  1166  0716                     __end_of_state_j:	
  1167                           
  1168                           	psect	text8
  1169  0687                     __ptext8:	
  1170 ;; *************** function _state_h *****************
  1171 ;; Defined at:
  1172 ;;		line 592 in file "auto_washing_machine.c"
  1173 ;; Parameters:    Size  Location     Type
  1174 ;;		None
  1175 ;; Auto vars:     Size  Location     Type
  1176 ;;		None
  1177 ;; Return value:  Size  Location     Type
  1178 ;;                  1    wreg      void 
  1179 ;; Registers used:
  1180 ;;		wreg, status,2, status,0, pclath, cstack
  1181 ;; Tracked objects:
  1182 ;;		On entry : 0/0
  1183 ;;		On exit  : 0/0
  1184 ;;		Unchanged: 0/0
  1185 ;; Data sizes:     COMMON   BANK0   BANK1   BANK3   BANK2
  1186 ;;      Params:         0       0       0       0       0
  1187 ;;      Locals:         0       0       0       0       0
  1188 ;;      Temps:          0       1       0       0       0
  1189 ;;      Totals:         0       1       0       0       0
  1190 ;;Total ram usage:        1 bytes
  1191 ;; Hardware stack levels used:    1
  1192 ;; Hardware stack levels required when called:    5
  1193 ;; This function calls:
  1194 ;;		_discharge
  1195 ;;		_init
  1196 ;; This function is called by:
  1197 ;;		_main
  1198 ;; This function uses a non-reentrant model
  1199 ;;
  1200                           
  1201                           
  1202                           ;psect for function _state_h
  1203  0687                     _state_h:	
  1204                           
  1205                           ;auto_washing_machine.c: 594: if(0b0 == no_spin)
  1206                           
  1207                           ;incstack = 0
  1208                           ; Regs used in _state_h: [wreg+status,2+status,0+pclath+cstack]
  1209  0687  1283               	bcf	3,5	;RP0=0, select bank0
  1210  0688  1303               	bcf	3,6	;RP1=0, select bank0
  1211  0689  18B0               	btfsc	_no_spin/(0+8),_no_spin& (0+7)	;volatile
  1212  068A  2EA1               	goto	l379
  1213                           
  1214                           ;auto_washing_machine.c: 595: {
  1215                           ;auto_washing_machine.c: 596: (PORTC = ((unsigned char)(unsigned char)H << 4) | (PORTC &
      +                           0x0F));
  1216  068B  0807               	movf	7,w	;volatile
  1217  068C  390F               	andlw	15
  1218  068D  3860               	iorlw	96
  1219  068E  0087               	movwf	7	;volatile
  1220                           
  1221                           ;auto_washing_machine.c: 597: ht_on = 0b0;
  1222  068F  11FD               	bcf	_ht_on/(0+8),_ht_on& (0+7)	;volatile
  1223                           
  1224                           ;auto_washing_machine.c: 598: discharge();
  1225  0690  120A  118A  26E5  120A  118A  	fcall	_discharge
  1226                           
  1227                           ;auto_washing_machine.c: 599: mot_high = 0b1;
  1228  0695  167D               	bsf	_mot_high/(0+8),_mot_high& (0+7)	;volatile
  1229                           
  1230                           ;auto_washing_machine.c: 600: mot_rot = 0b1;
  1231  0696  177D               	bsf	_mot_rot/(0+8),_mot_rot& (0+7)	;volatile
  1232                           
  1233                           ;auto_washing_machine.c: 601: rot_time = 0b0;
  1234  0697  1283               	bcf	3,5	;RP0=0, select bank0
  1235  0698  1303               	bcf	3,6	;RP1=0, select bank0
  1236  0699  01A9               	clrf	_rot_time	;volatile
  1237  069A                     l3007:	
  1238                           ;auto_washing_machine.c: 602: while(rot_time < 1u)
  1239                           
  1240  069A  1283               	bcf	3,5	;RP0=0, select bank0
  1241  069B  1303               	bcf	3,6	;RP1=0, select bank0
  1242  069C  0829               	movf	_rot_time,w	;volatile
  1243  069D  1D03               	btfss	3,2
  1244  069E  2EA1               	goto	l379
  1245  069F  0064               	clrwdt	;# 
  1246  06A0  2E9A               	goto	l3007
  1247  06A1                     l379:	
  1248                           
  1249                           ;auto_washing_machine.c: 604: }
  1250                           ;auto_washing_machine.c: 606: (GIE = 0);
  1251  06A1  138B               	bcf	11,7	;volatile
  1252                           
  1253                           ;auto_washing_machine.c: 607: prev_state = H;
  1254  06A2  3006               	movlw	6
  1255  06A3  00B5               	movwf	??_state_h
  1256  06A4  0835               	movf	??_state_h,w
  1257  06A5  00B2               	movwf	_prev_state
  1258                           
  1259                           ;auto_washing_machine.c: 608: if(H == skip_beg)
  1260  06A6  3006               	movlw	6
  1261  06A7  0633               	xorwf	_skip_beg,w
  1262  06A8  1D03               	btfss	3,2
  1263  06A9  2EAF               	goto	l3015
  1264                           
  1265                           ;auto_washing_machine.c: 609: cur_state = skip_end;
  1266  06AA  082B               	movf	_skip_end,w
  1267  06AB  00B5               	movwf	??_state_h
  1268  06AC  0835               	movf	??_state_h,w
  1269  06AD  00B1               	movwf	_cur_state
  1270  06AE  2EB2               	goto	l3017
  1271  06AF                     l3015:	
  1272                           
  1273                           ;auto_washing_machine.c: 610: else
  1274                           ;auto_washing_machine.c: 611: init();
  1275  06AF  120A  118A  2621   	fcall	_init
  1276  06B2                     l3017:	
  1277                           
  1278                           ;auto_washing_machine.c: 612: (GIE = 1);
  1279  06B2  178B               	bsf	11,7	;volatile
  1280  06B3  0008               	return
  1281  06B4                     __end_of_state_h:	
  1282                           
  1283                           	psect	text9
  1284  0621                     __ptext9:	
  1285 ;; *************** function _init *****************
  1286 ;; Defined at:
  1287 ;;		line 239 in file "auto_washing_machine.c"
  1288 ;; Parameters:    Size  Location     Type
  1289 ;;		None
  1290 ;; Auto vars:     Size  Location     Type
  1291 ;;		None
  1292 ;; Return value:  Size  Location     Type
  1293 ;;                  1    wreg      void 
  1294 ;; Registers used:
  1295 ;;		wreg, status,2
  1296 ;; Tracked objects:
  1297 ;;		On entry : 0/0
  1298 ;;		On exit  : 0/0
  1299 ;;		Unchanged: 0/0
  1300 ;; Data sizes:     COMMON   BANK0   BANK1   BANK3   BANK2
  1301 ;;      Params:         0       0       0       0       0
  1302 ;;      Locals:         0       0       0       0       0
  1303 ;;      Temps:          0       1       0       0       0
  1304 ;;      Totals:         0       1       0       0       0
  1305 ;;Total ram usage:        1 bytes
  1306 ;; Hardware stack levels used:    1
  1307 ;; Hardware stack levels required when called:    4
  1308 ;; This function calls:
  1309 ;;		Nothing
  1310 ;; This function is called by:
  1311 ;;		_main
  1312 ;;		_state_h
  1313 ;; This function uses a non-reentrant model
  1314 ;;
  1315                           
  1316                           
  1317                           ;psect for function _init
  1318  0621                     _init:	
  1319                           
  1320                           ;auto_washing_machine.c: 242: cur_state = BEGINNING;
  1321                           
  1322                           ;incstack = 0
  1323                           ; Regs used in _init: [wreg+status,2]
  1324  0621  30FE               	movlw	254
  1325  0622  1283               	bcf	3,5	;RP0=0, select bank0
  1326  0623  1303               	bcf	3,6	;RP1=0, select bank0
  1327  0624  00B4               	movwf	??_init
  1328  0625  0834               	movf	??_init,w
  1329  0626  00B1               	movwf	_cur_state
  1330                           
  1331                           ;auto_washing_machine.c: 243: prev_state = BEGINNING;
  1332  0627  30FE               	movlw	254
  1333  0628  00B4               	movwf	??_init
  1334  0629  0834               	movf	??_init,w
  1335  062A  00B2               	movwf	_prev_state
  1336                           
  1337                           ;auto_washing_machine.c: 244: skip_beg = BEGINNING;
  1338  062B  30FE               	movlw	254
  1339  062C  00B4               	movwf	??_init
  1340  062D  0834               	movf	??_init,w
  1341  062E  00B3               	movwf	_skip_beg
  1342                           
  1343                           ;auto_washing_machine.c: 245: skip_end = A;
  1344  062F  01AB               	clrf	_skip_end
  1345                           
  1346                           ;auto_washing_machine.c: 247: seconds = 0x00;
  1347  0630  01AA               	clrf	_seconds	;volatile
  1348                           
  1349                           ;auto_washing_machine.c: 250: RC0 = !0b1;
  1350  0631  1007               	bcf	7,0	;volatile
  1351                           
  1352                           ;auto_washing_machine.c: 251: RC1 = !0b1;
  1353  0632  1087               	bcf	7,1	;volatile
  1354                           
  1355                           ;auto_washing_machine.c: 252: RC2 = 0b1;
  1356  0633  1507               	bsf	7,2	;volatile
  1357                           
  1358                           ;auto_washing_machine.c: 253: mot_rot = 0b0;
  1359  0634  137D               	bcf	_mot_rot/(0+8),_mot_rot& (0+7)	;volatile
  1360                           
  1361                           ;auto_washing_machine.c: 254: mot_is_rot = 0b0;
  1362  0635  12FD               	bcf	_mot_is_rot/(0+8),_mot_is_rot& (0+7)
  1363                           
  1364                           ;auto_washing_machine.c: 255: mot_high = 0b0;
  1365  0636  127D               	bcf	_mot_high/(0+8),_mot_high& (0+7)	;volatile
  1366                           
  1367                           ;auto_washing_machine.c: 256: rot_time = 0x00;
  1368  0637  01A9               	clrf	_rot_time	;volatile
  1369                           
  1370                           ;auto_washing_machine.c: 258: RD3 = !0b1;
  1371  0638  1188               	bcf	8,3	;volatile
  1372                           
  1373                           ;auto_washing_machine.c: 259: sol1_on = 0b0;
  1374  0639  1130               	bcf	_sol1_on/(0+8),_sol1_on& (0+7)	;volatile
  1375                           
  1376                           ;auto_washing_machine.c: 260: sol2_on = 0b0;
  1377  063A  11B0               	bcf	_sol2_on/(0+8),_sol2_on& (0+7)	;volatile
  1378                           
  1379                           ;auto_washing_machine.c: 261: sol3_on = 0b0;
  1380  063B  1230               	bcf	_sol3_on/(0+8),_sol3_on& (0+7)	;volatile
  1381                           
  1382                           ;auto_washing_machine.c: 262: sol_is_on = 0b0;
  1383  063C  12B0               	bcf	_sol_is_on/(0+8),_sol_is_on& (0+7)
  1384                           
  1385                           ;auto_washing_machine.c: 263: RA1 = !0b1;
  1386  063D  1085               	bcf	5,1	;volatile
  1387                           
  1388                           ;auto_washing_machine.c: 264: RA2 = !0b1;
  1389  063E  1105               	bcf	5,2	;volatile
  1390                           
  1391                           ;auto_washing_machine.c: 265: RA3 = !0b1;
  1392  063F  1185               	bcf	5,3	;volatile
  1393                           
  1394                           ;auto_washing_machine.c: 266: RA5 = !0b1;
  1395  0640  1285               	bcf	5,5	;volatile
  1396                           
  1397                           ;auto_washing_machine.c: 267: sol_op_time = 0x00;
  1398  0641  01AC               	clrf	_sol_op_time	;volatile
  1399                           
  1400                           ;auto_washing_machine.c: 269: RD1 = !0b1;
  1401  0642  1088               	bcf	8,1	;volatile
  1402                           
  1403                           ;auto_washing_machine.c: 270: dp_on = 0b0;
  1404  0643  10FD               	bcf	_dp_on/(0+8),_dp_on& (0+7)	;volatile
  1405                           
  1406                           ;auto_washing_machine.c: 271: dp_is_on = 0b0;
  1407  0644  107D               	bcf	_dp_is_on/(0+8),_dp_is_on& (0+7)
  1408                           
  1409                           ;auto_washing_machine.c: 272: dp_op_time = 0x00;
  1410  0645  01A7               	clrf	_dp_op_time	;volatile
  1411                           
  1412                           ;auto_washing_machine.c: 274: RD0 = !0b1;
  1413  0646  1008               	bcf	8,0	;volatile
  1414                           
  1415                           ;auto_washing_machine.c: 275: ht_is_on = 0b0;
  1416  0647  1030               	bcf	_ht_is_on/(0+8),_ht_is_on& (0+7)
  1417                           
  1418                           ;auto_washing_machine.c: 276: ht_on = 0b0;
  1419  0648  11FD               	bcf	_ht_on/(0+8),_ht_on& (0+7)	;volatile
  1420                           
  1421                           ;auto_washing_machine.c: 278: no_spin = 0b0;
  1422  0649  10B0               	bcf	_no_spin/(0+8),_no_spin& (0+7)	;volatile
  1423                           
  1424                           ;auto_washing_machine.c: 279: half_load = 0b0;
  1425  064A  117D               	bcf	_half_load/(0+8),_half_load& (0+7)	;volatile
  1426                           
  1427                           ;auto_washing_machine.c: 281: RD2 = !0b1;
  1428  064B  1108               	bcf	8,2	;volatile
  1429                           
  1430                           ;auto_washing_machine.c: 285: (PORTC = ((unsigned char)(unsigned char)A << 4) | (PORTC &
      +                           0x0F));
  1431  064C  0807               	movf	7,w	;volatile
  1432  064D  390F               	andlw	15
  1433  064E  0087               	movwf	7	;volatile
  1434                           
  1435                           ;auto_washing_machine.c: 287: TMR1L = 0x00;
  1436  064F  018E               	clrf	14	;volatile
  1437                           
  1438                           ;auto_washing_machine.c: 288: TMR1H = 0x00;
  1439  0650  018F               	clrf	15	;volatile
  1440                           
  1441                           ;auto_washing_machine.c: 289: TMR1ON = 0b1;
  1442  0651  1410               	bsf	16,0	;volatile
  1443                           
  1444                           ;auto_washing_machine.c: 290: TMR2 = 0x00;
  1445  0652  0191               	clrf	17	;volatile
  1446                           
  1447                           ;auto_washing_machine.c: 291: TMR2ON = 0b0;
  1448  0653  1112               	bcf	18,2	;volatile
  1449  0654  0008               	return
  1450  0655                     __end_of_init:	
  1451                           
  1452                           	psect	text10
  1453  04CE                     __ptext10:	
  1454 ;; *************** function _state_g *****************
  1455 ;; Defined at:
  1456 ;;		line 546 in file "auto_washing_machine.c"
  1457 ;; Parameters:    Size  Location     Type
  1458 ;;		None
  1459 ;; Auto vars:     Size  Location     Type
  1460 ;;		None
  1461 ;; Return value:  Size  Location     Type
  1462 ;;                  1    wreg      void 
  1463 ;; Registers used:
  1464 ;;		wreg, status,2, status,0, pclath, cstack
  1465 ;; Tracked objects:
  1466 ;;		On entry : 0/0
  1467 ;;		On exit  : 0/0
  1468 ;;		Unchanged: 0/0
  1469 ;; Data sizes:     COMMON   BANK0   BANK1   BANK3   BANK2
  1470 ;;      Params:         0       0       0       0       0
  1471 ;;      Locals:         0       0       0       0       0
  1472 ;;      Temps:          0       1       0       0       0
  1473 ;;      Totals:         0       1       0       0       0
  1474 ;;Total ram usage:        1 bytes
  1475 ;; Hardware stack levels used:    1
  1476 ;; Hardware stack levels required when called:    5
  1477 ;; This function calls:
  1478 ;;		_discharge
  1479 ;; This function is called by:
  1480 ;;		_main
  1481 ;; This function uses a non-reentrant model
  1482 ;;
  1483                           
  1484                           
  1485                           ;psect for function _state_g
  1486  04CE                     _state_g:	
  1487                           
  1488                           ;auto_washing_machine.c: 548: (PORTC = ((unsigned char)(unsigned char)G << 4) | (PORTC &
      +                           0x0F));
  1489                           
  1490                           ;incstack = 0
  1491                           ; Regs used in _state_g: [wreg+status,2+status,0+pclath+cstack]
  1492  04CE  1283               	bcf	3,5	;RP0=0, select bank0
  1493  04CF  1303               	bcf	3,6	;RP1=0, select bank0
  1494  04D0  0807               	movf	7,w	;volatile
  1495  04D1  390F               	andlw	15
  1496  04D2  3850               	iorlw	80
  1497  04D3  0087               	movwf	7	;volatile
  1498                           
  1499                           ;auto_washing_machine.c: 549: ht_on = 0b0;
  1500  04D4  11FD               	bcf	_ht_on/(0+8),_ht_on& (0+7)	;volatile
  1501                           
  1502                           ;auto_washing_machine.c: 551: mot_rot = 0b1;
  1503  04D5  177D               	bsf	_mot_rot/(0+8),_mot_rot& (0+7)	;volatile
  1504                           
  1505                           ;auto_washing_machine.c: 552: discharge();
  1506  04D6  120A  118A  26E5  120A  118A  	fcall	_discharge
  1507                           
  1508                           ;auto_washing_machine.c: 554: if(0b0 == no_spin)
  1509  04DB  1283               	bcf	3,5	;RP0=0, select bank0
  1510  04DC  1303               	bcf	3,6	;RP1=0, select bank0
  1511  04DD  18B0               	btfsc	_no_spin/(0+8),_no_spin& (0+7)	;volatile
  1512  04DE  2CE9               	goto	l2967
  1513                           
  1514                           ;auto_washing_machine.c: 555: {
  1515                           ;auto_washing_machine.c: 556: mot_high = 0b1;
  1516  04DF  167D               	bsf	_mot_high/(0+8),_mot_high& (0+7)	;volatile
  1517                           
  1518                           ;auto_washing_machine.c: 557: rot_time = 0;
  1519  04E0  01A9               	clrf	_rot_time	;volatile
  1520  04E1                     l2965:	
  1521                           ;auto_washing_machine.c: 558: while(rot_time < 1u)
  1522                           
  1523  04E1  1283               	bcf	3,5	;RP0=0, select bank0
  1524  04E2  1303               	bcf	3,6	;RP1=0, select bank0
  1525  04E3  0829               	movf	_rot_time,w	;volatile
  1526  04E4  1D03               	btfss	3,2
  1527  04E5  2CE8               	goto	l362
  1528  04E6  0064               	clrwdt	;# 
  1529  04E7  2CE1               	goto	l2965
  1530  04E8                     l362:	
  1531                           
  1532                           ;auto_washing_machine.c: 560: mot_high = 0b0;
  1533  04E8  127D               	bcf	_mot_high/(0+8),_mot_high& (0+7)	;volatile
  1534  04E9                     l2967:	
  1535                           
  1536                           ;auto_washing_machine.c: 561: }
  1537                           ;auto_washing_machine.c: 563: sol_op_time = 0;
  1538  04E9  01AC               	clrf	_sol_op_time	;volatile
  1539                           
  1540                           ;auto_washing_machine.c: 564: sol3_on = 0b1;
  1541  04EA  1630               	bsf	_sol3_on/(0+8),_sol3_on& (0+7)	;volatile
  1542                           
  1543                           ;auto_washing_machine.c: 565: if(0b1 == half_load)
  1544  04EB  197D               	btfsc	_half_load/(0+8),_half_load& (0+7)	;volatile
  1545  04EC  2CEF               	goto	l364
  1546  04ED  2CF5               	goto	l368
  1547  04EE                     l365:	
  1548                           ;auto_washing_machine.c: 566: {
  1549                           ;auto_washing_machine.c: 567: while(0b0 != RB2)
  1550                           
  1551  04EE  0064               	clrwdt	;# 
  1552  04EF                     l364:	
  1553  04EF  1283               	bcf	3,5	;RP0=0, select bank0
  1554  04F0  1303               	bcf	3,6	;RP1=0, select bank0
  1555  04F1  1D06               	btfss	6,2	;volatile
  1556  04F2  2CF9               	goto	l367
  1557  04F3  2CEE               	goto	l365
  1558  04F4                     l369:	
  1559                           ;auto_washing_machine.c: 570: else
  1560                           ;auto_washing_machine.c: 571: {
  1561                           ;auto_washing_machine.c: 572: while(0b0 != RB1)
  1562                           
  1563                           ;auto_washing_machine.c: 569: }
  1564                           
  1565  04F4  0064               	clrwdt	;# 
  1566  04F5                     l368:	
  1567  04F5  1283               	bcf	3,5	;RP0=0, select bank0
  1568  04F6  1303               	bcf	3,6	;RP1=0, select bank0
  1569  04F7  1886               	btfsc	6,1	;volatile
  1570  04F8  2CF4               	goto	l369
  1571  04F9                     l367:	
  1572                           
  1573                           ;auto_washing_machine.c: 574: }
  1574                           ;auto_washing_machine.c: 575: sol3_on = 0b0;
  1575  04F9  1230               	bcf	_sol3_on/(0+8),_sol3_on& (0+7)	;volatile
  1576                           
  1577                           ;auto_washing_machine.c: 576: rot_time = 0;
  1578  04FA  01A9               	clrf	_rot_time	;volatile
  1579  04FB                     l2977:	
  1580                           ;auto_washing_machine.c: 577: while(rot_time < 1u)
  1581                           
  1582  04FB  1283               	bcf	3,5	;RP0=0, select bank0
  1583  04FC  1303               	bcf	3,6	;RP1=0, select bank0
  1584  04FD  0829               	movf	_rot_time,w	;volatile
  1585  04FE  1D03               	btfss	3,2
  1586  04FF  2D02               	goto	l2979
  1587  0500  0064               	clrwdt	;# 
  1588  0501  2CFB               	goto	l2977
  1589  0502                     l2979:	
  1590                           
  1591                           ;auto_washing_machine.c: 580: discharge();
  1592  0502  120A  118A  26E5  120A  118A  	fcall	_discharge
  1593                           
  1594                           ;auto_washing_machine.c: 582: (GIE = 0);
  1595  0507  138B               	bcf	11,7	;volatile
  1596                           
  1597                           ;auto_washing_machine.c: 583: prev_state = G;
  1598  0508  3005               	movlw	5
  1599  0509  1283               	bcf	3,5	;RP0=0, select bank0
  1600  050A  1303               	bcf	3,6	;RP1=0, select bank0
  1601  050B  00B4               	movwf	??_state_g
  1602  050C  0834               	movf	??_state_g,w
  1603  050D  00B2               	movwf	_prev_state
  1604                           
  1605                           ;auto_washing_machine.c: 584: if(G == skip_beg)
  1606  050E  3005               	movlw	5
  1607  050F  0633               	xorwf	_skip_beg,w
  1608  0510  1D03               	btfss	3,2
  1609  0511  2D14               	goto	l2989
  1610                           
  1611                           ;auto_washing_machine.c: 585: cur_state = skip_end;
  1612  0512  082B               	movf	_skip_end,w
  1613  0513  2D15               	goto	L1
  1614  0514                     l2989:	
  1615                           
  1616                           ;auto_washing_machine.c: 586: else
  1617                           ;auto_washing_machine.c: 587: cur_state = H;
  1618  0514  3006               	movlw	6
  1619  0515                     L1:	
  1620  0515  00B4               	movwf	??_state_g
  1621  0516  0834               	movf	??_state_g,w
  1622  0517  00B1               	movwf	_cur_state
  1623                           
  1624                           ;auto_washing_machine.c: 588: (GIE = 1);
  1625  0518  178B               	bsf	11,7	;volatile
  1626  0519  0008               	return
  1627  051A                     __end_of_state_g:	
  1628                           
  1629                           	psect	text11
  1630  0385                     __ptext11:	
  1631 ;; *************** function _state_f *****************
  1632 ;; Defined at:
  1633 ;;		line 468 in file "auto_washing_machine.c"
  1634 ;; Parameters:    Size  Location     Type
  1635 ;;		None
  1636 ;; Auto vars:     Size  Location     Type
  1637 ;;		None
  1638 ;; Return value:  Size  Location     Type
  1639 ;;                  1    wreg      void 
  1640 ;; Registers used:
  1641 ;;		wreg, status,2, status,0, pclath, cstack
  1642 ;; Tracked objects:
  1643 ;;		On entry : 0/0
  1644 ;;		On exit  : 0/0
  1645 ;;		Unchanged: 0/0
  1646 ;; Data sizes:     COMMON   BANK0   BANK1   BANK3   BANK2
  1647 ;;      Params:         0       0       0       0       0
  1648 ;;      Locals:         0       0       0       0       0
  1649 ;;      Temps:          0       1       0       0       0
  1650 ;;      Totals:         0       1       0       0       0
  1651 ;;Total ram usage:        1 bytes
  1652 ;; Hardware stack levels used:    1
  1653 ;; Hardware stack levels required when called:    5
  1654 ;; This function calls:
  1655 ;;		_discharge
  1656 ;; This function is called by:
  1657 ;;		_main
  1658 ;; This function uses a non-reentrant model
  1659 ;;
  1660                           
  1661                           
  1662                           ;psect for function _state_f
  1663  0385                     _state_f:	
  1664                           
  1665                           ;auto_washing_machine.c: 470: (PORTC = ((unsigned char)(unsigned char)F << 4) | (PORTC &
      +                           0x0F));
  1666                           
  1667                           ;incstack = 0
  1668                           ; Regs used in _state_f: [wreg+status,2+status,0+pclath+cstack]
  1669  0385  1283               	bcf	3,5	;RP0=0, select bank0
  1670  0386  1303               	bcf	3,6	;RP1=0, select bank0
  1671  0387  0807               	movf	7,w	;volatile
  1672  0388  390F               	andlw	15
  1673  0389  3840               	iorlw	64
  1674  038A  0087               	movwf	7	;volatile
  1675                           
  1676                           ;auto_washing_machine.c: 471: ht_on = 0b0;
  1677  038B  11FD               	bcf	_ht_on/(0+8),_ht_on& (0+7)	;volatile
  1678                           
  1679                           ;auto_washing_machine.c: 472: mot_rot = 0b1;
  1680  038C  177D               	bsf	_mot_rot/(0+8),_mot_rot& (0+7)	;volatile
  1681                           
  1682                           ;auto_washing_machine.c: 474: discharge();
  1683  038D  120A  118A  26E5  120A  118A  	fcall	_discharge
  1684                           
  1685                           ;auto_washing_machine.c: 477: sol_op_time = 0;
  1686  0392  1283               	bcf	3,5	;RP0=0, select bank0
  1687  0393  1303               	bcf	3,6	;RP1=0, select bank0
  1688  0394  01AC               	clrf	_sol_op_time	;volatile
  1689                           
  1690                           ;auto_washing_machine.c: 478: sol2_on = 0b1;
  1691  0395  15B0               	bsf	_sol2_on/(0+8),_sol2_on& (0+7)	;volatile
  1692                           
  1693                           ;auto_washing_machine.c: 480: if(0b1 == half_load)
  1694  0396  197D               	btfsc	_half_load/(0+8),_half_load& (0+7)	;volatile
  1695  0397  2B9A               	goto	l322
  1696  0398  2BA0               	goto	l326
  1697  0399                     l323:	
  1698                           ;auto_washing_machine.c: 481: {
  1699                           ;auto_washing_machine.c: 482: while(0b0 != RB2)
  1700                           
  1701  0399  0064               	clrwdt	;# 
  1702  039A                     l322:	
  1703  039A  1283               	bcf	3,5	;RP0=0, select bank0
  1704  039B  1303               	bcf	3,6	;RP1=0, select bank0
  1705  039C  1D06               	btfss	6,2	;volatile
  1706  039D  2BA4               	goto	l325
  1707  039E  2B99               	goto	l323
  1708  039F                     l327:	
  1709                           ;auto_washing_machine.c: 485: else
  1710                           ;auto_washing_machine.c: 486: {
  1711                           ;auto_washing_machine.c: 487: while(0b0 != RB1)
  1712                           
  1713                           ;auto_washing_machine.c: 484: }
  1714                           
  1715  039F  0064               	clrwdt	;# 
  1716  03A0                     l326:	
  1717  03A0  1283               	bcf	3,5	;RP0=0, select bank0
  1718  03A1  1303               	bcf	3,6	;RP1=0, select bank0
  1719  03A2  1886               	btfsc	6,1	;volatile
  1720  03A3  2B9F               	goto	l327
  1721  03A4                     l325:	
  1722                           
  1723                           ;auto_washing_machine.c: 489: }
  1724                           ;auto_washing_machine.c: 490: sol2_on = 0b0;
  1725  03A4  11B0               	bcf	_sol2_on/(0+8),_sol2_on& (0+7)	;volatile
  1726                           
  1727                           ;auto_washing_machine.c: 492: rot_time = 0;
  1728  03A5  01A9               	clrf	_rot_time	;volatile
  1729  03A6                     l2907:	
  1730                           ;auto_washing_machine.c: 493: while(rot_time < 1)
  1731                           
  1732  03A6  1283               	bcf	3,5	;RP0=0, select bank0
  1733  03A7  1303               	bcf	3,6	;RP1=0, select bank0
  1734  03A8  0829               	movf	_rot_time,w	;volatile
  1735  03A9  1D03               	btfss	3,2
  1736  03AA  2BAD               	goto	l2909
  1737  03AB  0064               	clrwdt	;# 
  1738  03AC  2BA6               	goto	l2907
  1739  03AD                     l2909:	
  1740                           
  1741                           ;auto_washing_machine.c: 496: discharge();
  1742  03AD  120A  118A  26E5  120A  118A  	fcall	_discharge
  1743                           
  1744                           ;auto_washing_machine.c: 497: sol_op_time = 0;
  1745  03B2  1283               	bcf	3,5	;RP0=0, select bank0
  1746  03B3  1303               	bcf	3,6	;RP1=0, select bank0
  1747  03B4  01AC               	clrf	_sol_op_time	;volatile
  1748                           
  1749                           ;auto_washing_machine.c: 498: sol2_on = 0b1;
  1750  03B5  15B0               	bsf	_sol2_on/(0+8),_sol2_on& (0+7)	;volatile
  1751                           
  1752                           ;auto_washing_machine.c: 499: if(0b1 == half_load)
  1753  03B6  197D               	btfsc	_half_load/(0+8),_half_load& (0+7)	;volatile
  1754  03B7  2BBA               	goto	l333
  1755  03B8  2BC0               	goto	l337
  1756  03B9                     l334:	
  1757                           ;auto_washing_machine.c: 500: {
  1758                           ;auto_washing_machine.c: 501: while(0b0 != RB2)
  1759                           
  1760  03B9  0064               	clrwdt	;# 
  1761  03BA                     l333:	
  1762  03BA  1283               	bcf	3,5	;RP0=0, select bank0
  1763  03BB  1303               	bcf	3,6	;RP1=0, select bank0
  1764  03BC  1D06               	btfss	6,2	;volatile
  1765  03BD  2BC4               	goto	l336
  1766  03BE  2BB9               	goto	l334
  1767  03BF                     l338:	
  1768                           ;auto_washing_machine.c: 504: else
  1769                           ;auto_washing_machine.c: 505: {
  1770                           ;auto_washing_machine.c: 506: while(0b0 != RB1)
  1771                           
  1772                           ;auto_washing_machine.c: 503: }
  1773                           
  1774  03BF  0064               	clrwdt	;# 
  1775  03C0                     l337:	
  1776  03C0  1283               	bcf	3,5	;RP0=0, select bank0
  1777  03C1  1303               	bcf	3,6	;RP1=0, select bank0
  1778  03C2  1886               	btfsc	6,1	;volatile
  1779  03C3  2BBF               	goto	l338
  1780  03C4                     l336:	
  1781                           
  1782                           ;auto_washing_machine.c: 508: }
  1783                           ;auto_washing_machine.c: 509: sol2_on = 0b0;
  1784  03C4  11B0               	bcf	_sol2_on/(0+8),_sol2_on& (0+7)	;volatile
  1785                           
  1786                           ;auto_washing_machine.c: 510: rot_time = 0;
  1787  03C5  01A9               	clrf	_rot_time	;volatile
  1788  03C6                     l2921:	
  1789                           ;auto_washing_machine.c: 511: while(rot_time < 1)
  1790                           
  1791  03C6  1283               	bcf	3,5	;RP0=0, select bank0
  1792  03C7  1303               	bcf	3,6	;RP1=0, select bank0
  1793  03C8  0829               	movf	_rot_time,w	;volatile
  1794  03C9  1D03               	btfss	3,2
  1795  03CA  2BCD               	goto	l2923
  1796  03CB  0064               	clrwdt	;# 
  1797  03CC  2BC6               	goto	l2921
  1798  03CD                     l2923:	
  1799                           
  1800                           ;auto_washing_machine.c: 514: discharge();
  1801  03CD  120A  118A  26E5  120A  118A  	fcall	_discharge
  1802                           
  1803                           ;auto_washing_machine.c: 515: sol_op_time = 0;
  1804  03D2  1283               	bcf	3,5	;RP0=0, select bank0
  1805  03D3  1303               	bcf	3,6	;RP1=0, select bank0
  1806  03D4  01AC               	clrf	_sol_op_time	;volatile
  1807                           
  1808                           ;auto_washing_machine.c: 516: sol2_on = 0b1;
  1809  03D5  15B0               	bsf	_sol2_on/(0+8),_sol2_on& (0+7)	;volatile
  1810                           
  1811                           ;auto_washing_machine.c: 518: if(0b1 == half_load)
  1812  03D6  197D               	btfsc	_half_load/(0+8),_half_load& (0+7)	;volatile
  1813  03D7  2BDA               	goto	l344
  1814  03D8  2BE0               	goto	l348
  1815  03D9                     l345:	
  1816                           ;auto_washing_machine.c: 519: {
  1817                           ;auto_washing_machine.c: 520: while(0b0 != RB2)
  1818                           
  1819  03D9  0064               	clrwdt	;# 
  1820  03DA                     l344:	
  1821  03DA  1283               	bcf	3,5	;RP0=0, select bank0
  1822  03DB  1303               	bcf	3,6	;RP1=0, select bank0
  1823  03DC  1D06               	btfss	6,2	;volatile
  1824  03DD  2BE4               	goto	l347
  1825  03DE  2BD9               	goto	l345
  1826  03DF                     l349:	
  1827                           ;auto_washing_machine.c: 523: else
  1828                           ;auto_washing_machine.c: 524: {
  1829                           ;auto_washing_machine.c: 525: while(0b0 != RB1)
  1830                           
  1831                           ;auto_washing_machine.c: 522: }
  1832                           
  1833  03DF  0064               	clrwdt	;# 
  1834  03E0                     l348:	
  1835  03E0  1283               	bcf	3,5	;RP0=0, select bank0
  1836  03E1  1303               	bcf	3,6	;RP1=0, select bank0
  1837  03E2  1886               	btfsc	6,1	;volatile
  1838  03E3  2BDF               	goto	l349
  1839  03E4                     l347:	
  1840                           
  1841                           ;auto_washing_machine.c: 527: }
  1842                           ;auto_washing_machine.c: 528: sol2_on = 0b0;
  1843  03E4  11B0               	bcf	_sol2_on/(0+8),_sol2_on& (0+7)	;volatile
  1844                           
  1845                           ;auto_washing_machine.c: 530: rot_time = 0;
  1846  03E5  01A9               	clrf	_rot_time	;volatile
  1847  03E6                     l2935:	
  1848                           ;auto_washing_machine.c: 531: while(rot_time < 1u)
  1849                           
  1850  03E6  1283               	bcf	3,5	;RP0=0, select bank0
  1851  03E7  1303               	bcf	3,6	;RP1=0, select bank0
  1852  03E8  0829               	movf	_rot_time,w	;volatile
  1853  03E9  1D03               	btfss	3,2
  1854  03EA  2BED               	goto	l2937
  1855  03EB  0064               	clrwdt	;# 
  1856  03EC  2BE6               	goto	l2935
  1857  03ED                     l2937:	
  1858                           
  1859                           ;auto_washing_machine.c: 534: discharge();
  1860  03ED  120A  118A  26E5  120A  118A  	fcall	_discharge
  1861                           
  1862                           ;auto_washing_machine.c: 536: (GIE = 0);
  1863  03F2  138B               	bcf	11,7	;volatile
  1864                           
  1865                           ;auto_washing_machine.c: 537: prev_state = F;
  1866  03F3  3004               	movlw	4
  1867  03F4  1283               	bcf	3,5	;RP0=0, select bank0
  1868  03F5  1303               	bcf	3,6	;RP1=0, select bank0
  1869  03F6  00B4               	movwf	??_state_f
  1870  03F7  0834               	movf	??_state_f,w
  1871  03F8  00B2               	movwf	_prev_state
  1872                           
  1873                           ;auto_washing_machine.c: 538: if(F == skip_beg)
  1874  03F9  3004               	movlw	4
  1875  03FA  0633               	xorwf	_skip_beg,w
  1876  03FB  1D03               	btfss	3,2
  1877  03FC  2BFF               	goto	l2947
  1878                           
  1879                           ;auto_washing_machine.c: 539: cur_state = skip_end;
  1880  03FD  082B               	movf	_skip_end,w
  1881  03FE  2C00               	goto	L2
  1882  03FF                     l2947:	
  1883                           
  1884                           ;auto_washing_machine.c: 540: else
  1885                           ;auto_washing_machine.c: 541: cur_state = G;
  1886  03FF  3005               	movlw	5
  1887  0400                     L2:	
  1888  0400  00B4               	movwf	??_state_f
  1889  0401  0834               	movf	??_state_f,w
  1890  0402  00B1               	movwf	_cur_state
  1891                           
  1892                           ;auto_washing_machine.c: 542: (GIE = 1);
  1893  0403  178B               	bsf	11,7	;volatile
  1894  0404  0008               	return
  1895  0405                     __end_of_state_f:	
  1896                           
  1897                           	psect	text12
  1898  051A                     __ptext12:	
  1899 ;; *************** function _state_d *****************
  1900 ;; Defined at:
  1901 ;;		line 422 in file "auto_washing_machine.c"
  1902 ;; Parameters:    Size  Location     Type
  1903 ;;		None
  1904 ;; Auto vars:     Size  Location     Type
  1905 ;;		None
  1906 ;; Return value:  Size  Location     Type
  1907 ;;                  1    wreg      void 
  1908 ;; Registers used:
  1909 ;;		wreg, status,2, status,0, pclath, cstack
  1910 ;; Tracked objects:
  1911 ;;		On entry : 0/0
  1912 ;;		On exit  : 0/0
  1913 ;;		Unchanged: 0/0
  1914 ;; Data sizes:     COMMON   BANK0   BANK1   BANK3   BANK2
  1915 ;;      Params:         0       0       0       0       0
  1916 ;;      Locals:         0       0       0       0       0
  1917 ;;      Temps:          0       1       0       0       0
  1918 ;;      Totals:         0       1       0       0       0
  1919 ;;Total ram usage:        1 bytes
  1920 ;; Hardware stack levels used:    1
  1921 ;; Hardware stack levels required when called:    5
  1922 ;; This function calls:
  1923 ;;		_discharge
  1924 ;; This function is called by:
  1925 ;;		_main
  1926 ;; This function uses a non-reentrant model
  1927 ;;
  1928                           
  1929                           
  1930                           ;psect for function _state_d
  1931  051A                     _state_d:	
  1932                           
  1933                           ;auto_washing_machine.c: 424: (PORTC = ((unsigned char)(unsigned char)D << 4) | (PORTC &
      +                           0x0F));
  1934                           
  1935                           ;incstack = 0
  1936                           ; Regs used in _state_d: [wreg+status,2+status,0+pclath+cstack]
  1937  051A  1283               	bcf	3,5	;RP0=0, select bank0
  1938  051B  1303               	bcf	3,6	;RP1=0, select bank0
  1939  051C  0807               	movf	7,w	;volatile
  1940  051D  390F               	andlw	15
  1941  051E  3830               	iorlw	48
  1942  051F  0087               	movwf	7	;volatile
  1943                           
  1944                           ;auto_washing_machine.c: 427: if(B != prev_state && C != prev_state)
  1945  0520  0332               	decf	_prev_state,w
  1946  0521  1903               	btfsc	3,2
  1947  0522  2D2D               	goto	l2861
  1948  0523  3002               	movlw	2
  1949  0524  0632               	xorwf	_prev_state,w
  1950  0525  1903               	btfsc	3,2
  1951  0526  2D2D               	goto	l2861
  1952                           
  1953                           ;auto_washing_machine.c: 428: {
  1954                           ;auto_washing_machine.c: 429: mot_rot = 0b0;
  1955  0527  137D               	bcf	_mot_rot/(0+8),_mot_rot& (0+7)	;volatile
  1956                           
  1957                           ;auto_washing_machine.c: 430: discharge();
  1958  0528  120A  118A  26E5  120A  118A  	fcall	_discharge
  1959  052D                     l2861:	
  1960                           
  1961                           ;auto_washing_machine.c: 431: }
  1962                           ;auto_washing_machine.c: 434: sol_op_time = 0;
  1963  052D  1283               	bcf	3,5	;RP0=0, select bank0
  1964  052E  1303               	bcf	3,6	;RP1=0, select bank0
  1965  052F  01AC               	clrf	_sol_op_time	;volatile
  1966                           
  1967                           ;auto_washing_machine.c: 435: sol2_on = 0b1;
  1968  0530  15B0               	bsf	_sol2_on/(0+8),_sol2_on& (0+7)	;volatile
  1969                           
  1970                           ;auto_washing_machine.c: 436: ht_on = 0b1;
  1971  0531  15FD               	bsf	_ht_on/(0+8),_ht_on& (0+7)	;volatile
  1972                           
  1973                           ;auto_washing_machine.c: 438: if(0b1 == half_load)
  1974  0532  197D               	btfsc	_half_load/(0+8),_half_load& (0+7)	;volatile
  1975  0533  2D36               	goto	l306
  1976  0534  2D3C               	goto	l310
  1977  0535                     l307:	
  1978                           ;auto_washing_machine.c: 439: {
  1979                           ;auto_washing_machine.c: 440: while(0b0 != RB2)
  1980                           
  1981  0535  0064               	clrwdt	;# 
  1982  0536                     l306:	
  1983  0536  1283               	bcf	3,5	;RP0=0, select bank0
  1984  0537  1303               	bcf	3,6	;RP1=0, select bank0
  1985  0538  1D06               	btfss	6,2	;volatile
  1986  0539  2D40               	goto	l309
  1987  053A  2D35               	goto	l307
  1988  053B                     l311:	
  1989                           ;auto_washing_machine.c: 443: else
  1990                           ;auto_washing_machine.c: 444: {
  1991                           ;auto_washing_machine.c: 445: while(0b0 != RB1)
  1992                           
  1993                           ;auto_washing_machine.c: 442: }
  1994                           
  1995  053B  0064               	clrwdt	;# 
  1996  053C                     l310:	
  1997  053C  1283               	bcf	3,5	;RP0=0, select bank0
  1998  053D  1303               	bcf	3,6	;RP1=0, select bank0
  1999  053E  1886               	btfsc	6,1	;volatile
  2000  053F  2D3B               	goto	l311
  2001  0540                     l309:	
  2002                           
  2003                           ;auto_washing_machine.c: 447: }
  2004                           ;auto_washing_machine.c: 448: sol2_on = 0b0;
  2005  0540  11B0               	bcf	_sol2_on/(0+8),_sol2_on& (0+7)	;volatile
  2006                           
  2007                           ;auto_washing_machine.c: 450: mot_rot = 0b1;
  2008  0541  177D               	bsf	_mot_rot/(0+8),_mot_rot& (0+7)	;volatile
  2009                           
  2010                           ;auto_washing_machine.c: 451: rot_time = 0;
  2011  0542  01A9               	clrf	_rot_time	;volatile
  2012  0543                     l2873:	
  2013                           ;auto_washing_machine.c: 452: while(rot_time < 1u)
  2014                           
  2015  0543  1283               	bcf	3,5	;RP0=0, select bank0
  2016  0544  1303               	bcf	3,6	;RP1=0, select bank0
  2017  0545  0829               	movf	_rot_time,w	;volatile
  2018  0546  1D03               	btfss	3,2
  2019  0547  2D4A               	goto	l315
  2020  0548  0064               	clrwdt	;# 
  2021  0549  2D43               	goto	l2873
  2022  054A                     l315:	
  2023                           
  2024                           ;auto_washing_machine.c: 455: mot_rot = 0b0;
  2025  054A  137D               	bcf	_mot_rot/(0+8),_mot_rot& (0+7)	;volatile
  2026                           
  2027                           ;auto_washing_machine.c: 456: discharge();
  2028  054B  120A  118A  26E5  120A  118A  	fcall	_discharge
  2029                           
  2030                           ;auto_washing_machine.c: 458: (GIE = 0);
  2031  0550  138B               	bcf	11,7	;volatile
  2032                           
  2033                           ;auto_washing_machine.c: 459: prev_state = D;
  2034  0551  3003               	movlw	3
  2035  0552  1283               	bcf	3,5	;RP0=0, select bank0
  2036  0553  1303               	bcf	3,6	;RP1=0, select bank0
  2037  0554  00B4               	movwf	??_state_d
  2038  0555  0834               	movf	??_state_d,w
  2039  0556  00B2               	movwf	_prev_state
  2040                           
  2041                           ;auto_washing_machine.c: 460: if(D == skip_beg)
  2042  0557  3003               	movlw	3
  2043  0558  0633               	xorwf	_skip_beg,w
  2044  0559  1D03               	btfss	3,2
  2045  055A  2D5D               	goto	l2885
  2046                           
  2047                           ;auto_washing_machine.c: 461: cur_state = skip_end;
  2048  055B  082B               	movf	_skip_end,w
  2049  055C  2D5E               	goto	L3
  2050  055D                     l2885:	
  2051                           
  2052                           ;auto_washing_machine.c: 462: else
  2053                           ;auto_washing_machine.c: 463: cur_state = F;
  2054  055D  3004               	movlw	4
  2055  055E                     L3:	
  2056  055E  00B4               	movwf	??_state_d
  2057  055F  0834               	movf	??_state_d,w
  2058  0560  00B1               	movwf	_cur_state
  2059                           
  2060                           ;auto_washing_machine.c: 464: (GIE = 1);
  2061  0561  178B               	bsf	11,7	;volatile
  2062  0562  0008               	return
  2063  0563                     __end_of_state_d:	
  2064                           
  2065                           	psect	text13
  2066  0563                     __ptext13:	
  2067 ;; *************** function _state_c *****************
  2068 ;; Defined at:
  2069 ;;		line 379 in file "auto_washing_machine.c"
  2070 ;; Parameters:    Size  Location     Type
  2071 ;;		None
  2072 ;; Auto vars:     Size  Location     Type
  2073 ;;		None
  2074 ;; Return value:  Size  Location     Type
  2075 ;;                  1    wreg      void 
  2076 ;; Registers used:
  2077 ;;		wreg, status,2, status,0, pclath, cstack
  2078 ;; Tracked objects:
  2079 ;;		On entry : 0/0
  2080 ;;		On exit  : 0/0
  2081 ;;		Unchanged: 0/0
  2082 ;; Data sizes:     COMMON   BANK0   BANK1   BANK3   BANK2
  2083 ;;      Params:         0       0       0       0       0
  2084 ;;      Locals:         0       0       0       0       0
  2085 ;;      Temps:          0       1       0       0       0
  2086 ;;      Totals:         0       1       0       0       0
  2087 ;;Total ram usage:        1 bytes
  2088 ;; Hardware stack levels used:    1
  2089 ;; Hardware stack levels required when called:    5
  2090 ;; This function calls:
  2091 ;;		_discharge
  2092 ;; This function is called by:
  2093 ;;		_main
  2094 ;; This function uses a non-reentrant model
  2095 ;;
  2096                           
  2097                           
  2098                           ;psect for function _state_c
  2099  0563                     _state_c:	
  2100                           
  2101                           ;auto_washing_machine.c: 381: (PORTC = ((unsigned char)(unsigned char)C << 4) | (PORTC &
      +                           0x0F));
  2102                           
  2103                           ;incstack = 0
  2104                           ; Regs used in _state_c: [wreg+status,2+status,0+pclath+cstack]
  2105  0563  1283               	bcf	3,5	;RP0=0, select bank0
  2106  0564  1303               	bcf	3,6	;RP1=0, select bank0
  2107  0565  0807               	movf	7,w	;volatile
  2108  0566  390F               	andlw	15
  2109  0567  3820               	iorlw	32
  2110  0568  0087               	movwf	7	;volatile
  2111                           
  2112                           ;auto_washing_machine.c: 384: if(B != prev_state && D != prev_state)
  2113  0569  0332               	decf	_prev_state,w
  2114  056A  1903               	btfsc	3,2
  2115  056B  2D76               	goto	l2825
  2116  056C  3003               	movlw	3
  2117  056D  0632               	xorwf	_prev_state,w
  2118  056E  1903               	btfsc	3,2
  2119  056F  2D76               	goto	l2825
  2120                           
  2121                           ;auto_washing_machine.c: 385: {
  2122                           ;auto_washing_machine.c: 386: mot_rot = 0b0;
  2123  0570  137D               	bcf	_mot_rot/(0+8),_mot_rot& (0+7)	;volatile
  2124                           
  2125                           ;auto_washing_machine.c: 387: discharge();
  2126  0571  120A  118A  26E5  120A  118A  	fcall	_discharge
  2127  0576                     l2825:	
  2128                           
  2129                           ;auto_washing_machine.c: 388: }
  2130                           ;auto_washing_machine.c: 391: sol_op_time = 0;
  2131  0576  1283               	bcf	3,5	;RP0=0, select bank0
  2132  0577  1303               	bcf	3,6	;RP1=0, select bank0
  2133  0578  01AC               	clrf	_sol_op_time	;volatile
  2134                           
  2135                           ;auto_washing_machine.c: 392: sol2_on = 0b1;
  2136  0579  15B0               	bsf	_sol2_on/(0+8),_sol2_on& (0+7)	;volatile
  2137                           
  2138                           ;auto_washing_machine.c: 393: ht_on = 0b1;
  2139  057A  15FD               	bsf	_ht_on/(0+8),_ht_on& (0+7)	;volatile
  2140                           
  2141                           ;auto_washing_machine.c: 395: if(0b1 == half_load)
  2142  057B  197D               	btfsc	_half_load/(0+8),_half_load& (0+7)	;volatile
  2143  057C  2D7F               	goto	l289
  2144  057D  2D85               	goto	l293
  2145  057E                     l290:	
  2146                           ;auto_washing_machine.c: 396: {
  2147                           ;auto_washing_machine.c: 397: while(0b0 != RB2)
  2148                           
  2149  057E  0064               	clrwdt	;# 
  2150  057F                     l289:	
  2151  057F  1283               	bcf	3,5	;RP0=0, select bank0
  2152  0580  1303               	bcf	3,6	;RP1=0, select bank0
  2153  0581  1D06               	btfss	6,2	;volatile
  2154  0582  2D89               	goto	l292
  2155  0583  2D7E               	goto	l290
  2156  0584                     l294:	
  2157                           ;auto_washing_machine.c: 400: else
  2158                           ;auto_washing_machine.c: 401: {
  2159                           ;auto_washing_machine.c: 402: while(0b0 != RB1)
  2160                           
  2161                           ;auto_washing_machine.c: 399: }
  2162                           
  2163  0584  0064               	clrwdt	;# 
  2164  0585                     l293:	
  2165  0585  1283               	bcf	3,5	;RP0=0, select bank0
  2166  0586  1303               	bcf	3,6	;RP1=0, select bank0
  2167  0587  1886               	btfsc	6,1	;volatile
  2168  0588  2D84               	goto	l294
  2169  0589                     l292:	
  2170                           
  2171                           ;auto_washing_machine.c: 404: }
  2172                           ;auto_washing_machine.c: 405: sol2_on = 0b0;
  2173  0589  11B0               	bcf	_sol2_on/(0+8),_sol2_on& (0+7)	;volatile
  2174                           
  2175                           ;auto_washing_machine.c: 407: rot_time = 0;
  2176  058A  01A9               	clrf	_rot_time	;volatile
  2177                           
  2178                           ;auto_washing_machine.c: 408: mot_rot = 0b1;
  2179  058B  177D               	bsf	_mot_rot/(0+8),_mot_rot& (0+7)	;volatile
  2180  058C                     l2839:	
  2181                           ;auto_washing_machine.c: 409: while(rot_time < 1u)
  2182                           
  2183  058C  1283               	bcf	3,5	;RP0=0, select bank0
  2184  058D  1303               	bcf	3,6	;RP1=0, select bank0
  2185  058E  0829               	movf	_rot_time,w	;volatile
  2186  058F  1D03               	btfss	3,2
  2187  0590  2D93               	goto	l298
  2188  0591  0064               	clrwdt	;# 
  2189  0592  2D8C               	goto	l2839
  2190  0593                     l298:	
  2191                           
  2192                           ;auto_washing_machine.c: 412: (GIE = 0);
  2193  0593  138B               	bcf	11,7	;volatile
  2194                           
  2195                           ;auto_washing_machine.c: 413: prev_state = C;
  2196  0594  3002               	movlw	2
  2197  0595  00B4               	movwf	??_state_c
  2198  0596  0834               	movf	??_state_c,w
  2199  0597  00B2               	movwf	_prev_state
  2200                           
  2201                           ;auto_washing_machine.c: 414: if(C == skip_beg)
  2202  0598  3002               	movlw	2
  2203  0599  0633               	xorwf	_skip_beg,w
  2204  059A  1D03               	btfss	3,2
  2205  059B  2D9E               	goto	l2847
  2206                           
  2207                           ;auto_washing_machine.c: 415: cur_state = skip_end;
  2208  059C  082B               	movf	_skip_end,w
  2209  059D  2D9F               	goto	L4
  2210  059E                     l2847:	
  2211                           
  2212                           ;auto_washing_machine.c: 416: else
  2213                           ;auto_washing_machine.c: 417: cur_state = D;
  2214  059E  3003               	movlw	3
  2215  059F                     L4:	
  2216  059F  00B4               	movwf	??_state_c
  2217  05A0  0834               	movf	??_state_c,w
  2218  05A1  00B1               	movwf	_cur_state
  2219                           
  2220                           ;auto_washing_machine.c: 418: (GIE = 1);
  2221  05A2  178B               	bsf	11,7	;volatile
  2222  05A3  0008               	return
  2223  05A4                     __end_of_state_c:	
  2224                           
  2225                           	psect	text14
  2226  05A4                     __ptext14:	
  2227 ;; *************** function _state_b *****************
  2228 ;; Defined at:
  2229 ;;		line 338 in file "auto_washing_machine.c"
  2230 ;; Parameters:    Size  Location     Type
  2231 ;;		None
  2232 ;; Auto vars:     Size  Location     Type
  2233 ;;		None
  2234 ;; Return value:  Size  Location     Type
  2235 ;;                  1    wreg      void 
  2236 ;; Registers used:
  2237 ;;		wreg, status,2, status,0, pclath, cstack
  2238 ;; Tracked objects:
  2239 ;;		On entry : 0/0
  2240 ;;		On exit  : 0/0
  2241 ;;		Unchanged: 0/0
  2242 ;; Data sizes:     COMMON   BANK0   BANK1   BANK3   BANK2
  2243 ;;      Params:         0       0       0       0       0
  2244 ;;      Locals:         0       0       0       0       0
  2245 ;;      Temps:          0       1       0       0       0
  2246 ;;      Totals:         0       1       0       0       0
  2247 ;;Total ram usage:        1 bytes
  2248 ;; Hardware stack levels used:    1
  2249 ;; Hardware stack levels required when called:    5
  2250 ;; This function calls:
  2251 ;;		_discharge
  2252 ;; This function is called by:
  2253 ;;		_main
  2254 ;; This function uses a non-reentrant model
  2255 ;;
  2256                           
  2257                           
  2258                           ;psect for function _state_b
  2259  05A4                     _state_b:	
  2260                           
  2261                           ;auto_washing_machine.c: 340: (PORTC = ((unsigned char)(unsigned char)B << 4) | (PORTC &
      +                           0x0F));
  2262                           
  2263                           ;incstack = 0
  2264                           ; Regs used in _state_b: [wreg+status,2+status,0+pclath+cstack]
  2265  05A4  1283               	bcf	3,5	;RP0=0, select bank0
  2266  05A5  1303               	bcf	3,6	;RP1=0, select bank0
  2267  05A6  0807               	movf	7,w	;volatile
  2268  05A7  390F               	andlw	15
  2269  05A8  3810               	iorlw	16
  2270  05A9  0087               	movwf	7	;volatile
  2271                           
  2272                           ;auto_washing_machine.c: 341: mot_rot = 0b0;
  2273  05AA  137D               	bcf	_mot_rot/(0+8),_mot_rot& (0+7)	;volatile
  2274                           
  2275                           ;auto_washing_machine.c: 344: if(C != prev_state && D != prev_state)
  2276  05AB  3002               	movlw	2
  2277  05AC  0632               	xorwf	_prev_state,w
  2278  05AD  1903               	btfsc	3,2
  2279  05AE  2DB8               	goto	l2793
  2280  05AF  3003               	movlw	3
  2281  05B0  0632               	xorwf	_prev_state,w
  2282  05B1  1903               	btfsc	3,2
  2283  05B2  2DB8               	goto	l2793
  2284                           
  2285                           ;auto_washing_machine.c: 345: discharge();
  2286  05B3  120A  118A  26E5  120A  118A  	fcall	_discharge
  2287  05B8                     l2793:	
  2288                           
  2289                           ;auto_washing_machine.c: 348: sol_op_time = 0;
  2290  05B8  1283               	bcf	3,5	;RP0=0, select bank0
  2291  05B9  1303               	bcf	3,6	;RP1=0, select bank0
  2292  05BA  01AC               	clrf	_sol_op_time	;volatile
  2293                           
  2294                           ;auto_washing_machine.c: 349: sol2_on = 0b1;
  2295  05BB  15B0               	bsf	_sol2_on/(0+8),_sol2_on& (0+7)	;volatile
  2296                           
  2297                           ;auto_washing_machine.c: 350: ht_on = 0b1;
  2298  05BC  15FD               	bsf	_ht_on/(0+8),_ht_on& (0+7)	;volatile
  2299                           
  2300                           ;auto_washing_machine.c: 352: if(0b1 == half_load)
  2301  05BD  197D               	btfsc	_half_load/(0+8),_half_load& (0+7)	;volatile
  2302  05BE  2DC1               	goto	l272
  2303  05BF  2DC7               	goto	l276
  2304  05C0                     l273:	
  2305                           ;auto_washing_machine.c: 353: {
  2306                           ;auto_washing_machine.c: 354: while(0b0 != RB2)
  2307                           
  2308  05C0  0064               	clrwdt	;# 
  2309  05C1                     l272:	
  2310  05C1  1283               	bcf	3,5	;RP0=0, select bank0
  2311  05C2  1303               	bcf	3,6	;RP1=0, select bank0
  2312  05C3  1D06               	btfss	6,2	;volatile
  2313  05C4  2DCB               	goto	l275
  2314  05C5  2DC0               	goto	l273
  2315  05C6                     l277:	
  2316                           ;auto_washing_machine.c: 357: else
  2317                           ;auto_washing_machine.c: 358: {
  2318                           ;auto_washing_machine.c: 359: while(0b0 != RB1)
  2319                           
  2320                           ;auto_washing_machine.c: 356: }
  2321                           
  2322  05C6  0064               	clrwdt	;# 
  2323  05C7                     l276:	
  2324  05C7  1283               	bcf	3,5	;RP0=0, select bank0
  2325  05C8  1303               	bcf	3,6	;RP1=0, select bank0
  2326  05C9  1886               	btfsc	6,1	;volatile
  2327  05CA  2DC6               	goto	l277
  2328  05CB                     l275:	
  2329                           
  2330                           ;auto_washing_machine.c: 361: }
  2331                           ;auto_washing_machine.c: 362: sol2_on = 0b0;
  2332  05CB  11B0               	bcf	_sol2_on/(0+8),_sol2_on& (0+7)	;volatile
  2333                           
  2334                           ;auto_washing_machine.c: 364: mot_rot = 0b1;
  2335  05CC  177D               	bsf	_mot_rot/(0+8),_mot_rot& (0+7)	;volatile
  2336                           
  2337                           ;auto_washing_machine.c: 365: rot_time = 0;
  2338  05CD  01A9               	clrf	_rot_time	;volatile
  2339  05CE                     l2805:	
  2340                           ;auto_washing_machine.c: 366: while(rot_time < 1u)
  2341                           
  2342  05CE  1283               	bcf	3,5	;RP0=0, select bank0
  2343  05CF  1303               	bcf	3,6	;RP1=0, select bank0
  2344  05D0  0829               	movf	_rot_time,w	;volatile
  2345  05D1  1D03               	btfss	3,2
  2346  05D2  2DD5               	goto	l281
  2347  05D3  0064               	clrwdt	;# 
  2348  05D4  2DCE               	goto	l2805
  2349  05D5                     l281:	
  2350                           
  2351                           ;auto_washing_machine.c: 369: (GIE = 0);
  2352  05D5  138B               	bcf	11,7	;volatile
  2353                           
  2354                           ;auto_washing_machine.c: 370: prev_state = B;
  2355  05D6  01B2               	clrf	_prev_state
  2356  05D7  0AB2               	incf	_prev_state,f
  2357                           
  2358                           ;auto_washing_machine.c: 371: if(B == skip_beg)
  2359  05D8  0333               	decf	_skip_beg,w
  2360  05D9  1D03               	btfss	3,2
  2361  05DA  2DDD               	goto	l2811
  2362                           
  2363                           ;auto_washing_machine.c: 372: cur_state = skip_end;
  2364  05DB  082B               	movf	_skip_end,w
  2365  05DC  2DDE               	goto	L5
  2366  05DD                     l2811:	
  2367                           
  2368                           ;auto_washing_machine.c: 373: else
  2369                           ;auto_washing_machine.c: 374: cur_state = C;
  2370  05DD  3002               	movlw	2
  2371  05DE                     L5:	
  2372  05DE  00B4               	movwf	??_state_b
  2373  05DF  0834               	movf	??_state_b,w
  2374  05E0  00B1               	movwf	_cur_state
  2375                           
  2376                           ;auto_washing_machine.c: 375: (GIE = 1);
  2377  05E1  178B               	bsf	11,7	;volatile
  2378  05E2  0008               	return
  2379  05E3                     __end_of_state_b:	
  2380                           
  2381                           	psect	text15
  2382  05E3                     __ptext15:	
  2383 ;; *************** function _state_a *****************
  2384 ;; Defined at:
  2385 ;;		line 296 in file "auto_washing_machine.c"
  2386 ;; Parameters:    Size  Location     Type
  2387 ;;		None
  2388 ;; Auto vars:     Size  Location     Type
  2389 ;;		None
  2390 ;; Return value:  Size  Location     Type
  2391 ;;                  1    wreg      void 
  2392 ;; Registers used:
  2393 ;;		wreg, status,2, status,0, pclath, cstack
  2394 ;; Tracked objects:
  2395 ;;		On entry : 0/0
  2396 ;;		On exit  : 0/0
  2397 ;;		Unchanged: 0/0
  2398 ;; Data sizes:     COMMON   BANK0   BANK1   BANK3   BANK2
  2399 ;;      Params:         0       0       0       0       0
  2400 ;;      Locals:         0       0       0       0       0
  2401 ;;      Temps:          0       1       0       0       0
  2402 ;;      Totals:         0       1       0       0       0
  2403 ;;Total ram usage:        1 bytes
  2404 ;; Hardware stack levels used:    1
  2405 ;; Hardware stack levels required when called:    5
  2406 ;; This function calls:
  2407 ;;		_discharge
  2408 ;; This function is called by:
  2409 ;;		_main
  2410 ;; This function uses a non-reentrant model
  2411 ;;
  2412                           
  2413                           
  2414                           ;psect for function _state_a
  2415  05E3                     _state_a:	
  2416                           
  2417                           ;auto_washing_machine.c: 298: (PORTC = ((unsigned char)(int)A << 4) | (PORTC & 0x0F));
  2418                           
  2419                           ;incstack = 0
  2420                           ; Regs used in _state_a: [wreg+status,2+status,0+pclath+cstack]
  2421  05E3  1283               	bcf	3,5	;RP0=0, select bank0
  2422  05E4  1303               	bcf	3,6	;RP1=0, select bank0
  2423  05E5  0807               	movf	7,w	;volatile
  2424  05E6  390F               	andlw	15
  2425  05E7  0087               	movwf	7	;volatile
  2426                           
  2427                           ;auto_washing_machine.c: 299: mot_rot = 0b0;
  2428  05E8  137D               	bcf	_mot_rot/(0+8),_mot_rot& (0+7)	;volatile
  2429                           
  2430                           ;auto_washing_machine.c: 302: discharge();
  2431  05E9  120A  118A  26E5  120A  118A  	fcall	_discharge
  2432                           
  2433                           ;auto_washing_machine.c: 304: sol_op_time = 0;
  2434  05EE  1283               	bcf	3,5	;RP0=0, select bank0
  2435  05EF  1303               	bcf	3,6	;RP1=0, select bank0
  2436  05F0  01AC               	clrf	_sol_op_time	;volatile
  2437                           
  2438                           ;auto_washing_machine.c: 305: sol1_on = 0b1;
  2439  05F1  1530               	bsf	_sol1_on/(0+8),_sol1_on& (0+7)	;volatile
  2440                           
  2441                           ;auto_washing_machine.c: 306: ht_on = 0b1;
  2442  05F2  15FD               	bsf	_ht_on/(0+8),_ht_on& (0+7)	;volatile
  2443  05F3                     l255:	
  2444                           ;auto_washing_machine.c: 309: while(0b0 != RB2)
  2445                           
  2446  05F3  1283               	bcf	3,5	;RP0=0, select bank0
  2447  05F4  1303               	bcf	3,6	;RP1=0, select bank0
  2448  05F5  1D06               	btfss	6,2	;volatile
  2449  05F6  2DF9               	goto	l257
  2450  05F7  0064               	clrwdt	;# 
  2451  05F8  2DF3               	goto	l255
  2452  05F9                     l257:	
  2453                           
  2454                           ;auto_washing_machine.c: 311: mot_high = 0b0;
  2455  05F9  127D               	bcf	_mot_high/(0+8),_mot_high& (0+7)	;volatile
  2456                           
  2457                           ;auto_washing_machine.c: 312: mot_rot = 0b1;
  2458  05FA  177D               	bsf	_mot_rot/(0+8),_mot_rot& (0+7)	;volatile
  2459                           
  2460                           ;auto_washing_machine.c: 315: if(0b0 == half_load)
  2461  05FB  1D7D               	btfss	_half_load/(0+8),_half_load& (0+7)	;volatile
  2462  05FC  2DFF               	goto	l259
  2463  05FD  2E03               	goto	l258
  2464  05FE                     l260:	
  2465                           ;auto_washing_machine.c: 316: {
  2466                           ;auto_washing_machine.c: 318: while(0b0 != RB1)
  2467                           
  2468  05FE  0064               	clrwdt	;# 
  2469  05FF                     l259:	
  2470  05FF  1283               	bcf	3,5	;RP0=0, select bank0
  2471  0600  1303               	bcf	3,6	;RP1=0, select bank0
  2472  0601  1886               	btfsc	6,1	;volatile
  2473  0602  2DFE               	goto	l260
  2474  0603                     l258:	
  2475                           
  2476                           ;auto_washing_machine.c: 320: }
  2477                           ;auto_washing_machine.c: 321: sol1_on = 0b0;
  2478  0603  1130               	bcf	_sol1_on/(0+8),_sol1_on& (0+7)	;volatile
  2479                           
  2480                           ;auto_washing_machine.c: 323: rot_time = 0;
  2481  0604  01A9               	clrf	_rot_time	;volatile
  2482  0605                     l2771:	
  2483                           ;auto_washing_machine.c: 324: while(rot_time < 1u)
  2484                           
  2485  0605  1283               	bcf	3,5	;RP0=0, select bank0
  2486  0606  1303               	bcf	3,6	;RP1=0, select bank0
  2487  0607  0829               	movf	_rot_time,w	;volatile
  2488  0608  1D03               	btfss	3,2
  2489  0609  2E0C               	goto	l2773
  2490  060A  0064               	clrwdt	;# 
  2491  060B  2E05               	goto	l2771
  2492  060C                     l2773:	
  2493                           
  2494                           ;auto_washing_machine.c: 327: discharge();
  2495  060C  120A  118A  26E5  120A  118A  	fcall	_discharge
  2496                           
  2497                           ;auto_washing_machine.c: 328: (GIE = 0);
  2498  0611  138B               	bcf	11,7	;volatile
  2499                           
  2500                           ;auto_washing_machine.c: 329: prev_state = A;
  2501  0612  1283               	bcf	3,5	;RP0=0, select bank0
  2502  0613  1303               	bcf	3,6	;RP1=0, select bank0
  2503  0614  01B2               	clrf	_prev_state
  2504                           
  2505                           ;auto_washing_machine.c: 330: if(A == skip_beg)
  2506  0615  0833               	movf	_skip_beg,w
  2507  0616  1D03               	btfss	3,2
  2508  0617  2E1D               	goto	l265
  2509                           
  2510                           ;auto_washing_machine.c: 331: cur_state = skip_end;
  2511  0618  082B               	movf	_skip_end,w
  2512  0619  00B4               	movwf	??_state_a
  2513  061A  0834               	movf	??_state_a,w
  2514  061B  00B1               	movwf	_cur_state
  2515  061C  2E1F               	goto	l266
  2516  061D                     l265:	
  2517                           
  2518                           ;auto_washing_machine.c: 332: else
  2519                           ;auto_washing_machine.c: 333: cur_state = B;
  2520  061D  01B1               	clrf	_cur_state
  2521  061E  0AB1               	incf	_cur_state,f
  2522  061F                     l266:	
  2523                           
  2524                           ;auto_washing_machine.c: 334: (GIE = 1);
  2525  061F  178B               	bsf	11,7	;volatile
  2526  0620  0008               	return
  2527  0621                     __end_of_state_a:	
  2528                           
  2529                           	psect	text16
  2530  06E5                     __ptext16:	
  2531 ;; *************** function _discharge *****************
  2532 ;; Defined at:
  2533 ;;		line 657 in file "auto_washing_machine.c"
  2534 ;; Parameters:    Size  Location     Type
  2535 ;;		None
  2536 ;; Auto vars:     Size  Location     Type
  2537 ;;		None
  2538 ;; Return value:  Size  Location     Type
  2539 ;;                  1    wreg      void 
  2540 ;; Registers used:
  2541 ;;		status,2
  2542 ;; Tracked objects:
  2543 ;;		On entry : 0/0
  2544 ;;		On exit  : 0/0
  2545 ;;		Unchanged: 0/0
  2546 ;; Data sizes:     COMMON   BANK0   BANK1   BANK3   BANK2
  2547 ;;      Params:         0       0       0       0       0
  2548 ;;      Locals:         0       0       0       0       0
  2549 ;;      Temps:          0       0       0       0       0
  2550 ;;      Totals:         0       0       0       0       0
  2551 ;;Total ram usage:        0 bytes
  2552 ;; Hardware stack levels used:    1
  2553 ;; Hardware stack levels required when called:    4
  2554 ;; This function calls:
  2555 ;;		Nothing
  2556 ;; This function is called by:
  2557 ;;		_state_a
  2558 ;;		_state_b
  2559 ;;		_state_c
  2560 ;;		_state_d
  2561 ;;		_state_f
  2562 ;;		_state_g
  2563 ;;		_state_h
  2564 ;; This function uses a non-reentrant model
  2565 ;;
  2566                           
  2567                           
  2568                           ;psect for function _discharge
  2569  06E5                     _discharge:	
  2570                           
  2571                           ;auto_washing_machine.c: 659: if(0b0 != RB3)
  2572                           
  2573                           ;incstack = 0
  2574                           ; Regs used in _discharge: [status,2]
  2575  06E5  1283               	bcf	3,5	;RP0=0, select bank0
  2576  06E6  1303               	bcf	3,6	;RP1=0, select bank0
  2577  06E7  1D86               	btfss	6,3	;volatile
  2578  06E8  0008               	return
  2579                           
  2580                           ;auto_washing_machine.c: 660: {
  2581                           ;auto_washing_machine.c: 661: dp_op_time = 0;
  2582  06E9  01A7               	clrf	_dp_op_time	;volatile
  2583                           
  2584                           ;auto_washing_machine.c: 662: dp_on = 0b1;
  2585  06EA  14FD               	bsf	_dp_on/(0+8),_dp_on& (0+7)	;volatile
  2586  06EB                     l410:	
  2587                           ;auto_washing_machine.c: 663: while(0b0 != RB3)
  2588                           
  2589  06EB  1283               	bcf	3,5	;RP0=0, select bank0
  2590  06EC  1303               	bcf	3,6	;RP1=0, select bank0
  2591  06ED  1D86               	btfss	6,3	;volatile
  2592  06EE  2EF1               	goto	l412
  2593  06EF  0064               	clrwdt	;# 
  2594  06F0  2EEB               	goto	l410
  2595  06F1                     l412:	
  2596                           
  2597                           ;auto_washing_machine.c: 665: dp_on = 0b0;
  2598  06F1  10FD               	bcf	_dp_on/(0+8),_dp_on& (0+7)	;volatile
  2599  06F2  0008               	return
  2600  06F3                     __end_of_discharge:	
  2601                           
  2602                           	psect	text17
  2603  0022                     __ptext17:	
  2604 ;; *************** function _isr *****************
  2605 ;; Defined at:
  2606 ;;		line 671 in file "auto_washing_machine.c"
  2607 ;; Parameters:    Size  Location     Type
  2608 ;;		None
  2609 ;; Auto vars:     Size  Location     Type
  2610 ;;		None
  2611 ;; Return value:  Size  Location     Type
  2612 ;;                  1    wreg      void 
  2613 ;; Registers used:
  2614 ;;		wreg, fsr0l, fsr0h, status,2, status,0, pclath, cstack
  2615 ;; Tracked objects:
  2616 ;;		On entry : 0/0
  2617 ;;		On exit  : 0/0
  2618 ;;		Unchanged: 0/0
  2619 ;; Data sizes:     COMMON   BANK0   BANK1   BANK3   BANK2
  2620 ;;      Params:         0       0       0       0       0
  2621 ;;      Locals:         0       0       0       0       0
  2622 ;;      Temps:          7       0       0       0       0
  2623 ;;      Totals:         7       0       0       0       0
  2624 ;;Total ram usage:        7 bytes
  2625 ;; Hardware stack levels used:    1
  2626 ;; Hardware stack levels required when called:    3
  2627 ;; This function calls:
  2628 ;;		___lwmod
  2629 ;;		_mot_off
  2630 ;;		_resume
  2631 ;;		_rev_cw
  2632 ;;		_suspend
  2633 ;; This function is called by:
  2634 ;;		Interrupt level 1
  2635 ;; This function uses a non-reentrant model
  2636 ;;
  2637                           
  2638                           
  2639                           ;psect for function _isr
  2640  0022                     _isr:	
  2641                           
  2642                           ;auto_washing_machine.c: 674: static unsigned int i;
  2643                           ;auto_washing_machine.c: 676: static unsigned long ticks;
  2644                           ;auto_washing_machine.c: 678: static bit mot_is_left;
  2645                           ;auto_washing_machine.c: 680: static bit mot_is_high;
  2646                           ;auto_washing_machine.c: 682: if(TMR1IF == 0b1)
  2647  0022  1C0C               	btfss	12,0	;volatile
  2648  0023  28B0               	goto	i1l3289
  2649                           
  2650                           ;auto_washing_machine.c: 683: {
  2651                           ;auto_washing_machine.c: 685: if(SUSPENSION != cur_state)
  2652  0024  0A31               	incf	_cur_state,w
  2653  0025  1903               	btfsc	3,2
  2654  0026  28AF               	goto	i1l3287
  2655                           
  2656                           ;auto_washing_machine.c: 686: {
  2657                           ;auto_washing_machine.c: 687: seconds++;
  2658  0027  3001               	movlw	1
  2659  0028  00F6               	movwf	??_isr
  2660  0029  0876               	movf	??_isr,w
  2661  002A  07AA               	addwf	_seconds,f	;volatile
  2662                           
  2663                           ;auto_washing_machine.c: 690: if(0b1 == mot_rot)
  2664  002B  1F7D               	btfss	_mot_rot/(0+8),_mot_rot& (0+7)	;volatile
  2665  002C  287A               	goto	i1l426
  2666                           
  2667                           ;auto_washing_machine.c: 691: {
  2668                           ;auto_washing_machine.c: 692: if(!mot_high && (seconds % 3u == 0))
  2669  002D  1A7D               	btfsc	_mot_high/(0+8),_mot_high& (0+7)	;volatile
  2670  002E  2852               	goto	i1l427
  2671  002F  3003               	movlw	3
  2672  0030  00F0               	movwf	___lwmod@divisor
  2673  0031  3000               	movlw	0
  2674  0032  00F1               	movwf	___lwmod@divisor+1
  2675  0033  082A               	movf	_seconds,w	;volatile
  2676  0034  00F6               	movwf	??_isr
  2677  0035  01F7               	clrf	??_isr+1
  2678  0036  0876               	movf	??_isr,w
  2679  0037  00F2               	movwf	___lwmod@dividend
  2680  0038  0877               	movf	??_isr+1,w
  2681  0039  00F3               	movwf	___lwmod@dividend+1
  2682  003A  120A  118A  2655  120A  118A  	fcall	___lwmod
  2683  003F  0870               	movf	?___lwmod,w
  2684  0040  0471               	iorwf	?___lwmod+1,w
  2685  0041  1D03               	btfss	3,2
  2686  0042  2852               	goto	i1l427
  2687                           
  2688                           ;auto_washing_machine.c: 693: {
  2689                           ;auto_washing_machine.c: 694: if(mot_is_rot)
  2690  0043  1EFD               	btfss	_mot_is_rot/(0+8),_mot_is_rot& (0+7)
  2691  0044  2848               	goto	i1l3223
  2692                           
  2693                           ;auto_washing_machine.c: 695: {
  2694                           ;auto_washing_machine.c: 696: RC0 = !0b1;
  2695  0045  1283               	bcf	3,5	;RP0=0, select bank0
  2696  0046  1303               	bcf	3,6	;RP1=0, select bank0
  2697  0047  287D               	goto	i1l3255
  2698  0048                     i1l3223:	
  2699                           ;auto_washing_machine.c: 698: }
  2700                           
  2701                           ;auto_washing_machine.c: 697: mot_is_rot = 0b0;
  2702                           
  2703                           
  2704                           ;auto_washing_machine.c: 699: else
  2705                           ;auto_washing_machine.c: 700: {
  2706                           ;auto_washing_machine.c: 701: mot_is_left ^= 0b1;
  2707  0048  1283               	bcf	3,5	;RP0=0, select bank0
  2708  0049  1303               	bcf	3,6	;RP1=0, select bank0
  2709  004A  3080               	movlw	(0+1) shl (isr@mot_is_left& (0+7))
  2710  004B  06B0               	xorwf	isr@mot_is_left/(0+8),f
  2711                           
  2712                           ;auto_washing_machine.c: 702: if(mot_is_left)
  2713  004C  1FB0               	btfss	isr@mot_is_left/(0+8),isr@mot_is_left& (0+7)
  2714  004D  2850               	goto	i1l430
  2715                           
  2716                           ;auto_washing_machine.c: 703: RC2 = !0b1;
  2717  004E  1107               	bcf	7,2	;volatile
  2718  004F  286E               	goto	L9
  2719  0050                     i1l430:	
  2720                           
  2721                           ;auto_washing_machine.c: 704: else
  2722                           ;auto_washing_machine.c: 705: RC2 = 0b1;
  2723  0050  1507               	bsf	7,2	;volatile
  2724  0051  286E               	goto	L9
  2725  0052                     i1l427:	
  2726                           ;auto_washing_machine.c: 708: }
  2727                           ;auto_washing_machine.c: 709: }
  2728                           
  2729                           ;auto_washing_machine.c: 707: mot_is_rot = 0b1;
  2730                           
  2731                           ;auto_washing_machine.c: 706: RC0 = 0b1;
  2732                           
  2733                           
  2734                           ;auto_washing_machine.c: 713: else if(mot_high && !mot_is_high)
  2735  0052  1E7D               	btfss	_mot_high/(0+8),_mot_high& (0+7)	;volatile
  2736  0053  2871               	goto	i1l433
  2737  0054  1283               	bcf	3,5	;RP0=0, select bank0
  2738  0055  1303               	bcf	3,6	;RP1=0, select bank0
  2739  0056  1B30               	btfsc	isr@mot_is_high/(0+8),isr@mot_is_high& (0+7)
  2740  0057  2871               	goto	i1l433
  2741                           
  2742                           ;auto_washing_machine.c: 714: {
  2743                           ;auto_washing_machine.c: 715: if(mot_is_left)
  2744  0058  1FB0               	btfss	isr@mot_is_left/(0+8),isr@mot_is_left& (0+7)
  2745  0059  2868               	goto	i1l3237
  2746                           
  2747                           ;auto_washing_machine.c: 716: {
  2748                           ;auto_washing_machine.c: 717: RC0 = !0b1;
  2749  005A  1007               	bcf	7,0	;volatile
  2750                           
  2751                           ;auto_washing_machine.c: 718: _delay((unsigned long)((2000)*(4000000/4000.0)));
  2752  005B  300B               	movlw	11
  2753  005C  00F8               	movwf	??_isr+2
  2754  005D  3026               	movlw	38
  2755  005E  00F7               	movwf	??_isr+1
  2756  005F  3066               	movlw	102
  2757  0060  00F6               	movwf	??_isr
  2758  0061                     u508_27:	
  2759  0061  0BF6               	decfsz	??_isr,f
  2760  0062  2861               	goto	u508_27
  2761  0063  0BF7               	decfsz	??_isr+1,f
  2762  0064  2861               	goto	u508_27
  2763  0065  0BF8               	decfsz	??_isr+2,f
  2764  0066  2861               	goto	u508_27
  2765  0067  2868               	nop2
  2766  0068                     i1l3237:	
  2767                           
  2768                           ;auto_washing_machine.c: 719: }
  2769                           ;auto_washing_machine.c: 720: RC2 = 0b1;
  2770  0068  1283               	bcf	3,5	;RP0=0, select bank0
  2771  0069  1303               	bcf	3,6	;RP1=0, select bank0
  2772  006A  1507               	bsf	7,2	;volatile
  2773                           
  2774                           ;auto_washing_machine.c: 721: mot_is_left = 0b0;
  2775  006B  13B0               	bcf	isr@mot_is_left/(0+8),isr@mot_is_left& (0+7)
  2776                           
  2777                           ;auto_washing_machine.c: 722: RC1 = 0b1;
  2778  006C  1487               	bsf	7,1	;volatile
  2779                           
  2780                           ;auto_washing_machine.c: 723: mot_is_high = 0b1;
  2781  006D  1730               	bsf	isr@mot_is_high/(0+8),isr@mot_is_high& (0+7)
  2782  006E                     L9:	
  2783                           
  2784                           ;auto_washing_machine.c: 724: RC0 = 0b1;
  2785  006E  1407               	bsf	7,0	;volatile
  2786                           
  2787                           ;auto_washing_machine.c: 725: mot_is_rot = 0b1;
  2788  006F  16FD               	bsf	_mot_is_rot/(0+8),_mot_is_rot& (0+7)
  2789                           
  2790                           ;auto_washing_machine.c: 726: }
  2791  0070  287F               	goto	i1l3257
  2792  0071                     i1l433:	
  2793                           
  2794                           ;auto_washing_machine.c: 727: else if(!mot_high && mot_is_high)
  2795  0071  1A7D               	btfsc	_mot_high/(0+8),_mot_high& (0+7)	;volatile
  2796  0072  287F               	goto	i1l3257
  2797  0073  1283               	bcf	3,5	;RP0=0, select bank0
  2798  0074  1303               	bcf	3,6	;RP1=0, select bank0
  2799  0075  1F30               	btfss	isr@mot_is_high/(0+8),isr@mot_is_high& (0+7)
  2800  0076  287F               	goto	i1l3257
  2801                           
  2802                           ;auto_washing_machine.c: 728: {
  2803                           ;auto_washing_machine.c: 729: RC1 = !0b1;
  2804  0077  1087               	bcf	7,1	;volatile
  2805                           
  2806                           ;auto_washing_machine.c: 730: mot_is_high = 0b0;
  2807  0078  1330               	bcf	isr@mot_is_high/(0+8),isr@mot_is_high& (0+7)
  2808                           
  2809                           ;auto_washing_machine.c: 731: }
  2810                           ;auto_washing_machine.c: 732: }
  2811  0079  287F               	goto	i1l3257
  2812  007A                     i1l426:	
  2813                           
  2814                           ;auto_washing_machine.c: 733: else if(!mot_rot && mot_is_rot)
  2815  007A  1F7D               	btfss	_mot_rot/(0+8),_mot_rot& (0+7)	;volatile
  2816  007B  1EFD               	btfss	_mot_is_rot/(0+8),_mot_is_rot& (0+7)
  2817  007C  287F               	goto	i1l3257
  2818  007D                     i1l3255:	
  2819                           
  2820                           ;auto_washing_machine.c: 734: {
  2821                           ;auto_washing_machine.c: 735: RC0 = !0b1;
  2822  007D  1007               	bcf	7,0	;volatile
  2823                           
  2824                           ;auto_washing_machine.c: 736: mot_is_rot = 0b0;
  2825  007E  12FD               	bcf	_mot_is_rot/(0+8),_mot_is_rot& (0+7)
  2826  007F                     i1l3257:	
  2827                           
  2828                           ;auto_washing_machine.c: 737: }
  2829                           ;auto_washing_machine.c: 739: if(seconds >= 114)
  2830  007F  3072               	movlw	114
  2831  0080  1283               	bcf	3,5	;RP0=0, select bank0
  2832  0081  1303               	bcf	3,6	;RP1=0, select bank0
  2833  0082  022A               	subwf	_seconds,w	;volatile
  2834  0083  1C03               	skipc
  2835  0084  28AF               	goto	i1l3287
  2836                           
  2837                           ;auto_washing_machine.c: 740: {
  2838                           ;auto_washing_machine.c: 741: seconds = 0;
  2839  0085  01AA               	clrf	_seconds	;volatile
  2840                           
  2841                           ;auto_washing_machine.c: 744: if(BEGINNING == cur_state)
  2842  0086  30FE               	movlw	254
  2843  0087  0631               	xorwf	_cur_state,w
  2844  0088  1D03               	btfss	3,2
  2845  0089  2892               	goto	i1l440
  2846                           
  2847                           ;auto_washing_machine.c: 745: {
  2848                           ;auto_washing_machine.c: 746: idle_time++;
  2849  008A  3001               	movlw	1
  2850  008B  00F6               	movwf	??_isr
  2851  008C  0876               	movf	??_isr,w
  2852  008D  07A8               	addwf	_idle_time,f	;volatile
  2853                           
  2854                           ;auto_washing_machine.c: 747: if(idle_time >= 20u)
  2855  008E  3014               	movlw	20
  2856  008F  0228               	subwf	_idle_time,w	;volatile
  2857  0090  1803               	btfsc	3,0
  2858                           
  2859                           ;auto_washing_machine.c: 748: RD7 = !0b1;
  2860  0091  1388               	bcf	8,7	;volatile
  2861  0092                     i1l440:	
  2862                           
  2863                           ;auto_washing_machine.c: 749: }
  2864                           ;auto_washing_machine.c: 753: if(sol1_on || sol2_on || sol3_on)
  2865  0092  1D30               	btfss	_sol1_on/(0+8),_sol1_on& (0+7)	;volatile
  2866  0093  19B0               	btfsc	_sol2_on/(0+8),_sol2_on& (0+7)	;volatile
  2867  0094  2897               	goto	i1l3273
  2868  0095  1E30               	btfss	_sol3_on/(0+8),_sol3_on& (0+7)	;volatile
  2869  0096  289F               	goto	i1l442
  2870  0097                     i1l3273:	
  2871                           
  2872                           ;auto_washing_machine.c: 754: {
  2873                           ;auto_washing_machine.c: 755: sol_op_time++;
  2874  0097  3001               	movlw	1
  2875  0098  00F6               	movwf	??_isr
  2876  0099  0876               	movf	??_isr,w
  2877  009A  07AC               	addwf	_sol_op_time,f	;volatile
  2878                           
  2879                           ;auto_washing_machine.c: 756: if(sol_op_time >= 10u)
  2880  009B  300A               	movlw	10
  2881  009C  022C               	subwf	_sol_op_time,w	;volatile
  2882  009D  1803               	btfsc	3,0
  2883                           
  2884                           ;auto_washing_machine.c: 757: RA0 = 0b1;
  2885  009E  1405               	bsf	5,0	;volatile
  2886  009F                     i1l442:	
  2887                           
  2888                           ;auto_washing_machine.c: 758: }
  2889                           ;auto_washing_machine.c: 762: if(0b1 == dp_on)
  2890  009F  1CFD               	btfss	_dp_on/(0+8),_dp_on& (0+7)	;volatile
  2891  00A0  28A9               	goto	i1l446
  2892                           
  2893                           ;auto_washing_machine.c: 763: {
  2894                           ;auto_washing_machine.c: 764: dp_op_time++;
  2895  00A1  3001               	movlw	1
  2896  00A2  00F6               	movwf	??_isr
  2897  00A3  0876               	movf	??_isr,w
  2898  00A4  07A7               	addwf	_dp_op_time,f	;volatile
  2899                           
  2900                           ;auto_washing_machine.c: 765: if(dp_op_time >= 10u)
  2901  00A5  300A               	movlw	10
  2902  00A6  0227               	subwf	_dp_op_time,w	;volatile
  2903  00A7  1803               	btfsc	3,0
  2904                           
  2905                           ;auto_washing_machine.c: 766: RA0 = 0b1;
  2906  00A8  1405               	bsf	5,0	;volatile
  2907  00A9                     i1l446:	
  2908                           
  2909                           ;auto_washing_machine.c: 767: }
  2910                           ;auto_washing_machine.c: 769: if(0b1 == mot_rot)
  2911  00A9  1F7D               	btfss	_mot_rot/(0+8),_mot_rot& (0+7)	;volatile
  2912  00AA  28AF               	goto	i1l3287
  2913                           
  2914                           ;auto_washing_machine.c: 770: rot_time++;
  2915  00AB  3001               	movlw	1
  2916  00AC  00F6               	movwf	??_isr
  2917  00AD  0876               	movf	??_isr,w
  2918  00AE  07A9               	addwf	_rot_time,f	;volatile
  2919  00AF                     i1l3287:	
  2920                           
  2921                           ;auto_washing_machine.c: 771: }
  2922                           ;auto_washing_machine.c: 772: }
  2923                           ;auto_washing_machine.c: 773: TMR1IF = 0b0;
  2924  00AF  100C               	bcf	12,0	;volatile
  2925  00B0                     i1l3289:	
  2926                           
  2927                           ;auto_washing_machine.c: 774: }
  2928                           ;auto_washing_machine.c: 775: if(TMR2IF)
  2929  00B0  1C8C               	btfss	12,1	;volatile
  2930  00B1  296A               	goto	i1l3397
  2931                           
  2932                           ;auto_washing_machine.c: 776: {
  2933                           ;auto_washing_machine.c: 778: if(0b1 != RE0)
  2934  00B2  1809               	btfsc	9,0	;volatile
  2935  00B3  28BA               	goto	i1l450
  2936                           
  2937                           ;auto_washing_machine.c: 779: {
  2938                           ;auto_washing_machine.c: 780: suspend();
  2939  00B4  120A  118A  26B4  120A  118A  	fcall	_suspend
  2940                           
  2941                           ;auto_washing_machine.c: 781: return;
  2942  00B9  2A87               	goto	i1l451
  2943  00BA                     i1l450:	
  2944                           
  2945                           ;auto_washing_machine.c: 782: }
  2946                           ;auto_washing_machine.c: 785: if(dp_on && !dp_is_on)
  2947  00BA  18FD               	btfsc	_dp_on/(0+8),_dp_on& (0+7)	;volatile
  2948  00BB  187D               	btfsc	_dp_is_on/(0+8),_dp_is_on& (0+7)
  2949  00BC  28C0               	goto	i1l452
  2950                           
  2951                           ;auto_washing_machine.c: 786: {
  2952                           ;auto_washing_machine.c: 787: RD1 = 0b1;
  2953  00BD  1488               	bsf	8,1	;volatile
  2954                           
  2955                           ;auto_washing_machine.c: 788: dp_is_on = 0b1;
  2956  00BE  147D               	bsf	_dp_is_on/(0+8),_dp_is_on& (0+7)
  2957                           
  2958                           ;auto_washing_machine.c: 789: }
  2959  00BF  28C5               	goto	i1l453
  2960  00C0                     i1l452:	
  2961                           
  2962                           ;auto_washing_machine.c: 790: else if(!dp_on && dp_is_on)
  2963  00C0  1CFD               	btfss	_dp_on/(0+8),_dp_on& (0+7)	;volatile
  2964  00C1  1C7D               	btfss	_dp_is_on/(0+8),_dp_is_on& (0+7)
  2965  00C2  28C5               	goto	i1l453
  2966                           
  2967                           ;auto_washing_machine.c: 791: {
  2968                           ;auto_washing_machine.c: 792: RD1 = !0b1;
  2969  00C3  1088               	bcf	8,1	;volatile
  2970                           
  2971                           ;auto_washing_machine.c: 793: dp_is_on = 0b0;
  2972  00C4  107D               	bcf	_dp_is_on/(0+8),_dp_is_on& (0+7)
  2973  00C5                     i1l453:	
  2974                           
  2975                           ;auto_washing_machine.c: 794: }
  2976                           ;auto_washing_machine.c: 796: if(0b0 == RE1)
  2977  00C5  1889               	btfsc	9,1	;volatile
  2978  00C6  28CA               	goto	i1l455
  2979                           
  2980                           ;auto_washing_machine.c: 797: {
  2981                           ;auto_washing_machine.c: 798: RD0 = !0b1;
  2982  00C7  1008               	bcf	8,0	;volatile
  2983                           
  2984                           ;auto_washing_machine.c: 799: ht_on = 0b0;
  2985  00C8  11FD               	bcf	_ht_on/(0+8),_ht_on& (0+7)	;volatile
  2986                           
  2987                           ;auto_washing_machine.c: 800: ht_is_on = 0b0;
  2988  00C9  1030               	bcf	_ht_is_on/(0+8),_ht_is_on& (0+7)
  2989  00CA                     i1l455:	
  2990                           
  2991                           ;auto_washing_machine.c: 801: }
  2992                           ;auto_washing_machine.c: 804: if(ht_on && !ht_is_on)
  2993  00CA  19FD               	btfsc	_ht_on/(0+8),_ht_on& (0+7)	;volatile
  2994  00CB  1830               	btfsc	_ht_is_on/(0+8),_ht_is_on& (0+7)
  2995  00CC  28D5               	goto	i1l456
  2996                           
  2997                           ;auto_washing_machine.c: 805: {
  2998                           ;auto_washing_machine.c: 806: if(0b0 == RE1)
  2999  00CD  1889               	btfsc	9,1	;volatile
  3000  00CE  28D2               	goto	i1l457
  3001                           
  3002                           ;auto_washing_machine.c: 807: {
  3003                           ;auto_washing_machine.c: 808: RD0 = !0b1;
  3004  00CF  1008               	bcf	8,0	;volatile
  3005                           
  3006                           ;auto_washing_machine.c: 809: ht_on = 0b0;
  3007  00D0  11FD               	bcf	_ht_on/(0+8),_ht_on& (0+7)	;volatile
  3008  00D1  28D9               	goto	L6
  3009  00D2                     i1l457:	
  3010                           ;auto_washing_machine.c: 811: }
  3011                           
  3012                           ;auto_washing_machine.c: 810: ht_is_on = 0b0;
  3013                           
  3014                           
  3015                           ;auto_washing_machine.c: 812: else
  3016                           ;auto_washing_machine.c: 813: {
  3017                           ;auto_washing_machine.c: 814: RD0 = 0b1;
  3018  00D2  1408               	bsf	8,0	;volatile
  3019                           
  3020                           ;auto_washing_machine.c: 815: ht_is_on = 0b1;
  3021  00D3  1430               	bsf	_ht_is_on/(0+8),_ht_is_on& (0+7)
  3022                           
  3023                           ;auto_washing_machine.c: 816: }
  3024                           ;auto_washing_machine.c: 817: }
  3025  00D4  28DA               	goto	i1l459
  3026  00D5                     i1l456:	
  3027                           
  3028                           ;auto_washing_machine.c: 818: else if(!ht_on && ht_is_on)
  3029  00D5  1DFD               	btfss	_ht_on/(0+8),_ht_on& (0+7)	;volatile
  3030  00D6  1C30               	btfss	_ht_is_on/(0+8),_ht_is_on& (0+7)
  3031  00D7  28DA               	goto	i1l459
  3032                           
  3033                           ;auto_washing_machine.c: 819: {
  3034                           ;auto_washing_machine.c: 820: RD0 = !0b1;
  3035  00D8  1008               	bcf	8,0	;volatile
  3036  00D9                     L6:	
  3037                           
  3038                           ;auto_washing_machine.c: 821: ht_is_on = 0b0;
  3039  00D9  1030               	bcf	_ht_is_on/(0+8),_ht_is_on& (0+7)
  3040  00DA                     i1l459:	
  3041                           
  3042                           ;auto_washing_machine.c: 822: }
  3043                           ;auto_washing_machine.c: 825: if(sol1_on && !sol2_on && !sol3_on && !sol_is_on)
  3044  00DA  1930               	btfsc	_sol1_on/(0+8),_sol1_on& (0+7)	;volatile
  3045  00DB  19B0               	btfsc	_sol2_on/(0+8),_sol2_on& (0+7)	;volatile
  3046  00DC  2902               	goto	i1l461
  3047  00DD  1E30               	btfss	_sol3_on/(0+8),_sol3_on& (0+7)	;volatile
  3048  00DE  1AB0               	btfsc	_sol_is_on/(0+8),_sol_is_on& (0+7)
  3049  00DF  2902               	goto	i1l461
  3050                           
  3051                           ;auto_washing_machine.c: 826: {
  3052                           ;auto_washing_machine.c: 827: RD3 = 0b1;
  3053  00E0  1588               	bsf	8,3	;volatile
  3054                           
  3055                           ;auto_washing_machine.c: 828: for(i = 0; i < 3u; i++)
  3056  00E1  01A4               	clrf	isr@i
  3057  00E2  01A5               	clrf	isr@i+1
  3058  00E3                     L11:	
  3059  00E3  3000               	movlw	0
  3060  00E4  0225               	subwf	isr@i+1,w
  3061  00E5  3003               	movlw	3
  3062  00E6  1903               	skipnz
  3063  00E7  0224               	subwf	isr@i,w
  3064  00E8  1803               	btfsc	3,0
  3065  00E9  2958               	goto	i1l471
  3066                           
  3067                           ;auto_washing_machine.c: 829: {
  3068                           ;auto_washing_machine.c: 830: rev_cw();
  3069  00EA  120A  118A  26D0  120A  118A  	fcall	_rev_cw
  3070  00EF  0064               	clrwdt	;# 
  3071                           
  3072                           ;auto_washing_machine.c: 832: _delay((unsigned long)((50)*(4000000/4000.0)));
  3073  00F0  3041               	movlw	65
  3074  00F1  00F7               	movwf	??_isr+1
  3075  00F2  30EE               	movlw	238
  3076  00F3  00F6               	movwf	??_isr
  3077  00F4                     u509_27:	
  3078  00F4  0BF6               	decfsz	??_isr,f
  3079  00F5  28F4               	goto	u509_27
  3080  00F6  0BF7               	decfsz	??_isr+1,f
  3081  00F7  28F4               	goto	u509_27
  3082  00F8  0000               	nop
  3083  00F9  3001               	movlw	1
  3084  00FA  1283               	bcf	3,5	;RP0=0, select bank0
  3085  00FB  1303               	bcf	3,6	;RP1=0, select bank0
  3086  00FC  07A4               	addwf	isr@i,f
  3087  00FD  1803               	skipnc
  3088  00FE  0AA5               	incf	isr@i+1,f
  3089  00FF  3000               	movlw	0
  3090  0100  07A5               	addwf	isr@i+1,f
  3091  0101  28E3               	goto	L11
  3092  0102                     i1l461:	
  3093                           ;auto_washing_machine.c: 835: }
  3094                           
  3095                           ;auto_washing_machine.c: 833: }
  3096                           ;auto_washing_machine.c: 834: sol_is_on = 0b1;
  3097                           
  3098                           
  3099                           ;auto_washing_machine.c: 836: else if(!sol1_on && sol2_on && !sol3_on && !sol_is_on)
  3100  0102  1D30               	btfss	_sol1_on/(0+8),_sol1_on& (0+7)	;volatile
  3101  0103  1DB0               	btfss	_sol2_on/(0+8),_sol2_on& (0+7)	;volatile
  3102  0104  292A               	goto	i1l465
  3103  0105  1E30               	btfss	_sol3_on/(0+8),_sol3_on& (0+7)	;volatile
  3104  0106  1AB0               	btfsc	_sol_is_on/(0+8),_sol_is_on& (0+7)
  3105  0107  292A               	goto	i1l465
  3106                           
  3107                           ;auto_washing_machine.c: 837: {
  3108                           ;auto_washing_machine.c: 838: RD3 = 0b1;
  3109  0108  1588               	bsf	8,3	;volatile
  3110                           
  3111                           ;auto_washing_machine.c: 839: for(i = 0; i < 6u; i++)
  3112  0109  01A4               	clrf	isr@i
  3113  010A  01A5               	clrf	isr@i+1
  3114  010B                     L13:	
  3115  010B  3000               	movlw	0
  3116  010C  0225               	subwf	isr@i+1,w
  3117  010D  3006               	movlw	6
  3118  010E  1903               	skipnz
  3119  010F  0224               	subwf	isr@i,w
  3120  0110  1803               	btfsc	3,0
  3121  0111  2958               	goto	i1l471
  3122                           
  3123                           ;auto_washing_machine.c: 840: {
  3124                           ;auto_washing_machine.c: 841: rev_cw();
  3125  0112  120A  118A  26D0  120A  118A  	fcall	_rev_cw
  3126  0117  0064               	clrwdt	;# 
  3127                           
  3128                           ;auto_washing_machine.c: 843: _delay((unsigned long)((50)*(4000000/4000.0)));
  3129  0118  3041               	movlw	65
  3130  0119  00F7               	movwf	??_isr+1
  3131  011A  30EE               	movlw	238
  3132  011B  00F6               	movwf	??_isr
  3133  011C                     u510_27:	
  3134  011C  0BF6               	decfsz	??_isr,f
  3135  011D  291C               	goto	u510_27
  3136  011E  0BF7               	decfsz	??_isr+1,f
  3137  011F  291C               	goto	u510_27
  3138  0120  0000               	nop
  3139  0121  3001               	movlw	1
  3140  0122  1283               	bcf	3,5	;RP0=0, select bank0
  3141  0123  1303               	bcf	3,6	;RP1=0, select bank0
  3142  0124  07A4               	addwf	isr@i,f
  3143  0125  1803               	skipnc
  3144  0126  0AA5               	incf	isr@i+1,f
  3145  0127  3000               	movlw	0
  3146  0128  07A5               	addwf	isr@i+1,f
  3147  0129  290B               	goto	L13
  3148  012A                     i1l465:	
  3149                           ;auto_washing_machine.c: 846: }
  3150                           
  3151                           ;auto_washing_machine.c: 844: }
  3152                           ;auto_washing_machine.c: 845: sol_is_on = 0b1;
  3153                           
  3154                           
  3155                           ;auto_washing_machine.c: 847: else if(!sol1_on && !sol2_on && sol3_on && !sol_is_on)
  3156  012A  1D30               	btfss	_sol1_on/(0+8),_sol1_on& (0+7)	;volatile
  3157  012B  19B0               	btfsc	_sol2_on/(0+8),_sol2_on& (0+7)	;volatile
  3158  012C  295A               	goto	i1l469
  3159  012D  1A30               	btfsc	_sol3_on/(0+8),_sol3_on& (0+7)	;volatile
  3160  012E  1AB0               	btfsc	_sol_is_on/(0+8),_sol_is_on& (0+7)
  3161  012F  295A               	goto	i1l469
  3162                           
  3163                           ;auto_washing_machine.c: 848: {
  3164                           ;auto_washing_machine.c: 849: RD3 = 0b1;
  3165  0130  1588               	bsf	8,3	;volatile
  3166                           
  3167                           ;auto_washing_machine.c: 850: for(i = 0; i < 9u; i++)
  3168  0131  01A4               	clrf	isr@i
  3169  0132  01A5               	clrf	isr@i+1
  3170  0133  3000               	movlw	0
  3171  0134  0225               	subwf	isr@i+1,w
  3172  0135  3009               	movlw	9
  3173  0136  1903               	skipnz
  3174  0137  0224               	subwf	isr@i,w
  3175  0138  1803               	btfsc	3,0
  3176  0139  2958               	goto	i1l471
  3177  013A                     i1l3375:	
  3178                           
  3179                           ;auto_washing_machine.c: 851: {
  3180                           ;auto_washing_machine.c: 852: rev_cw();
  3181  013A  120A  118A  26D0  120A  118A  	fcall	_rev_cw
  3182  013F  0064               	clrwdt	;# 
  3183                           
  3184                           ;auto_washing_machine.c: 854: _delay((unsigned long)((50)*(4000000/4000.0)));
  3185  0140  3041               	movlw	65
  3186  0141  00F7               	movwf	??_isr+1
  3187  0142  30EE               	movlw	238
  3188  0143  00F6               	movwf	??_isr
  3189  0144                     u511_27:	
  3190  0144  0BF6               	decfsz	??_isr,f
  3191  0145  2944               	goto	u511_27
  3192  0146  0BF7               	decfsz	??_isr+1,f
  3193  0147  2944               	goto	u511_27
  3194  0148  0000               	nop
  3195  0149  3001               	movlw	1
  3196  014A  1283               	bcf	3,5	;RP0=0, select bank0
  3197  014B  1303               	bcf	3,6	;RP1=0, select bank0
  3198  014C  07A4               	addwf	isr@i,f
  3199  014D  1803               	skipnc
  3200  014E  0AA5               	incf	isr@i+1,f
  3201  014F  3000               	movlw	0
  3202  0150  07A5               	addwf	isr@i+1,f
  3203  0151  3000               	movlw	0
  3204  0152  0225               	subwf	isr@i+1,w
  3205  0153  3009               	movlw	9
  3206  0154  1903               	skipnz
  3207  0155  0224               	subwf	isr@i,w
  3208  0156  1C03               	skipc
  3209  0157  293A               	goto	i1l3375
  3210  0158                     i1l471:	
  3211                           
  3212                           ;auto_washing_machine.c: 855: }
  3213                           ;auto_washing_machine.c: 856: sol_is_on = 0b1;
  3214  0158  16B0               	bsf	_sol_is_on/(0+8),_sol_is_on& (0+7)
  3215                           
  3216                           ;auto_washing_machine.c: 857: }
  3217  0159  2969               	goto	i1l3395
  3218  015A                     i1l469:	
  3219                           
  3220                           ;auto_washing_machine.c: 858: else if(!sol1_on && !sol2_on && !sol3_on && sol_is_on)
  3221  015A  1D30               	btfss	_sol1_on/(0+8),_sol1_on& (0+7)	;volatile
  3222  015B  19B0               	btfsc	_sol2_on/(0+8),_sol2_on& (0+7)	;volatile
  3223  015C  2969               	goto	i1l3395
  3224  015D  1E30               	btfss	_sol3_on/(0+8),_sol3_on& (0+7)	;volatile
  3225  015E  1EB0               	btfss	_sol_is_on/(0+8),_sol_is_on& (0+7)
  3226  015F  2969               	goto	i1l3395
  3227                           
  3228                           ;auto_washing_machine.c: 859: {
  3229                           ;auto_washing_machine.c: 860: RD3 = !0b1;
  3230  0160  1188               	bcf	8,3	;volatile
  3231                           
  3232                           ;auto_washing_machine.c: 861: mot_off();
  3233  0161  120A  118A  2708  120A  118A  	fcall	_mot_off
  3234                           
  3235                           ;auto_washing_machine.c: 862: sol_is_on = 0b0;
  3236  0166  1283               	bcf	3,5	;RP0=0, select bank0
  3237  0167  1303               	bcf	3,6	;RP1=0, select bank0
  3238  0168  12B0               	bcf	_sol_is_on/(0+8),_sol_is_on& (0+7)
  3239  0169                     i1l3395:	
  3240                           
  3241                           ;auto_washing_machine.c: 863: }
  3242                           ;auto_washing_machine.c: 864: TMR2IF = 0b0;
  3243  0169  108C               	bcf	12,1	;volatile
  3244  016A                     i1l3397:	
  3245                           
  3246                           ;auto_washing_machine.c: 865: }
  3247                           ;auto_washing_machine.c: 867: if(INTF)
  3248  016A  1C8B               	btfss	11,1	;volatile
  3249  016B  29D1               	goto	i1l474
  3250                           
  3251                           ;auto_washing_machine.c: 868: {
  3252                           ;auto_washing_machine.c: 869: _delay((unsigned long)((150)*(4000000/4000.0)));
  3253  016C  30C3               	movlw	195
  3254  016D  00F7               	movwf	??_isr+1
  3255  016E  30CD               	movlw	205
  3256  016F  00F6               	movwf	??_isr
  3257  0170                     u512_27:	
  3258  0170  0BF6               	decfsz	??_isr,f
  3259  0171  2970               	goto	u512_27
  3260  0172  0BF7               	decfsz	??_isr+1,f
  3261  0173  2970               	goto	u512_27
  3262                           
  3263                           ;auto_washing_machine.c: 871: if(BEGINNING == cur_state)
  3264  0174  30FE               	movlw	254
  3265  0175  1283               	bcf	3,5	;RP0=0, select bank0
  3266  0176  1303               	bcf	3,6	;RP1=0, select bank0
  3267  0177  0631               	xorwf	_cur_state,w
  3268  0178  1D03               	btfss	3,2
  3269  0179  2992               	goto	i1l3417
  3270                           
  3271                           ;auto_washing_machine.c: 872: {
  3272                           ;auto_washing_machine.c: 873: RD2 = 0b1;
  3273  017A  1508               	bsf	8,2	;volatile
  3274                           
  3275                           ;auto_washing_machine.c: 874: _delay((unsigned long)((12)*(4000000/4000.0)));
  3276  017B  3010               	movlw	16
  3277  017C  00F7               	movwf	??_isr+1
  3278  017D  3094               	movlw	148
  3279  017E  00F6               	movwf	??_isr
  3280  017F                     u513_27:	
  3281  017F  0BF6               	decfsz	??_isr,f
  3282  0180  297F               	goto	u513_27
  3283  0181  0BF7               	decfsz	??_isr+1,f
  3284  0182  297F               	goto	u513_27
  3285  0183  0000               	nop
  3286                           
  3287                           ;auto_washing_machine.c: 876: if(0b1 == RE0)
  3288  0184  1283               	bcf	3,5	;RP0=0, select bank0
  3289  0185  1303               	bcf	3,6	;RP1=0, select bank0
  3290  0186  1C09               	btfss	9,0	;volatile
  3291  0187  2990               	goto	i1l476
  3292                           
  3293                           ;auto_washing_machine.c: 877: {
  3294                           ;auto_washing_machine.c: 878: cur_state = skip_end;
  3295  0188  082B               	movf	_skip_end,w
  3296  0189  00F6               	movwf	??_isr
  3297  018A  0876               	movf	??_isr,w
  3298  018B  00B1               	movwf	_cur_state
  3299                           
  3300                           ;auto_washing_machine.c: 879: TMR1ON = 0b1;
  3301  018C  1410               	bsf	16,0	;volatile
  3302                           
  3303                           ;auto_washing_machine.c: 880: TMR2ON = 0b1;
  3304  018D  1512               	bsf	18,2	;volatile
  3305                           
  3306                           ;auto_washing_machine.c: 881: RD4 = !0b1;
  3307  018E  1208               	bcf	8,4	;volatile
  3308                           
  3309                           ;auto_washing_machine.c: 882: }
  3310  018F  29A0               	goto	i1l3423
  3311  0190                     i1l476:	
  3312                           
  3313                           ;auto_washing_machine.c: 883: else
  3314                           ;auto_washing_machine.c: 884: {
  3315                           ;auto_washing_machine.c: 885: RD4 = 0b1;
  3316  0190  1608               	bsf	8,4	;volatile
  3317                           
  3318                           ;auto_washing_machine.c: 886: }
  3319                           ;auto_washing_machine.c: 887: }
  3320  0191  29A0               	goto	i1l3423
  3321  0192                     i1l3417:	
  3322                           
  3323                           ;auto_washing_machine.c: 888: else if(SUSPENSION == cur_state)
  3324  0192  0A31               	incf	_cur_state,w
  3325  0193  1D03               	btfss	3,2
  3326  0194  299B               	goto	i1l3421
  3327                           
  3328                           ;auto_washing_machine.c: 889: resume();
  3329  0195  120A  118A  2405  120A  118A  	fcall	_resume
  3330  019A  29A0               	goto	i1l3423
  3331  019B                     i1l3421:	
  3332                           
  3333                           ;auto_washing_machine.c: 890: else
  3334                           ;auto_washing_machine.c: 891: suspend();
  3335  019B  120A  118A  26B4  120A  118A  	fcall	_suspend
  3336  01A0                     i1l3423:	
  3337                           
  3338                           ;auto_washing_machine.c: 894: ticks = 0;
  3339  01A0  3000               	movlw	0
  3340  01A1  1283               	bcf	3,5	;RP0=0, select bank0
  3341  01A2  1303               	bcf	3,6	;RP1=0, select bank0
  3342  01A3  00A3               	movwf	isr@ticks+3
  3343  01A4  3000               	movlw	0
  3344  01A5  00A2               	movwf	isr@ticks+2
  3345  01A6  3000               	movlw	0
  3346  01A7  00A1               	movwf	isr@ticks+1
  3347  01A8  3000               	movlw	0
  3348  01A9  00A0               	movwf	isr@ticks
  3349  01AA                     i1l481:	
  3350                           ;auto_washing_machine.c: 895: while(0b0 == RB0)
  3351                           
  3352  01AA  1806               	btfsc	6,0	;volatile
  3353  01AB  29D0               	goto	i1l484
  3354  01AC  0064               	clrwdt	;# 
  3355                           
  3356                           ;auto_washing_machine.c: 898: ticks++;
  3357  01AD  3001               	movlw	1
  3358  01AE  1283               	bcf	3,5	;RP0=0, select bank0
  3359  01AF  1303               	bcf	3,6	;RP1=0, select bank0
  3360  01B0  07A0               	addwf	isr@ticks,f
  3361  01B1  3000               	movlw	0
  3362  01B2  1803               	skipnc
  3363  01B3  3001               	movlw	1
  3364  01B4  07A1               	addwf	isr@ticks+1,f
  3365  01B5  3000               	movlw	0
  3366  01B6  1803               	skipnc
  3367  01B7  3001               	movlw	1
  3368  01B8  07A2               	addwf	isr@ticks+2,f
  3369  01B9  3000               	movlw	0
  3370  01BA  1803               	skipnc
  3371  01BB  3001               	movlw	1
  3372  01BC  07A3               	addwf	isr@ticks+3,f
  3373                           
  3374                           ;auto_washing_machine.c: 899: if(ticks >= ((((unsigned long)1 * (unsigned long)4000000) 
      +                          / 4ul) / 4ul))
  3375  01BD  0823               	movf	isr@ticks+3,w
  3376  01BE  1D03               	btfss	3,2
  3377  01BF  29CE               	goto	i1l3429
  3378  01C0  3003               	movlw	3
  3379  01C1  0222               	subwf	isr@ticks+2,w
  3380  01C2  1D03               	skipz
  3381  01C3  29CC               	goto	u486_23
  3382  01C4  30D0               	movlw	208
  3383  01C5  0221               	subwf	isr@ticks+1,w
  3384  01C6  1D03               	skipz
  3385  01C7  29CC               	goto	u486_23
  3386  01C8  3090               	movlw	144
  3387  01C9  0220               	subwf	isr@ticks,w
  3388  01CA  1D03               	skipz
  3389  01CB  29CC               	goto	u486_23
  3390  01CC                     u486_23:	
  3391  01CC  1C03               	btfss	3,0
  3392  01CD  29AA               	goto	i1l481
  3393  01CE                     i1l3429:	
  3394                           
  3395                           ;auto_washing_machine.c: 900: {
  3396                           ;auto_washing_machine.c: 901: RA0 = 0b1;
  3397  01CE  1405               	bsf	5,0	;volatile
  3398  01CF  29AA               	goto	i1l481
  3399  01D0                     i1l484:	
  3400                           
  3401                           ;auto_washing_machine.c: 902: }
  3402                           ;auto_washing_machine.c: 903: }
  3403                           ;auto_washing_machine.c: 904: INTF = 0b0;
  3404  01D0  108B               	bcf	11,1	;volatile
  3405  01D1                     i1l474:	
  3406                           
  3407                           ;auto_washing_machine.c: 905: }
  3408                           ;auto_washing_machine.c: 907: if(RBIF)
  3409  01D1  1C0B               	btfss	11,0	;volatile
  3410  01D2  2A87               	goto	i1l451
  3411                           
  3412                           ;auto_washing_machine.c: 908: {
  3413                           ;auto_washing_machine.c: 909: _delay((unsigned long)((150)*(4000000/4000.0)));
  3414  01D3  30C3               	movlw	195
  3415  01D4  00F7               	movwf	??_isr+1
  3416  01D5  30CD               	movlw	205
  3417  01D6  00F6               	movwf	??_isr
  3418  01D7                     u514_27:	
  3419  01D7  0BF6               	decfsz	??_isr,f
  3420  01D8  29D7               	goto	u514_27
  3421  01D9  0BF7               	decfsz	??_isr+1,f
  3422  01DA  29D7               	goto	u514_27
  3423                           
  3424                           ;auto_washing_machine.c: 911: if(0b0 == RB5)
  3425  01DB  1283               	bcf	3,5	;RP0=0, select bank0
  3426  01DC  1303               	bcf	3,6	;RP1=0, select bank0
  3427  01DD  1E86               	btfss	6,5	;volatile
  3428  01DE  29E1               	goto	i1l487
  3429  01DF  29EC               	goto	i1l486
  3430  01E0                     i1l488:	
  3431                           ;auto_washing_machine.c: 912: {
  3432                           ;auto_washing_machine.c: 914: while(0b0 == RB5)
  3433                           
  3434  01E0  0064               	clrwdt	;# 
  3435  01E1                     i1l487:	
  3436  01E1  1283               	bcf	3,5	;RP0=0, select bank0
  3437  01E2  1303               	bcf	3,6	;RP1=0, select bank0
  3438  01E3  1E86               	btfss	6,5	;volatile
  3439  01E4  29E0               	goto	i1l488
  3440                           
  3441                           ;auto_washing_machine.c: 918: if(0b1 == no_spin)
  3442  01E5  1CB0               	btfss	_no_spin/(0+8),_no_spin& (0+7)	;volatile
  3443  01E6  29EA               	goto	i1l490
  3444                           
  3445                           ;auto_washing_machine.c: 919: {
  3446                           ;auto_washing_machine.c: 920: no_spin = 0b0;
  3447  01E7  10B0               	bcf	_no_spin/(0+8),_no_spin& (0+7)	;volatile
  3448                           
  3449                           ;auto_washing_machine.c: 921: RD5 = !0b1;
  3450  01E8  1288               	bcf	8,5	;volatile
  3451                           
  3452                           ;auto_washing_machine.c: 922: }
  3453  01E9  29EC               	goto	i1l486
  3454  01EA                     i1l490:	
  3455                           
  3456                           ;auto_washing_machine.c: 923: else
  3457                           ;auto_washing_machine.c: 924: {
  3458                           ;auto_washing_machine.c: 925: no_spin = 0b1;
  3459  01EA  14B0               	bsf	_no_spin/(0+8),_no_spin& (0+7)	;volatile
  3460                           
  3461                           ;auto_washing_machine.c: 926: RD5 = 0b1;
  3462  01EB  1688               	bsf	8,5	;volatile
  3463  01EC                     i1l486:	
  3464                           
  3465                           ;auto_washing_machine.c: 927: }
  3466                           ;auto_washing_machine.c: 928: }
  3467                           ;auto_washing_machine.c: 930: if(0b0 == RB4)
  3468  01EC  1E06               	btfss	6,4	;volatile
  3469  01ED  29F0               	goto	i1l493
  3470  01EE  29FB               	goto	i1l492
  3471  01EF                     i1l494:	
  3472                           ;auto_washing_machine.c: 931: {
  3473                           ;auto_washing_machine.c: 933: while(0b0 == RB4)
  3474                           
  3475  01EF  0064               	clrwdt	;# 
  3476  01F0                     i1l493:	
  3477  01F0  1283               	bcf	3,5	;RP0=0, select bank0
  3478  01F1  1303               	bcf	3,6	;RP1=0, select bank0
  3479  01F2  1E06               	btfss	6,4	;volatile
  3480  01F3  29EF               	goto	i1l494
  3481                           
  3482                           ;auto_washing_machine.c: 935: half_load = !half_load;
  3483  01F4  3004               	movlw	(0+1) shl (_half_load& (0+7))
  3484  01F5  06FD               	xorwf	_half_load/(0+8),f
  3485                           
  3486                           ;auto_washing_machine.c: 937: if(0b1 == half_load)
  3487  01F6  1D7D               	btfss	_half_load/(0+8),_half_load& (0+7)	;volatile
  3488  01F7  29FA               	goto	i1l496
  3489                           
  3490                           ;auto_washing_machine.c: 938: RD6 = 0b1;
  3491  01F8  1708               	bsf	8,6	;volatile
  3492  01F9  29FB               	goto	i1l492
  3493  01FA                     i1l496:	
  3494                           
  3495                           ;auto_washing_machine.c: 939: else
  3496                           ;auto_washing_machine.c: 940: RD6 = !0b1;
  3497  01FA  1308               	bcf	8,6	;volatile
  3498  01FB                     i1l492:	
  3499                           
  3500                           ;auto_washing_machine.c: 941: }
  3501                           ;auto_washing_machine.c: 943: if(0b0 == RB7)
  3502  01FB  1F86               	btfss	6,7	;volatile
  3503  01FC  29FF               	goto	i1l499
  3504  01FD  2A70               	goto	i1l3465
  3505  01FE                     i1l500:	
  3506                           ;auto_washing_machine.c: 944: {
  3507                           ;auto_washing_machine.c: 946: while(0b0 == RB7)
  3508                           
  3509  01FE  0064               	clrwdt	;# 
  3510  01FF                     i1l499:	
  3511  01FF  1283               	bcf	3,5	;RP0=0, select bank0
  3512  0200  1303               	bcf	3,6	;RP1=0, select bank0
  3513  0201  1F86               	btfss	6,7	;volatile
  3514  0202  29FE               	goto	i1l500
  3515                           
  3516                           ;auto_washing_machine.c: 950: if(BEGINNING == cur_state)
  3517  0203  30FE               	movlw	254
  3518  0204  0631               	xorwf	_cur_state,w
  3519  0205  1D03               	btfss	3,2
  3520  0206  2A29               	goto	i1l3455
  3521                           
  3522                           ;auto_washing_machine.c: 951: {
  3523                           ;auto_washing_machine.c: 952: skip_end = ((unsigned char)skip_end + 1u) % 14u;
  3524  0207  300E               	movlw	14
  3525  0208  00F0               	movwf	___lwmod@divisor
  3526  0209  3000               	movlw	0
  3527  020A  00F1               	movwf	___lwmod@divisor+1
  3528  020B  082B               	movf	_skip_end,w
  3529  020C  3E01               	addlw	1
  3530  020D  00F2               	movwf	___lwmod@dividend
  3531  020E  3000               	movlw	0
  3532  020F  1803               	skipnc
  3533  0210  3001               	movlw	1
  3534  0211  00F3               	movwf	___lwmod@dividend+1
  3535  0212  120A  118A  2655  120A  118A  	fcall	___lwmod
  3536  0217  0870               	movf	?___lwmod,w
  3537  0218  00F6               	movwf	??_isr
  3538  0219  0876               	movf	??_isr,w
  3539  021A  1283               	bcf	3,5	;RP0=0, select bank0
  3540  021B  1303               	bcf	3,6	;RP1=0, select bank0
  3541  021C  00AB               	movwf	_skip_end
  3542                           
  3543                           ;auto_washing_machine.c: 953: (PORTC = ((unsigned char)(unsigned char)skip_end << 4) | (
      +                          PORTC & 0x0F));
  3544  021D  300F               	movlw	15
  3545  021E  0507               	andwf	7,w	;volatile
  3546  021F  00F6               	movwf	??_isr
  3547  0220  082B               	movf	_skip_end,w
  3548  0221  00F7               	movwf	??_isr+1
  3549  0222  3003               	movlw	3
  3550  0223                     u498_25:	
  3551  0223  1003               	clrc
  3552  0224  0DF7               	rlf	??_isr+1,f
  3553  0225  3EFF               	addlw	-1
  3554  0226  1D03               	skipz
  3555  0227  2A23               	goto	u498_25
  3556  0228  2A6C               	goto	L7
  3557  0229                     i1l3455:	
  3558                           ;auto_washing_machine.c: 954: }
  3559                           
  3560                           
  3561                           ;auto_washing_machine.c: 957: else if(SUSPENSION == cur_state)
  3562  0229  0A31               	incf	_cur_state,w
  3563  022A  1D03               	btfss	3,2
  3564  022B  2A70               	goto	i1l3465
  3565                           
  3566                           ;auto_washing_machine.c: 958: {
  3567                           ;auto_washing_machine.c: 959: if(prev_state < 7u)
  3568  022C  0832               	movf	_prev_state,w
  3569  022D  00F6               	movwf	??_isr
  3570  022E  01F7               	clrf	??_isr+1
  3571  022F  1BF6               	btfsc	??_isr,7
  3572  0230  03F7               	decf	??_isr+1,f
  3573  0231  3000               	movlw	0
  3574  0232  0277               	subwf	??_isr+1,w
  3575  0233  3007               	movlw	7
  3576  0234  1903               	skipnz
  3577  0235  0276               	subwf	??_isr,w
  3578  0236  1803               	skipnc
  3579  0237  2A4A               	goto	i1l3461
  3580                           
  3581                           ;auto_washing_machine.c: 960: temp = ((unsigned char)temp + 1u) % 7u;
  3582  0238  3007               	movlw	7
  3583  0239  00F0               	movwf	___lwmod@divisor
  3584  023A  3000               	movlw	0
  3585  023B  00F1               	movwf	___lwmod@divisor+1
  3586  023C  082D               	movf	_temp,w
  3587  023D  3E01               	addlw	1
  3588  023E  00F2               	movwf	___lwmod@dividend
  3589  023F  3000               	movlw	0
  3590  0240  1803               	skipnc
  3591  0241  3001               	movlw	1
  3592  0242  00F3               	movwf	___lwmod@dividend+1
  3593  0243  120A  118A  2655  120A  118A  	fcall	___lwmod
  3594  0248  0870               	movf	?___lwmod,w
  3595  0249  2A5C               	goto	L8
  3596  024A                     i1l3461:	
  3597                           
  3598                           ;auto_washing_machine.c: 961: else
  3599                           ;auto_washing_machine.c: 962: temp = (((unsigned char)temp + 1u) % (14u - 7u)) + 7u;
  3600  024A  3007               	movlw	7
  3601  024B  00F0               	movwf	___lwmod@divisor
  3602  024C  3000               	movlw	0
  3603  024D  00F1               	movwf	___lwmod@divisor+1
  3604  024E  082D               	movf	_temp,w
  3605  024F  3E01               	addlw	1
  3606  0250  00F2               	movwf	___lwmod@dividend
  3607  0251  3000               	movlw	0
  3608  0252  1803               	skipnc
  3609  0253  3001               	movlw	1
  3610  0254  00F3               	movwf	___lwmod@dividend+1
  3611  0255  120A  118A  2655  120A  118A  	fcall	___lwmod
  3612  025A  0870               	movf	?___lwmod,w
  3613  025B  3E07               	addlw	7
  3614  025C                     L8:	
  3615  025C  00F6               	movwf	??_isr
  3616  025D  0876               	movf	??_isr,w
  3617  025E  1283               	bcf	3,5	;RP0=0, select bank0
  3618  025F  1303               	bcf	3,6	;RP1=0, select bank0
  3619  0260  00AD               	movwf	_temp
  3620                           
  3621                           ;auto_washing_machine.c: 963: (PORTC = ((unsigned char)(unsigned short)temp << 4) | (POR
      +                          TC & 0x0F));
  3622  0261  300F               	movlw	15
  3623  0262  0507               	andwf	7,w	;volatile
  3624  0263  00F6               	movwf	??_isr
  3625  0264  082D               	movf	_temp,w
  3626  0265  00F7               	movwf	??_isr+1
  3627  0266  3003               	movlw	3
  3628  0267                     u501_25:	
  3629  0267  1003               	clrc
  3630  0268  0DF7               	rlf	??_isr+1,f
  3631  0269  3EFF               	addlw	-1
  3632  026A  1D03               	skipz
  3633  026B  2A67               	goto	u501_25
  3634  026C                     L7:	
  3635  026C  1003               	clrc
  3636  026D  0D77               	rlf	??_isr+1,w
  3637  026E  0476               	iorwf	??_isr,w
  3638  026F  0087               	movwf	7	;volatile
  3639  0270                     i1l3465:	
  3640                           
  3641                           ;auto_washing_machine.c: 964: }
  3642                           ;auto_washing_machine.c: 965: }
  3643                           ;auto_washing_machine.c: 967: if(0b0 == RB6)
  3644  0270  1F06               	btfss	6,6	;volatile
  3645  0271  2A74               	goto	i1l508
  3646  0272  2A86               	goto	i1l3475
  3647  0273                     i1l509:	
  3648                           ;auto_washing_machine.c: 968: {
  3649                           ;auto_washing_machine.c: 970: while(0b0 == RB6)
  3650                           
  3651  0273  0064               	clrwdt	;# 
  3652  0274                     i1l508:	
  3653  0274  1283               	bcf	3,5	;RP0=0, select bank0
  3654  0275  1303               	bcf	3,6	;RP1=0, select bank0
  3655  0276  1F06               	btfss	6,6	;volatile
  3656  0277  2A73               	goto	i1l509
  3657                           
  3658                           ;auto_washing_machine.c: 974: if(BEGINNING == cur_state || SUSPENSION == cur_state)
  3659  0278  30FE               	movlw	254
  3660  0279  0631               	xorwf	_cur_state,w
  3661  027A  1D03               	btfss	3,2
  3662  027B  0A31               	incf	_cur_state,w
  3663  027C  1D03               	btfss	3,2
  3664  027D  2A86               	goto	i1l3475
  3665                           
  3666                           ;auto_washing_machine.c: 975: {
  3667                           ;auto_washing_machine.c: 976: temp_beg = temp_end;
  3668  027E  082F               	movf	_temp_end,w
  3669  027F  00F6               	movwf	??_isr
  3670  0280  0876               	movf	??_isr,w
  3671  0281  00AE               	movwf	_temp_beg
  3672                           
  3673                           ;auto_washing_machine.c: 977: temp_end = temp;
  3674  0282  082D               	movf	_temp,w
  3675  0283  00F6               	movwf	??_isr
  3676  0284  0876               	movf	??_isr,w
  3677  0285  00AF               	movwf	_temp_end
  3678  0286                     i1l3475:	
  3679                           
  3680                           ;auto_washing_machine.c: 978: }
  3681                           ;auto_washing_machine.c: 979: }
  3682                           ;auto_washing_machine.c: 980: RBIF = 0b0;
  3683  0286  100B               	bcf	11,0	;volatile
  3684  0287                     i1l451:	
  3685  0287  087C               	movf	??_isr+6,w
  3686  0288  1283               	bcf	3,5	;RP0=0, select bank0
  3687  0289  1303               	bcf	3,6	;RP1=0, select bank0
  3688  028A  00FF               	movwf	127
  3689  028B  087B               	movf	??_isr+5,w
  3690  028C  008A               	movwf	10
  3691  028D  087A               	movf	??_isr+4,w
  3692  028E  0084               	movwf	4
  3693  028F  0E79               	swapf	(??_isr+3)^(0+-128),w
  3694  0290  0083               	movwf	3
  3695  0291  0EFE               	swapf	126,f
  3696  0292  0E7E               	swapf	126,w
  3697  0293  0009               	retfie
  3698  0294                     __end_of_isr:	
  3699                           
  3700                           	psect	intentry
  3701  0004                     __pintentry:	
  3702                           ;incstack = 0
  3703                           ; Regs used in _isr: [wreg-fsr0h+status,2+status,0+pclath+cstack]
  3704                           
  3705  0004                     interrupt_function:	
  3706  007E                     saved_w	set	btemp
  3707  0004  00FE               	movwf	btemp
  3708  0005  0E03               	swapf	3,w
  3709  0006  00F9               	movwf	??_isr+3
  3710  0007  0804               	movf	4,w
  3711  0008  00FA               	movwf	??_isr+4
  3712  0009  080A               	movf	10,w
  3713  000A  00FB               	movwf	??_isr+5
  3714  000B  1283               	bcf	3,5	;RP0=0, select bank0
  3715  000C  1303               	bcf	3,6	;RP1=0, select bank0
  3716  000D  087F               	movf	btemp+1,w
  3717  000E  00FC               	movwf	??_isr+6
  3718  000F  120A  118A  2822   	ljmp	_isr
  3719                           
  3720                           	psect	text18
  3721  06B4                     __ptext18:	
  3722 ;; *************** function _suspend *****************
  3723 ;; Defined at:
  3724 ;;		line 1027 in file "auto_washing_machine.c"
  3725 ;; Parameters:    Size  Location     Type
  3726 ;;		None
  3727 ;; Auto vars:     Size  Location     Type
  3728 ;;		None
  3729 ;; Return value:  Size  Location     Type
  3730 ;;                  1    wreg      void 
  3731 ;; Registers used:
  3732 ;;		wreg
  3733 ;; Tracked objects:
  3734 ;;		On entry : 0/0
  3735 ;;		On exit  : 0/0
  3736 ;;		Unchanged: 0/0
  3737 ;; Data sizes:     COMMON   BANK0   BANK1   BANK3   BANK2
  3738 ;;      Params:         0       0       0       0       0
  3739 ;;      Locals:         0       0       0       0       0
  3740 ;;      Temps:          1       0       0       0       0
  3741 ;;      Totals:         1       0       0       0       0
  3742 ;;Total ram usage:        1 bytes
  3743 ;; Hardware stack levels used:    1
  3744 ;; This function calls:
  3745 ;;		Nothing
  3746 ;; This function is called by:
  3747 ;;		_isr
  3748 ;; This function uses a non-reentrant model
  3749 ;;
  3750                           
  3751                           
  3752                           ;psect for function _suspend
  3753  06B4                     _suspend:	
  3754                           
  3755                           ;auto_washing_machine.c: 1029: TMR1ON = 0b0;
  3756                           
  3757                           ;incstack = 0
  3758                           ; Regs used in _suspend: [wreg]
  3759  06B4  1283               	bcf	3,5	;RP0=0, select bank0
  3760  06B5  1303               	bcf	3,6	;RP1=0, select bank0
  3761  06B6  1010               	bcf	16,0	;volatile
  3762                           
  3763                           ;auto_washing_machine.c: 1030: TMR2ON = 0b0;
  3764  06B7  1112               	bcf	18,2	;volatile
  3765                           
  3766                           ;auto_washing_machine.c: 1031: RC0 = !0b1;
  3767  06B8  1007               	bcf	7,0	;volatile
  3768                           
  3769                           ;auto_washing_machine.c: 1032: RD1 = !0b1;
  3770  06B9  1088               	bcf	8,1	;volatile
  3771                           
  3772                           ;auto_washing_machine.c: 1033: RD0 = !0b1;
  3773  06BA  1008               	bcf	8,0	;volatile
  3774                           
  3775                           ;auto_washing_machine.c: 1034: RD2 = !0b1;
  3776  06BB  1108               	bcf	8,2	;volatile
  3777                           
  3778                           ;auto_washing_machine.c: 1035: RD3 = !0b1;
  3779  06BC  1188               	bcf	8,3	;volatile
  3780                           
  3781                           ;auto_washing_machine.c: 1036: temp = cur_state;
  3782  06BD  0831               	movf	_cur_state,w
  3783  06BE  00F0               	movwf	??_suspend
  3784  06BF  0870               	movf	??_suspend,w
  3785  06C0  00AD               	movwf	_temp
  3786                           
  3787                           ;auto_washing_machine.c: 1037: prev_state = cur_state;
  3788  06C1  0831               	movf	_cur_state,w
  3789  06C2  00F0               	movwf	??_suspend
  3790  06C3  0870               	movf	??_suspend,w
  3791  06C4  00B2               	movwf	_prev_state
  3792                           
  3793                           ;auto_washing_machine.c: 1038: cur_state = SUSPENSION;
  3794  06C5  01B1               	clrf	_cur_state
  3795  06C6  03B1               	decf	_cur_state,f
  3796                           
  3797                           ;auto_washing_machine.c: 1039: temp_beg = BEGINNING;
  3798  06C7  30FE               	movlw	254
  3799  06C8  00F0               	movwf	??_suspend
  3800  06C9  0870               	movf	??_suspend,w
  3801  06CA  00AE               	movwf	_temp_beg
  3802                           
  3803                           ;auto_washing_machine.c: 1040: temp_end = BEGINNING;
  3804  06CB  30FE               	movlw	254
  3805  06CC  00F0               	movwf	??_suspend
  3806  06CD  0870               	movf	??_suspend,w
  3807  06CE  00AF               	movwf	_temp_end
  3808  06CF  0008               	return
  3809  06D0                     __end_of_suspend:	
  3810                           
  3811                           	psect	text19
  3812  06D0                     __ptext19:	
  3813 ;; *************** function _rev_cw *****************
  3814 ;; Defined at:
  3815 ;;		line 94 in file "steppr.c"
  3816 ;; Parameters:    Size  Location     Type
  3817 ;;		None
  3818 ;; Auto vars:     Size  Location     Type
  3819 ;;  i               2    2[COMMON] int 
  3820 ;; Return value:  Size  Location     Type
  3821 ;;                  1    wreg      void 
  3822 ;; Registers used:
  3823 ;;		wreg, fsr0l, fsr0h, status,2, status,0, pclath, cstack
  3824 ;; Tracked objects:
  3825 ;;		On entry : 0/0
  3826 ;;		On exit  : 0/0
  3827 ;;		Unchanged: 0/0
  3828 ;; Data sizes:     COMMON   BANK0   BANK1   BANK3   BANK2
  3829 ;;      Params:         0       0       0       0       0
  3830 ;;      Locals:         2       0       0       0       0
  3831 ;;      Temps:          0       0       0       0       0
  3832 ;;      Totals:         2       0       0       0       0
  3833 ;;Total ram usage:        2 bytes
  3834 ;; Hardware stack levels used:    1
  3835 ;; Hardware stack levels required when called:    2
  3836 ;; This function calls:
  3837 ;;		_step_cw
  3838 ;; This function is called by:
  3839 ;;		_isr
  3840 ;; This function uses a non-reentrant model
  3841 ;;
  3842                           
  3843                           
  3844                           ;psect for function _rev_cw
  3845  06D0                     _rev_cw:	
  3846                           
  3847                           ;steppr.c: 96: int i;
  3848                           ;steppr.c: 97: for(i = 0; i < 8u; i++)
  3849                           
  3850                           ;incstack = 0
  3851                           ; Regs used in _rev_cw: [wreg-fsr0h+status,2+status,0+pclath+cstack]
  3852  06D0  01F2               	clrf	rev_cw@i
  3853  06D1  01F3               	clrf	rev_cw@i+1
  3854  06D2                     L14:	
  3855  06D2  3000               	movlw	0
  3856  06D3  0273               	subwf	rev_cw@i+1,w
  3857  06D4  3008               	movlw	8
  3858  06D5  1903               	skipnz
  3859  06D6  0272               	subwf	rev_cw@i,w
  3860  06D7  1803               	btfsc	3,0
  3861  06D8  0008               	return
  3862                           
  3863                           ;steppr.c: 98: step_cw();
  3864  06D9  120A  118A  26F3  120A  118A  	fcall	_step_cw
  3865  06DE  3001               	movlw	1
  3866  06DF  07F2               	addwf	rev_cw@i,f
  3867  06E0  1803               	skipnc
  3868  06E1  0AF3               	incf	rev_cw@i+1,f
  3869  06E2  3000               	movlw	0
  3870  06E3  07F3               	addwf	rev_cw@i+1,f
  3871  06E4  2ED2               	goto	L14
  3872  06E5                     __end_of_rev_cw:	
  3873                           
  3874                           	psect	text20
  3875  06F3                     __ptext20:	
  3876 ;; *************** function _step_cw *****************
  3877 ;; Defined at:
  3878 ;;		line 77 in file "steppr.c"
  3879 ;; Parameters:    Size  Location     Type
  3880 ;;		None
  3881 ;; Auto vars:     Size  Location     Type
  3882 ;;		None
  3883 ;; Return value:  Size  Location     Type
  3884 ;;                  1    wreg      void 
  3885 ;; Registers used:
  3886 ;;		wreg, fsr0l, fsr0h, status,2, status,0, pclath, cstack
  3887 ;; Tracked objects:
  3888 ;;		On entry : 0/0
  3889 ;;		On exit  : 0/0
  3890 ;;		Unchanged: 0/0
  3891 ;; Data sizes:     COMMON   BANK0   BANK1   BANK3   BANK2
  3892 ;;      Params:         0       0       0       0       0
  3893 ;;      Locals:         0       0       0       0       0
  3894 ;;      Temps:          1       0       0       0       0
  3895 ;;      Totals:         1       0       0       0       0
  3896 ;;Total ram usage:        1 bytes
  3897 ;; Hardware stack levels used:    1
  3898 ;; Hardware stack levels required when called:    1
  3899 ;; This function calls:
  3900 ;;		_step
  3901 ;; This function is called by:
  3902 ;;		_rev_cw
  3903 ;; This function uses a non-reentrant model
  3904 ;;
  3905                           
  3906                           
  3907                           ;psect for function _step_cw
  3908  06F3                     _step_cw:	
  3909                           
  3910                           ;steppr.c: 79: cur_step = (cur_step + 1) % 8u;
  3911                           
  3912                           ;incstack = 0
  3913                           ; Regs used in _step_cw: [wreg-fsr0h+status,2+status,0+pclath+cstack]
  3914  06F3  1283               	bcf	3,5	;RP0=0, select bank0
  3915  06F4  1303               	bcf	3,6	;RP1=0, select bank0
  3916  06F5  0826               	movf	_cur_step,w
  3917  06F6  3E01               	addlw	1
  3918  06F7  3907               	andlw	7
  3919  06F8  00F1               	movwf	??_step_cw
  3920  06F9  0871               	movf	??_step_cw,w
  3921  06FA  00A6               	movwf	_cur_step
  3922                           
  3923                           ;steppr.c: 80: step(cur_step);
  3924  06FB  0826               	movf	_cur_step,w
  3925  06FC  120A  118A  2472   	fcall	_step
  3926  06FF  0008               	return
  3927  0700                     __end_of_step_cw:	
  3928                           
  3929                           	psect	text21
  3930  0472                     __ptext21:	
  3931 ;; *************** function _step *****************
  3932 ;; Defined at:
  3933 ;;		line 16 in file "steppr.c"
  3934 ;; Parameters:    Size  Location     Type
  3935 ;;  step_num        1    wreg     unsigned char 
  3936 ;; Auto vars:     Size  Location     Type
  3937 ;;  step_num        1    0[COMMON] unsigned char 
  3938 ;; Return value:  Size  Location     Type
  3939 ;;                  1    wreg      void 
  3940 ;; Registers used:
  3941 ;;		wreg, fsr0l, fsr0h, status,2, status,0
  3942 ;; Tracked objects:
  3943 ;;		On entry : 0/0
  3944 ;;		On exit  : 0/0
  3945 ;;		Unchanged: 0/0
  3946 ;; Data sizes:     COMMON   BANK0   BANK1   BANK3   BANK2
  3947 ;;      Params:         0       0       0       0       0
  3948 ;;      Locals:         1       0       0       0       0
  3949 ;;      Temps:          0       0       0       0       0
  3950 ;;      Totals:         1       0       0       0       0
  3951 ;;Total ram usage:        1 bytes
  3952 ;; Hardware stack levels used:    1
  3953 ;; This function calls:
  3954 ;;		Nothing
  3955 ;; This function is called by:
  3956 ;;		_step_cw
  3957 ;;		_step_ccw
  3958 ;; This function uses a non-reentrant model
  3959 ;;
  3960                           
  3961                           
  3962                           ;psect for function _step
  3963  0472                     _step:	
  3964                           
  3965                           ;incstack = 0
  3966                           ; Regs used in _step: [wreg-fsr0h+status,2+status,0]
  3967                           ;step@step_num stored from wreg
  3968  0472  00F0               	movwf	step@step_num
  3969                           
  3970                           ;steppr.c: 18: switch(step_num)
  3971  0473  2CB3               	goto	i1l2673
  3972  0474                     i1l544:	
  3973                           ;steppr.c: 19: {
  3974                           ;steppr.c: 20: case 0:
  3975                           
  3976                           
  3977                           ;steppr.c: 21: RA2 = !0b1;
  3978  0474  1283               	bcf	3,5	;RP0=0, select bank0
  3979  0475  1303               	bcf	3,6	;RP1=0, select bank0
  3980  0476  1105               	bcf	5,2	;volatile
  3981                           
  3982                           ;steppr.c: 22: RA3 = !0b1;
  3983  0477  1185               	bcf	5,3	;volatile
  3984                           
  3985                           ;steppr.c: 23: RA1 = 0b1;
  3986  0478  1485               	bsf	5,1	;volatile
  3987                           
  3988                           ;steppr.c: 24: RA5 = !0b1;
  3989  0479  1285               	bcf	5,5	;volatile
  3990                           
  3991                           ;steppr.c: 25: break;
  3992  047A  0008               	return
  3993  047B                     i1l546:	
  3994                           ;steppr.c: 26: case 1:
  3995                           
  3996                           
  3997                           ;steppr.c: 27: RA3 = !0b1;
  3998  047B  1283               	bcf	3,5	;RP0=0, select bank0
  3999  047C  1303               	bcf	3,6	;RP1=0, select bank0
  4000  047D  1185               	bcf	5,3	;volatile
  4001                           
  4002                           ;steppr.c: 28: RA5 = !0b1;
  4003  047E  1285               	bcf	5,5	;volatile
  4004                           
  4005                           ;steppr.c: 29: RA1 = 0b1;
  4006  047F  1485               	bsf	5,1	;volatile
  4007                           
  4008                           ;steppr.c: 30: RA2 = 0b1;
  4009  0480  1505               	bsf	5,2	;volatile
  4010                           
  4011                           ;steppr.c: 31: break;
  4012  0481  0008               	return
  4013  0482                     i1l547:	
  4014                           ;steppr.c: 32: case 2:
  4015                           
  4016                           
  4017                           ;steppr.c: 33: RA3 = !0b1;
  4018  0482  1283               	bcf	3,5	;RP0=0, select bank0
  4019  0483  1303               	bcf	3,6	;RP1=0, select bank0
  4020  0484  1185               	bcf	5,3	;volatile
  4021                           
  4022                           ;steppr.c: 34: RA5 = !0b1;
  4023  0485  1285               	bcf	5,5	;volatile
  4024                           
  4025                           ;steppr.c: 35: RA2 = 0b1;
  4026  0486  1505               	bsf	5,2	;volatile
  4027                           
  4028                           ;steppr.c: 36: RA1 = !0b1;
  4029  0487  1085               	bcf	5,1	;volatile
  4030                           
  4031                           ;steppr.c: 37: break;
  4032  0488  0008               	return
  4033  0489                     i1l548:	
  4034                           ;steppr.c: 38: case 3:
  4035                           
  4036                           
  4037                           ;steppr.c: 39: RA1 = !0b1;
  4038  0489  1283               	bcf	3,5	;RP0=0, select bank0
  4039  048A  1303               	bcf	3,6	;RP1=0, select bank0
  4040  048B  1085               	bcf	5,1	;volatile
  4041                           
  4042                           ;steppr.c: 40: RA5 = !0b1;
  4043  048C  1285               	bcf	5,5	;volatile
  4044                           
  4045                           ;steppr.c: 41: RA2 = 0b1;
  4046  048D  1505               	bsf	5,2	;volatile
  4047                           
  4048                           ;steppr.c: 42: RA3 = 0b1;
  4049  048E  1585               	bsf	5,3	;volatile
  4050                           
  4051                           ;steppr.c: 43: break;
  4052  048F  0008               	return
  4053  0490                     i1l549:	
  4054                           ;steppr.c: 44: case 4:
  4055                           
  4056                           
  4057                           ;steppr.c: 45: RA1 = !0b1;
  4058  0490  1283               	bcf	3,5	;RP0=0, select bank0
  4059  0491  1303               	bcf	3,6	;RP1=0, select bank0
  4060  0492  1085               	bcf	5,1	;volatile
  4061                           
  4062                           ;steppr.c: 46: RA5 = !0b1;
  4063  0493  1285               	bcf	5,5	;volatile
  4064                           
  4065                           ;steppr.c: 47: RA3 = 0b1;
  4066  0494  1585               	bsf	5,3	;volatile
  4067                           
  4068                           ;steppr.c: 48: RA2 = !0b1;
  4069  0495  1105               	bcf	5,2	;volatile
  4070                           
  4071                           ;steppr.c: 49: break;
  4072  0496  0008               	return
  4073  0497                     i1l550:	
  4074                           ;steppr.c: 50: case 5:
  4075                           
  4076                           
  4077                           ;steppr.c: 51: RA1 = !0b1;
  4078  0497  1283               	bcf	3,5	;RP0=0, select bank0
  4079  0498  1303               	bcf	3,6	;RP1=0, select bank0
  4080  0499  1085               	bcf	5,1	;volatile
  4081                           
  4082                           ;steppr.c: 52: RA2 = !0b1;
  4083  049A  1105               	bcf	5,2	;volatile
  4084                           
  4085                           ;steppr.c: 53: RA3 = 0b1;
  4086  049B  1585               	bsf	5,3	;volatile
  4087                           
  4088                           ;steppr.c: 54: RA5 = 0b1;
  4089  049C  1685               	bsf	5,5	;volatile
  4090                           
  4091                           ;steppr.c: 55: break;
  4092  049D  0008               	return
  4093  049E                     i1l551:	
  4094                           ;steppr.c: 56: case 6:
  4095                           
  4096                           
  4097                           ;steppr.c: 57: RA1 = !0b1;
  4098  049E  1283               	bcf	3,5	;RP0=0, select bank0
  4099  049F  1303               	bcf	3,6	;RP1=0, select bank0
  4100  04A0  1085               	bcf	5,1	;volatile
  4101                           
  4102                           ;steppr.c: 58: RA2 = !0b1;
  4103  04A1  1105               	bcf	5,2	;volatile
  4104                           
  4105                           ;steppr.c: 59: RA5 = 0b1;
  4106  04A2  1685               	bsf	5,5	;volatile
  4107                           
  4108                           ;steppr.c: 60: RA3 = !0b1;
  4109  04A3  1185               	bcf	5,3	;volatile
  4110                           
  4111                           ;steppr.c: 61: break;
  4112  04A4  0008               	return
  4113  04A5                     i1l552:	
  4114                           ;steppr.c: 62: case 7:
  4115                           
  4116                           
  4117                           ;steppr.c: 63: RA2 = !0b1;
  4118  04A5  1283               	bcf	3,5	;RP0=0, select bank0
  4119  04A6  1303               	bcf	3,6	;RP1=0, select bank0
  4120  04A7  1105               	bcf	5,2	;volatile
  4121                           
  4122                           ;steppr.c: 64: RA3 = !0b1;
  4123  04A8  1185               	bcf	5,3	;volatile
  4124                           
  4125                           ;steppr.c: 65: RA5 = 0b1;
  4126  04A9  1685               	bsf	5,5	;volatile
  4127                           
  4128                           ;steppr.c: 66: RA1 = 0b1;
  4129  04AA  1485               	bsf	5,1	;volatile
  4130                           
  4131                           ;steppr.c: 67: break;
  4132  04AB  0008               	return
  4133  04AC                     i1l553:	
  4134                           ;steppr.c: 68: default:
  4135                           
  4136                           
  4137                           ;steppr.c: 69: RA1 = !0b1;
  4138  04AC  1283               	bcf	3,5	;RP0=0, select bank0
  4139  04AD  1303               	bcf	3,6	;RP1=0, select bank0
  4140  04AE  1085               	bcf	5,1	;volatile
  4141                           
  4142                           ;steppr.c: 70: RA2 = !0b1;
  4143  04AF  1105               	bcf	5,2	;volatile
  4144                           
  4145                           ;steppr.c: 71: RA3 = !0b1;
  4146  04B0  1185               	bcf	5,3	;volatile
  4147                           
  4148                           ;steppr.c: 72: RA5 = !0b1;
  4149  04B1  1285               	bcf	5,5	;volatile
  4150                           
  4151                           ;steppr.c: 73: }
  4152  04B2  0008               	return
  4153  04B3                     i1l2673:	
  4154  04B3  0870               	movf	step@step_num,w
  4155                           
  4156                           ; Switch size 1, requested type "space"
  4157                           ; Number of cases is 8, Range of values is 0 to 7
  4158                           ; switch strategies available:
  4159                           ; Name         Instructions Cycles
  4160                           ; simple_byte           25    13 (average)
  4161                           ; direct_byte           32     8 (fixed)
  4162                           ; jumptable            260     6 (fixed)
  4163                           ;	Chosen strategy is simple_byte
  4164  04B4  3A00               	xorlw	0	; case 0
  4165  04B5  1903               	skipnz
  4166  04B6  2C74               	goto	i1l544
  4167  04B7  3A01               	xorlw	1	; case 1
  4168  04B8  1903               	skipnz
  4169  04B9  2C7B               	goto	i1l546
  4170  04BA  3A03               	xorlw	3	; case 2
  4171  04BB  1903               	skipnz
  4172  04BC  2C82               	goto	i1l547
  4173  04BD  3A01               	xorlw	1	; case 3
  4174  04BE  1903               	skipnz
  4175  04BF  2C89               	goto	i1l548
  4176  04C0  3A07               	xorlw	7	; case 4
  4177  04C1  1903               	skipnz
  4178  04C2  2C90               	goto	i1l549
  4179  04C3  3A01               	xorlw	1	; case 5
  4180  04C4  1903               	skipnz
  4181  04C5  2C97               	goto	i1l550
  4182  04C6  3A03               	xorlw	3	; case 6
  4183  04C7  1903               	skipnz
  4184  04C8  2C9E               	goto	i1l551
  4185  04C9  3A01               	xorlw	1	; case 7
  4186  04CA  1903               	skipnz
  4187  04CB  2CA5               	goto	i1l552
  4188  04CC  2CAC               	goto	i1l553
  4189  04CD  0008               	return
  4190  04CE                     __end_of_step:	
  4191                           
  4192                           	psect	text22
  4193  0405                     __ptext22:	
  4194 ;; *************** function _resume *****************
  4195 ;; Defined at:
  4196 ;;		line 987 in file "auto_washing_machine.c"
  4197 ;; Parameters:    Size  Location     Type
  4198 ;;		None
  4199 ;; Auto vars:     Size  Location     Type
  4200 ;;		None
  4201 ;; Return value:  Size  Location     Type
  4202 ;;                  1    wreg      void 
  4203 ;; Registers used:
  4204 ;;		wreg, status,2, status,0
  4205 ;; Tracked objects:
  4206 ;;		On entry : 0/0
  4207 ;;		On exit  : 0/0
  4208 ;;		Unchanged: 0/0
  4209 ;; Data sizes:     COMMON   BANK0   BANK1   BANK3   BANK2
  4210 ;;      Params:         0       0       0       0       0
  4211 ;;      Locals:         0       0       0       0       0
  4212 ;;      Temps:          2       0       0       0       0
  4213 ;;      Totals:         2       0       0       0       0
  4214 ;;Total ram usage:        2 bytes
  4215 ;; Hardware stack levels used:    1
  4216 ;; This function calls:
  4217 ;;		Nothing
  4218 ;; This function is called by:
  4219 ;;		_isr
  4220 ;; This function uses a non-reentrant model
  4221 ;;
  4222                           
  4223                           
  4224                           ;psect for function _resume
  4225  0405                     _resume:	
  4226                           
  4227                           ;auto_washing_machine.c: 989: RD2 = 0b1;
  4228                           
  4229                           ;incstack = 0
  4230                           ; Regs used in _resume: [wreg+status,2+status,0]
  4231  0405  1283               	bcf	3,5	;RP0=0, select bank0
  4232  0406  1303               	bcf	3,6	;RP1=0, select bank0
  4233  0407  1508               	bsf	8,2	;volatile
  4234                           
  4235                           ;auto_washing_machine.c: 990: _delay((unsigned long)((12)*(4000000/4000.0)));
  4236  0408  3010               	movlw	16
  4237  0409  00F1               	movwf	??_resume+1
  4238  040A  3094               	movlw	148
  4239  040B  00F0               	movwf	??_resume
  4240  040C                     u515_27:	
  4241  040C  0BF0               	decfsz	??_resume,f
  4242  040D  2C0C               	goto	u515_27
  4243  040E  0BF1               	decfsz	??_resume+1,f
  4244  040F  2C0C               	goto	u515_27
  4245  0410  0000               	nop
  4246                           
  4247                           ;auto_washing_machine.c: 992: if(0b1 != RE0)
  4248  0411  1283               	bcf	3,5	;RP0=0, select bank0
  4249  0412  1303               	bcf	3,6	;RP1=0, select bank0
  4250  0413  1809               	btfsc	9,0	;volatile
  4251  0414  2C17               	goto	i1l516
  4252                           
  4253                           ;auto_washing_machine.c: 993: {
  4254                           ;auto_washing_machine.c: 994: RD4 = 0b1;
  4255  0415  1608               	bsf	8,4	;volatile
  4256                           
  4257                           ;auto_washing_machine.c: 995: return;
  4258  0416  0008               	return
  4259  0417                     i1l516:	
  4260                           ;auto_washing_machine.c: 996: }
  4261                           
  4262                           
  4263                           ;auto_washing_machine.c: 997: else
  4264                           ;auto_washing_machine.c: 998: RD4 = !0b1;
  4265  0417  1208               	bcf	8,4	;volatile
  4266                           
  4267                           ;auto_washing_machine.c: 999: cur_state = prev_state;
  4268  0418  0832               	movf	_prev_state,w
  4269  0419  00F0               	movwf	??_resume
  4270  041A  0870               	movf	??_resume,w
  4271  041B  00B1               	movwf	_cur_state
  4272                           
  4273                           ;auto_washing_machine.c: 1001: if(mot_is_rot)
  4274  041C  1AFD               	btfsc	_mot_is_rot/(0+8),_mot_is_rot& (0+7)
  4275                           
  4276                           ;auto_washing_machine.c: 1002: RC0 = 0b1;
  4277  041D  1407               	bsf	7,0	;volatile
  4278                           
  4279                           ;auto_washing_machine.c: 1003: if(ht_is_on)
  4280  041E  1830               	btfsc	_ht_is_on/(0+8),_ht_is_on& (0+7)
  4281                           
  4282                           ;auto_washing_machine.c: 1004: RD0 = 0b1;
  4283  041F  1408               	bsf	8,0	;volatile
  4284                           
  4285                           ;auto_washing_machine.c: 1006: if(dp_is_on)
  4286  0420  187D               	btfsc	_dp_is_on/(0+8),_dp_is_on& (0+7)
  4287                           
  4288                           ;auto_washing_machine.c: 1007: RD1 = 0b1;
  4289  0421  1488               	bsf	8,1	;volatile
  4290                           
  4291                           ;auto_washing_machine.c: 1008: if(sol_is_on)
  4292  0422  1AB0               	btfsc	_sol_is_on/(0+8),_sol_is_on& (0+7)
  4293                           
  4294                           ;auto_washing_machine.c: 1009: RD3 = 0b1;
  4295  0423  1588               	bsf	8,3	;volatile
  4296                           
  4297                           ;auto_washing_machine.c: 1013: if(temp_beg != BEGINNING && ((temp_beg < 7u && temp_end <
      +                           7u) || (temp_beg >= 7u && temp_end >= 7u)))
  4298  0424  30FE               	movlw	254
  4299  0425  062E               	xorwf	_temp_beg,w
  4300  0426  1903               	btfsc	3,2
  4301  0427  2C60               	goto	i1l3073
  4302  0428  082E               	movf	_temp_beg,w
  4303  0429  00F0               	movwf	??_resume
  4304  042A  01F1               	clrf	??_resume+1
  4305  042B  1BF0               	btfsc	??_resume,7
  4306  042C  03F1               	decf	??_resume+1,f
  4307  042D  3000               	movlw	0
  4308  042E  0271               	subwf	??_resume+1,w
  4309  042F  3007               	movlw	7
  4310  0430  1903               	skipnz
  4311  0431  0270               	subwf	??_resume,w
  4312  0432  1803               	skipnc
  4313  0433  2C40               	goto	i1l3067
  4314  0434  082F               	movf	_temp_end,w
  4315  0435  00F0               	movwf	??_resume
  4316  0436  01F1               	clrf	??_resume+1
  4317  0437  1BF0               	btfsc	??_resume,7
  4318  0438  03F1               	decf	??_resume+1,f
  4319  0439  3000               	movlw	0
  4320  043A  0271               	subwf	??_resume+1,w
  4321  043B  3007               	movlw	7
  4322  043C  1903               	skipnz
  4323  043D  0270               	subwf	??_resume,w
  4324  043E  1C03               	skipc
  4325  043F  2C58               	goto	i1l3071
  4326  0440                     i1l3067:	
  4327  0440  082E               	movf	_temp_beg,w
  4328  0441  00F0               	movwf	??_resume
  4329  0442  01F1               	clrf	??_resume+1
  4330  0443  1BF0               	btfsc	??_resume,7
  4331  0444  03F1               	decf	??_resume+1,f
  4332  0445  3000               	movlw	0
  4333  0446  0271               	subwf	??_resume+1,w
  4334  0447  3007               	movlw	7
  4335  0448  1903               	skipnz
  4336  0449  0270               	subwf	??_resume,w
  4337  044A  1C03               	skipc
  4338  044B  2C60               	goto	i1l3073
  4339  044C  082F               	movf	_temp_end,w
  4340  044D  00F0               	movwf	??_resume
  4341  044E  01F1               	clrf	??_resume+1
  4342  044F  1BF0               	btfsc	??_resume,7
  4343  0450  03F1               	decf	??_resume+1,f
  4344  0451  3000               	movlw	0
  4345  0452  0271               	subwf	??_resume+1,w
  4346  0453  3007               	movlw	7
  4347  0454  1903               	skipnz
  4348  0455  0270               	subwf	??_resume,w
  4349  0456  1C03               	skipc
  4350  0457  2C60               	goto	i1l3073
  4351  0458                     i1l3071:	
  4352                           
  4353                           ;auto_washing_machine.c: 1014: {
  4354                           ;auto_washing_machine.c: 1015: skip_beg = temp_beg;
  4355  0458  082E               	movf	_temp_beg,w
  4356  0459  00F0               	movwf	??_resume
  4357  045A  0870               	movf	??_resume,w
  4358  045B  00B3               	movwf	_skip_beg
  4359                           
  4360                           ;auto_washing_machine.c: 1016: skip_end = temp_end;
  4361  045C  082F               	movf	_temp_end,w
  4362  045D  00F0               	movwf	??_resume
  4363  045E  0870               	movf	??_resume,w
  4364  045F  00AB               	movwf	_skip_end
  4365  0460                     i1l3073:	
  4366                           
  4367                           ;auto_washing_machine.c: 1017: }
  4368                           ;auto_washing_machine.c: 1018: TMR1ON = 0b1;
  4369  0460  1410               	bsf	16,0	;volatile
  4370                           
  4371                           ;auto_washing_machine.c: 1019: TMR2ON = 0b1;
  4372  0461  1512               	bsf	18,2	;volatile
  4373                           
  4374                           ;auto_washing_machine.c: 1020: (PORTC = ((unsigned char)(unsigned char)cur_state << 4) |
      +                           (PORTC & 0x0F));
  4375  0462  300F               	movlw	15
  4376  0463  0507               	andwf	7,w	;volatile
  4377  0464  00F0               	movwf	??_resume
  4378  0465  0831               	movf	_cur_state,w
  4379  0466  00F1               	movwf	??_resume+1
  4380  0467  3003               	movlw	3
  4381  0468                     u402_25:	
  4382  0468  1003               	clrc
  4383  0469  0DF1               	rlf	??_resume+1,f
  4384  046A  3EFF               	addlw	-1
  4385  046B  1D03               	skipz
  4386  046C  2C68               	goto	u402_25
  4387  046D  1003               	clrc
  4388  046E  0D71               	rlf	??_resume+1,w
  4389  046F  0470               	iorwf	??_resume,w
  4390  0470  0087               	movwf	7	;volatile
  4391  0471  0008               	return
  4392  0472                     __end_of_resume:	
  4393                           
  4394                           	psect	text23
  4395  0708                     __ptext23:	
  4396 ;; *************** function _mot_off *****************
  4397 ;; Defined at:
  4398 ;;		line 110 in file "steppr.c"
  4399 ;; Parameters:    Size  Location     Type
  4400 ;;		None
  4401 ;; Auto vars:     Size  Location     Type
  4402 ;;		None
  4403 ;; Return value:  Size  Location     Type
  4404 ;;                  1    wreg      void 
  4405 ;; Registers used:
  4406 ;;		None
  4407 ;; Tracked objects:
  4408 ;;		On entry : 0/0
  4409 ;;		On exit  : 0/0
  4410 ;;		Unchanged: 0/0
  4411 ;; Data sizes:     COMMON   BANK0   BANK1   BANK3   BANK2
  4412 ;;      Params:         0       0       0       0       0
  4413 ;;      Locals:         0       0       0       0       0
  4414 ;;      Temps:          0       0       0       0       0
  4415 ;;      Totals:         0       0       0       0       0
  4416 ;;Total ram usage:        0 bytes
  4417 ;; Hardware stack levels used:    1
  4418 ;; This function calls:
  4419 ;;		Nothing
  4420 ;; This function is called by:
  4421 ;;		_isr
  4422 ;; This function uses a non-reentrant model
  4423 ;;
  4424                           
  4425                           
  4426                           ;psect for function _mot_off
  4427  0708                     _mot_off:	
  4428                           
  4429                           ;steppr.c: 112: RA1 = !0b1;
  4430                           
  4431                           ;incstack = 0
  4432                           ; Regs used in _mot_off: []
  4433  0708  1283               	bcf	3,5	;RP0=0, select bank0
  4434  0709  1303               	bcf	3,6	;RP1=0, select bank0
  4435  070A  1085               	bcf	5,1	;volatile
  4436                           
  4437                           ;steppr.c: 113: RA2 = !0b1;
  4438  070B  1105               	bcf	5,2	;volatile
  4439                           
  4440                           ;steppr.c: 114: RA3 = !0b1;
  4441  070C  1185               	bcf	5,3	;volatile
  4442                           
  4443                           ;steppr.c: 115: RA5 = !0b1;
  4444  070D  1285               	bcf	5,5	;volatile
  4445  070E  0008               	return
  4446  070F                     __end_of_mot_off:	
  4447                           
  4448                           	psect	text24
  4449  0655                     __ptext24:	
  4450 ;; *************** function ___lwmod *****************
  4451 ;; Defined at:
  4452 ;;		line 6 in file "/opt/microchip/xc8/v1.36/sources/common/lwmod.c"
  4453 ;; Parameters:    Size  Location     Type
  4454 ;;  divisor         2    0[COMMON] unsigned int 
  4455 ;;  dividend        2    2[COMMON] unsigned int 
  4456 ;; Auto vars:     Size  Location     Type
  4457 ;;  counter         1    5[COMMON] unsigned char 
  4458 ;; Return value:  Size  Location     Type
  4459 ;;                  2    0[COMMON] unsigned int 
  4460 ;; Registers used:
  4461 ;;		wreg, status,2, status,0
  4462 ;; Tracked objects:
  4463 ;;		On entry : 0/0
  4464 ;;		On exit  : 0/0
  4465 ;;		Unchanged: 0/0
  4466 ;; Data sizes:     COMMON   BANK0   BANK1   BANK3   BANK2
  4467 ;;      Params:         4       0       0       0       0
  4468 ;;      Locals:         1       0       0       0       0
  4469 ;;      Temps:          1       0       0       0       0
  4470 ;;      Totals:         6       0       0       0       0
  4471 ;;Total ram usage:        6 bytes
  4472 ;; Hardware stack levels used:    1
  4473 ;; This function calls:
  4474 ;;		Nothing
  4475 ;; This function is called by:
  4476 ;;		_isr
  4477 ;; This function uses a non-reentrant model
  4478 ;;
  4479                           
  4480                           
  4481                           ;psect for function ___lwmod
  4482  0655                     ___lwmod:	
  4483                           
  4484                           ;incstack = 0
  4485                           ; Regs used in ___lwmod: [wreg+status,2+status,0]
  4486  0655  0870               	movf	___lwmod@divisor,w
  4487  0656  0471               	iorwf	___lwmod@divisor+1,w
  4488  0657  1903               	btfsc	3,2
  4489  0658  2E82               	goto	i1l3105
  4490  0659  01F5               	clrf	___lwmod@counter
  4491  065A  0AF5               	incf	___lwmod@counter,f
  4492  065B                     i1l3095:	
  4493  065B  1BF1               	btfsc	___lwmod@divisor+1,7
  4494  065C  2E69               	goto	i1l3097
  4495  065D  3001               	movlw	1
  4496  065E                     u405_25:	
  4497  065E  1003               	clrc
  4498  065F  0DF0               	rlf	___lwmod@divisor,f
  4499  0660  0DF1               	rlf	___lwmod@divisor+1,f
  4500  0661  3EFF               	addlw	-1
  4501  0662  1D03               	skipz
  4502  0663  2E5E               	goto	u405_25
  4503  0664  3001               	movlw	1
  4504  0665  00F4               	movwf	??___lwmod
  4505  0666  0874               	movf	??___lwmod,w
  4506  0667  07F5               	addwf	___lwmod@counter,f
  4507  0668  2E5B               	goto	i1l3095
  4508  0669                     i1l3097:	
  4509  0669  0871               	movf	___lwmod@divisor+1,w
  4510  066A  0273               	subwf	___lwmod@dividend+1,w
  4511  066B  1D03               	skipz
  4512  066C  2E6F               	goto	u407_25
  4513  066D  0870               	movf	___lwmod@divisor,w
  4514  066E  0272               	subwf	___lwmod@dividend,w
  4515  066F                     u407_25:	
  4516  066F  1C03               	skipc
  4517  0670  2E77               	goto	i1l3101
  4518  0671  0870               	movf	___lwmod@divisor,w
  4519  0672  02F2               	subwf	___lwmod@dividend,f
  4520  0673  0871               	movf	___lwmod@divisor+1,w
  4521  0674  1C03               	skipc
  4522  0675  03F3               	decf	___lwmod@dividend+1,f
  4523  0676  02F3               	subwf	___lwmod@dividend+1,f
  4524  0677                     i1l3101:	
  4525  0677  3001               	movlw	1
  4526  0678                     u408_25:	
  4527  0678  1003               	clrc
  4528  0679  0CF1               	rrf	___lwmod@divisor+1,f
  4529  067A  0CF0               	rrf	___lwmod@divisor,f
  4530  067B  3EFF               	addlw	-1
  4531  067C  1D03               	skipz
  4532  067D  2E78               	goto	u408_25
  4533  067E  3001               	movlw	1
  4534  067F  02F5               	subwf	___lwmod@counter,f
  4535  0680  1D03               	btfss	3,2
  4536  0681  2E69               	goto	i1l3097
  4537  0682                     i1l3105:	
  4538  0682  0873               	movf	___lwmod@dividend+1,w
  4539  0683  00F1               	movwf	?___lwmod+1
  4540  0684  0872               	movf	___lwmod@dividend,w
  4541  0685  00F0               	movwf	?___lwmod
  4542  0686  0008               	return
  4543  0687                     __end_of___lwmod:	
  4544  007E                     btemp	set	126	;btemp
  4545  007E                     wtemp	set	126
  4546  007E                     wtemp0	set	126
  4547  0080                     wtemp1	set	128
  4548  0082                     wtemp2	set	130
  4549  0084                     wtemp3	set	132
  4550  0086                     wtemp4	set	134
  4551  0088                     wtemp5	set	136
  4552  007F                     wtemp6	set	127
  4553  007E                     ttemp	set	126
  4554  007E                     ttemp0	set	126
  4555  0081                     ttemp1	set	129
  4556  0084                     ttemp2	set	132
  4557  0087                     ttemp3	set	135
  4558  007F                     ttemp4	set	127
  4559  007E                     ltemp	set	126
  4560  007E                     ltemp0	set	126
  4561  0082                     ltemp1	set	130
  4562  0086                     ltemp2	set	134
  4563  0080                     ltemp3	set	128


Data Sizes:
    Strings     0
    Constant    0
    Data        0
    BSS         16
    Persistent  3
    Stack       0

Auto Spaces:
    Space          Size  Autos    Used
    COMMON           14     13      14
    BANK0            80      2      22
    BANK1            80      0       0
    BANK3            96      0       0
    BANK2            96      0       0

Pointer List with Targets:

    None.

Critical Paths under _main in COMMON

    None.

Critical Paths under _isr in COMMON

    _isr->___lwmod
    _rev_cw->_step_cw
    _step_cw->_step

Critical Paths under _main in BANK0

    _main->_state_h
    _state_h->_init

Critical Paths under _isr in BANK0

    None.

Critical Paths under _main in BANK1

    None.

Critical Paths under _isr in BANK1

    None.

Critical Paths under _main in BANK3

    None.

Critical Paths under _isr in BANK3

    None.

Critical Paths under _main in BANK2

    None.

Critical Paths under _isr in BANK2

    None.

Call Graph Tables:

 ---------------------------------------------------------------------------------
 (Depth) Function   	        Calls       Base Space   Used Autos Params    Refs
 ---------------------------------------------------------------------------------
 (0) _main                                                 0     0      0       0
                               _init
                            _state_a
                            _state_b
                            _state_c
                            _state_d
                            _state_f
                            _state_g
                            _state_h
                            _state_j
                            _state_k
                            _state_l
                            _state_m
                            _state_n
                            _state_p
                            _state_q
 ---------------------------------------------------------------------------------
 (1) _state_q                                              0     0      0       0
 ---------------------------------------------------------------------------------
 (1) _state_p                                              0     0      0       0
 ---------------------------------------------------------------------------------
 (1) _state_n                                              0     0      0       0
 ---------------------------------------------------------------------------------
 (1) _state_m                                              0     0      0       0
 ---------------------------------------------------------------------------------
 (1) _state_l                                              0     0      0       0
 ---------------------------------------------------------------------------------
 (1) _state_k                                              0     0      0       0
 ---------------------------------------------------------------------------------
 (1) _state_j                                              0     0      0       0
 ---------------------------------------------------------------------------------
 (1) _state_h                                              1     1      0       0
                                              1 BANK0      1     1      0
                          _discharge
                               _init
 ---------------------------------------------------------------------------------
 (2) _init                                                 1     1      0       0
                                              0 BANK0      1     1      0
 ---------------------------------------------------------------------------------
 (1) _state_g                                              1     1      0       0
                                              0 BANK0      1     1      0
                          _discharge
 ---------------------------------------------------------------------------------
 (1) _state_f                                              1     1      0       0
                                              0 BANK0      1     1      0
                          _discharge
 ---------------------------------------------------------------------------------
 (1) _state_d                                              1     1      0       0
                                              0 BANK0      1     1      0
                          _discharge
 ---------------------------------------------------------------------------------
 (1) _state_c                                              1     1      0       0
                                              0 BANK0      1     1      0
                          _discharge
 ---------------------------------------------------------------------------------
 (1) _state_b                                              1     1      0       0
                                              0 BANK0      1     1      0
                          _discharge
 ---------------------------------------------------------------------------------
 (1) _state_a                                              1     1      0       0
                                              0 BANK0      1     1      0
                          _discharge
 ---------------------------------------------------------------------------------
 (2) _discharge                                            0     0      0       0
 ---------------------------------------------------------------------------------
 Estimated maximum stack depth 2
 ---------------------------------------------------------------------------------
 (Depth) Function   	        Calls       Base Space   Used Autos Params    Refs
 ---------------------------------------------------------------------------------
 (3) _isr                                                  7     7      0     851
                                              6 COMMON     7     7      0
                            ___lwmod
                            _mot_off
                             _resume
                             _rev_cw
                            _suspend
 ---------------------------------------------------------------------------------
 (4) _suspend                                              1     1      0       0
                                              0 COMMON     1     1      0
 ---------------------------------------------------------------------------------
 (4) _rev_cw                                               2     2      0      99
                                              2 COMMON     2     2      0
                            _step_cw
 ---------------------------------------------------------------------------------
 (5) _step_cw                                              1     1      0      31
                                              1 COMMON     1     1      0
                               _step
 ---------------------------------------------------------------------------------
 (6) _step                                                 1     1      0      31
                                              0 COMMON     1     1      0
 ---------------------------------------------------------------------------------
 (4) _resume                                               2     2      0       0
                                              0 COMMON     2     2      0
 ---------------------------------------------------------------------------------
 (4) _mot_off                                              0     0      0       0
 ---------------------------------------------------------------------------------
 (4) ___lwmod                                              6     2      4     752
                                              0 COMMON     6     2      4
 ---------------------------------------------------------------------------------
 Estimated maximum stack depth 6
 ---------------------------------------------------------------------------------

 Call Graph Graphs:

 _main (ROOT)
   _init
   _state_a
     _discharge
   _state_b
     _discharge
   _state_c
     _discharge
   _state_d
     _discharge
   _state_f
     _discharge
   _state_g
     _discharge
   _state_h
     _discharge
     _init
   _state_j
   _state_k
   _state_l
   _state_m
   _state_n
   _state_p
   _state_q

 _isr (ROOT)
   ___lwmod
   _mot_off
   _resume
   _rev_cw
     _step_cw
       _step
   _suspend

 Address spaces:
Name               Size   Autos  Total    Cost      Usage
BITCOMMON            E      0       1       0        7.1%
EEDATA             100      0       0       0        0.0%
NULL                 0      0       0       0        0.0%
CODE                 0      0       0       0        0.0%
COMMON               E      D       E       1      100.0%
BITSFR0              0      0       0       1        0.0%
SFR0                 0      0       0       1        0.0%
BITSFR1              0      0       0       2        0.0%
SFR1                 0      0       0       2        0.0%
STACK                0      0       0       2        0.0%
ABS                  0      0      24       3        0.0%
BITBANK0            50      0       1       4        1.2%
BITSFR3              0      0       0       4        0.0%
SFR3                 0      0       0       4        0.0%
BANK0               50      2      16       5       27.5%
BITSFR2              0      0       0       5        0.0%
SFR2                 0      0       0       5        0.0%
BITBANK1            50      0       0       6        0.0%
BANK1               50      0       0       7        0.0%
BITBANK3            60      0       0       8        0.0%
BANK3               60      0       0       9        0.0%
BITBANK2            60      0       0      10        0.0%
BANK2               60      0       0      11        0.0%
DATA                 0      0      24      12        0.0%


Microchip Technology PIC Macro Assembler V1.36 build -262312587 
Symbol Table                                                                                   Sun May 22 13:11:24 2016

             __CFG_CP$ON 0000              __CFG_CPD$ON 0000                       fsr 0004  
                    l310 053C                      l311 053B                      l410 06EB  
                    l306 0536                      l322 039A                      l315 054A  
                    l307 0535                      l323 0399                      l219 032C  
                    l412 06F1                      l260 05FE                      l309 0540  
                    l333 03BA                      l325 03A4                      l334 03B9  
                    l326 03A0                      l255 05F3                      l327 039F  
                    l272 05C1                      l344 03DA                      l336 03C4  
                    l265 061D                      l257 05F9                      l281 05D5  
                    l273 05C0                      l345 03D9                      l337 03C0  
                    l266 061F                      l258 0603                      l290 057E  
                    l338 03BF                      l362 04E8                      l259 05FF  
                    l275 05CB                      l347 03E4                      l276 05C7  
                    l292 0589                      l348 03E0                      l364 04EF  
                    l277 05C6                      l293 0585                      l349 03DF  
                    l365 04EE                      l294 0584                      l367 04F9  
                    l368 04F5                      l289 057F                      l369 04F4  
                    l298 0593                      l379 06A1                      _GIE 005F  
                    _RA0 0028                      _RA1 0029                      _RB0 0030  
                    _RA2 002A                      _RB1 0031                      _RA3 002B  
                    _RC0 0038                      _RB2 0032                      _RC1 0039  
                    _RB3 0033                      _RA5 002D                      _RD0 0040  
                    _RC2 003A                      _RB4 0034                      _RD1 0041  
                    _RB5 0035                      _RE0 0048                      _RD2 0042  
                    _RB6 0036                      _RE1 0049                      _RD3 0043  
                    _RB7 0037                      _RD4 0044                      _RD5 0045  
                    _RD6 0046                      _RD7 0047                      _PR2 0092  
                    _isr 0022                      fsr0 0004                      indf 0000  
           __CFG_FOSC$XT 0000             __CFG_LVP$OFF 0000                     l3015 06AF  
                   l3007 069A                     l3017 06B2                     l3201 0327  
                   l3161 02EB                     l3153 02DF                     l3181 0309  
                   l3173 02FD                     l3165 02F1                     l3157 02E5  
                   l3193 031B                     l3185 030F                     l3177 0303  
                   l3169 02F7                     l2811 05DD                     l2805 05CE  
                   l3197 0321                     l3189 0315                     l2825 0576  
                   l2921 03C6                     l2771 0605                     l2923 03CD  
                   l2907 03A6                     l2773 060C                     l2861 052D  
                   l2909 03AD                     l2847 059E                     l2839 058C  
                   l2935 03E6                     l2793 05B8                     l2873 0543  
                   l2937 03ED                     l2947 03FF                     l2885 055D  
                   l2965 04E1                     l2967 04E9                     l2977 04FB  
                   l2979 0502                     l2989 0514                     ?_isr 0070  
           __CFG_WDTE$ON 0000                     _PIE1 008C                     _PIE2 008D  
                   _INTF 0059                     _RBIF 0058                     _PIR1 000C  
                   _PIR2 000D                     _TMR0 0001                     _TMR2 0011  
                   _SPEN 00C7                     _main 0294                     _init 0621  
                   _temp 002D                     _step 0472                     btemp 007E  
                   isr@i 0024            __CFG_BOREN$ON 0000                     ltemp 007E  
                   start 0012                     ttemp 007E                     wtemp 007E  
                  ??_isr 0076                    ?_main 0070                    ?_init 0070  
                  _CMCON 009C                    ?_step 0070                    _T1CON 0010  
                  _T2CON 0012           __CFG_DEBUG$OFF 0000                    i1l500 01FE  
                  i1l430 0050                    i1l440 0092          __end_of___lwmod 0687  
                  i1l433 0071                    i1l450 00BA                    i1l442 009F  
                  i1l426 007A                    i1l451 0287                    i1l427 0052  
                  i1l516 0417                    i1l508 0274                    i1l452 00C0  
                  i1l509 0273                    i1l461 0102                    i1l453 00C5  
                  i1l550 0497                    i1l446 00A9                    i1l551 049E  
                  i1l471 0158                    i1l455 00CA                    i1l552 04A5  
                  i1l544 0474                    i1l456 00D5                    i1l553 04AC  
                  i1l481 01AA                    i1l465 012A                    i1l457 00D2  
                  i1l546 047B                    i1l490 01EA                    i1l474 01D1  
                  i1l547 0482                    i1l459 00DA                    i1l548 0489  
                  i1l492 01FB                    i1l484 01D0                    i1l476 0190  
                  i1l549 0490                    i1l493 01F0                    i1l469 015A  
                  i1l494 01EF                    i1l486 01EC                    i1l487 01E1  
                  i1l496 01FA                    i1l488 01E0                    i1l499 01FF  
                  _TMR1H 000F                    _TMR1L 000E                    _PORTC 0007  
                  _TRISA 0085                    _TRISB 0086                    _TRISC 0087  
                  _TRISD 0088                    _TRISE 0089                    _SSPEN 00A5  
          __CFG_WRT$HALF 0000            __CFG_PWRTE$ON 0000                    _dp_on 03E9  
                  _ht_on 03EB           __pbitbssCOMMON 03E8          __end_of_mot_off 070F  
                  pclath 000A                    ltemp0 007E                    ltemp1 0082  
                  ltemp2 0086                    ltemp3 0080          __end_of_state_a 0621  
        __end_of_state_b 05E3          __end_of_state_c 05A4          __end_of_state_d 0563  
        __end_of_state_f 0405          __end_of_state_g 051A          __end_of_state_h 06B4  
        __end_of_state_j 0716          __end_of_state_k 0715          __end_of_state_l 0714  
        __end_of_state_m 0713          __end_of_state_n 0712          __end_of_state_p 0711  
        __end_of_state_q 0710             step@step_num 0070                    ttemp0 007E  
                  ttemp1 0081                    ttemp2 0084                    ttemp3 0087  
                  ttemp4 007F          __end_of_step_cw 0700                    status 0003  
                  wtemp0 007E                    wtemp1 0080                    wtemp2 0082  
                  wtemp3 0084                    wtemp4 0086                    wtemp5 0088  
                  wtemp6 007F          __end_of_suspend 06D0          __initialization 0015  
           __end_of_main 0385             __end_of_init 0655             __end_of_step 04CE  
                 ??_main 0036                   ??_init 0034                   ??_step 0070  
                 _ADCON0 001F                   _ADCON1 009F                   _CVRCON 009D  
                 i1l3101 0677                   i1l3105 0682                   i1l3071 0458  
                 i1l3223 0048                   i1l3073 0460                   i1l3067 0440  
                 i1l3421 019B                   i1l3237 0068                   i1l3095 065B  
                 i1l3423 01A0                   i1l3255 007D                   i1l3097 0669  
                 i1l3417 0192                   i1l3273 0097                   i1l3257 007F  
                 i1l3461 024A                   i1l3429 01CE                   i1l3455 0229  
                 i1l3375 013A                   i1l3287 00AF                   i1l2673 04B3  
                 i1l3465 0270                   i1l3289 00B0                   i1l3475 0286  
                 i1l3395 0169                   i1l3397 016A                   _INTCON 000B  
                 u402_25 0468                   u405_25 065E                   u501_25 0267  
                 u510_27 011C                   u407_25 066F                   u511_27 0144  
                 u408_25 0678                   u512_27 0170                   u513_27 017F  
                 u514_27 01D7                   u515_27 040C                   u508_27 0061  
                 u509_27 00F4                   u486_23 01CC                   u498_25 0223  
                 _TMR1IF 0060                   _TMR2IF 0061                   _TMR1ON 0080  
                 _TMR2ON 0092                   _TRISA0 0428                   _TRISD7 0447  
              ??___lwmod 0074                   _rev_cw 06D0                   _resume 0405  
                 saved_w 007E                ??_mot_off 0070                ??_state_a 0034  
              ??_state_b 0034                ??_state_c 0034                ??_state_d 0034  
              ??_state_f 0034                ??_state_g 0034                ??_state_h 0035  
              ??_state_j 0034                ??_state_k 0034                ??_state_l 0034  
              ??_state_m 0034                ??_state_n 0034                ??_state_p 0034  
              ??_state_q 0034                ??_step_cw 0071                ??_suspend 0070  
__end_of__initialization 001E           __pcstackCOMMON 0070       __size_of_discharge 000E  
             __pbssBANK0 0020               __pmaintext 0294               __pintentry 0004  
                _CCP1CON 0017                  _CCP2CON 001D                  ?_rev_cw 0070  
                ?_resume 0070               _dp_op_time 0027        __end_of_discharge 06F3  
                ___lwmod 0655          __size_of_rev_cw 0015                  __ptext1 070F  
                __ptext2 0710                  __ptext3 0711                  __ptext4 0712  
                __ptext5 0713                  __ptext6 0714                  __ptext7 0715  
                __ptext8 0687                  __ptext9 0621          __size_of_resume 006D  
           __size_of_isr 0272                  _sol1_on 0182                  _sol2_on 0183  
                _sol3_on 0184                  _no_spin 0181                  _seconds 002A  
                _mot_off 0708                  _mot_rot 03EE                  _state_a 05E3  
                _state_b 05A4                  _state_c 0563                  _state_d 051A  
                _state_f 0385                  _state_g 04CE                  _state_h 0687  
                _state_j 0715                  _state_k 0714                  _state_l 0713  
                _state_m 0712                  _state_n 0711                  _state_p 0710  
                _state_q 070F                  _step_cw 06F3                  clrloop0 0701  
                _suspend 06B4     end_of_initialization 001E               _mot_is_rot 03ED  
                rev_cw@i 0072               _prev_state 0032            __pbitbssBANK0 0180  
         __end_of_rev_cw 06E5           __end_of_resume 0472      start_initialization 0015  
            __end_of_isr 0294           isr@mot_is_high 0186           isr@mot_is_left 0187  
               ??_rev_cw 0072                 ??_resume 0070                ___latbits 0002  
          __pcstackBANK0 0034                __pnvBANK0 0031                _half_load 03EA  
               ?___lwmod 0070                _discharge 06E5                _idle_time 0028  
               ?_mot_off 0070                _cur_state 0031                 ?_state_a 0070  
               ?_state_b 0070                 ?_state_c 0070                 ?_state_d 0070  
               ?_state_f 0070                 ?_state_g 0070                 ?_state_h 0070  
               ?_state_j 0070                 ?_state_k 0070                 ?_state_l 0070  
               ?_state_m 0070                 ?_state_n 0070                 ?_state_p 0070  
               ?_state_q 0070                 ?_step_cw 0070                 ?_suspend 0070  
      interrupt_function 0004                clear_ram0 0700               ?_discharge 0070  
              _sol_is_on 0185         __size_of___lwmod 0032         __size_of_mot_off 0007  
               __ptext10 04CE                 __ptext11 0385                 __ptext20 06F3  
               __ptext12 051A                 __ptext21 0472                 __ptext13 0563  
               __ptext22 0405                 __ptext14 05A4                 __ptext23 0708  
               __ptext15 05E3                 __ptext24 0655                 __ptext16 06E5  
               __ptext17 0022                 __ptext18 06B4                 __ptext19 06D0  
               _dp_is_on 03E8         __size_of_state_a 003E         __size_of_state_b 003F  
       __size_of_state_c 0041         __size_of_state_d 0049         __size_of_state_f 0080  
       __size_of_state_g 004C         __size_of_state_h 002D         __size_of_state_j 0001  
       __size_of_state_k 0001         __size_of_state_l 0001         __size_of_state_m 0001  
       __size_of_state_n 0001         __size_of_state_p 0001         __size_of_state_q 0001  
       __size_of_step_cw 000D         __size_of_suspend 001C                 _cur_step 0026  
               _ht_is_on 0180            __size_of_main 00F1            __size_of_init 0034  
          __size_of_step 005C                 _mot_high 03EC                 _temp_beg 002E  
               _temp_end 002F                 _skip_beg 0033                 _skip_end 002B  
               _rot_time 0029              ??_discharge 0034                 isr@ticks 0020  
               intlevel1 0000         ___lwmod@dividend 0072               _OPTION_REG 0081  
        ___lwmod@divisor 0070          ___lwmod@counter 0075              _sol_op_time 002C  
