

Microchip Technology PIC LITE Macro Assembler V1.21 build 54009 
                                                                                               Fri Apr 25 17:50:26 2014

Microchip Technology Omniscient Code Generator (Lite mode) build 54009
     1                           	processor	16F877A
     2                           	opt	pw 120
     3                           	opt	lm
     4                           	psect	idataBANK0,global,class=CODE,delta=2
     5                           	psect	idataBANK1,global,class=CODE,delta=2
     6                           	psect	bitnvBANK0,global,bit,class=BANK0,space=1,delta=1
     7                           	psect	cinit,global,class=CODE,merge=1,delta=2
     8                           	psect	bitbssBANK0,global,bit,class=BANK0,space=1,delta=1
     9                           	psect	bssBANK0,global,class=BANK0,space=1,delta=1
    10                           	psect	dataBANK0,global,class=BANK0,space=1,delta=1
    11                           	psect	dataBANK1,global,class=BANK1,space=1,delta=1
    12                           	psect	inittext,global,class=CODE,delta=2
    13                           	psect	cstackBANK1,global,class=BANK1,space=1,delta=1
    14                           	psect	cstackCOMMON,global,class=COMMON,space=1,delta=1
    15                           	psect	cstackBANK0,global,class=BANK0,space=1,delta=1
    16                           	psect	maintext,global,class=CODE,split=1,delta=2
    17                           	psect	text1,local,class=CODE,merge=1,delta=2
    18                           	psect	text2,local,class=CODE,merge=1,delta=2
    19                           	psect	text3,local,class=CODE,merge=1,delta=2
    20                           	psect	intentry,global,class=CODE,delta=2
    21                           	psect	text4,local,class=CODE,merge=1,delta=2
    22                           	psect	text5,local,class=CODE,merge=1,delta=2
    23                           	psect	text6,local,class=CODE,merge=1,delta=2
    24                           	psect	text7,local,class=CODE,merge=1,delta=2
    25                           	psect	text8,local,class=CODE,merge=1,delta=2
    26                           	psect	text9,local,class=CODE,merge=1,delta=2
    27                           	psect	text10,local,class=CODE,merge=1,delta=2
    28                           	psect	text11,local,class=CODE,merge=1,delta=2
    29                           	psect	text12,local,class=CODE,merge=1,delta=2
    30                           	psect	text13,local,class=CODE,merge=1,delta=2
    31                           	psect	text14,local,class=CODE,merge=1,delta=2
    32                           	psect	text15,local,class=CODE,merge=1,delta=2
    33                           	psect	text16,local,class=CODE,merge=1,delta=2
    34                           	dabs	1,0x7E,2
    35  0000                     	;# 
    36  0001                     	;# 
    37  0002                     	;# 
    38  0003                     	;# 
    39  0004                     	;# 
    40  0005                     	;# 
    41  0006                     	;# 
    42  0007                     	;# 
    43  0008                     	;# 
    44  0009                     	;# 
    45  000A                     	;# 
    46  000B                     	;# 
    47  000C                     	;# 
    48  000D                     	;# 
    49  000E                     	;# 
    50  000E                     	;# 
    51  000F                     	;# 
    52  0010                     	;# 
    53  0011                     	;# 
    54  0012                     	;# 
    55  0013                     	;# 
    56  0014                     	;# 
    57  0015                     	;# 
    58  0015                     	;# 
    59  0016                     	;# 
    60  0017                     	;# 
    61  0018                     	;# 
    62  0019                     	;# 
    63  001A                     	;# 
    64  001B                     	;# 
    65  001B                     	;# 
    66  001C                     	;# 
    67  001D                     	;# 
    68  001E                     	;# 
    69  001F                     	;# 
    70  0081                     	;# 
    71  0085                     	;# 
    72  0086                     	;# 
    73  0087                     	;# 
    74  0088                     	;# 
    75  0089                     	;# 
    76  008C                     	;# 
    77  008D                     	;# 
    78  008E                     	;# 
    79  0091                     	;# 
    80  0092                     	;# 
    81  0093                     	;# 
    82  0094                     	;# 
    83  0098                     	;# 
    84  0099                     	;# 
    85  009C                     	;# 
    86  009D                     	;# 
    87  009E                     	;# 
    88  009F                     	;# 
    89  010C                     	;# 
    90  010D                     	;# 
    91  010E                     	;# 
    92  010F                     	;# 
    93  018C                     	;# 
    94  018D                     	;# 
    95  0000                     	;# 
    96  0001                     	;# 
    97  0002                     	;# 
    98  0003                     	;# 
    99  0004                     	;# 
   100  0005                     	;# 
   101  0006                     	;# 
   102  0007                     	;# 
   103  0008                     	;# 
   104  0009                     	;# 
   105  000A                     	;# 
   106  000B                     	;# 
   107  000C                     	;# 
   108  000D                     	;# 
   109  000E                     	;# 
   110  000E                     	;# 
   111  000F                     	;# 
   112  0010                     	;# 
   113  0011                     	;# 
   114  0012                     	;# 
   115  0013                     	;# 
   116  0014                     	;# 
   117  0015                     	;# 
   118  0015                     	;# 
   119  0016                     	;# 
   120  0017                     	;# 
   121  0018                     	;# 
   122  0019                     	;# 
   123  001A                     	;# 
   124  001B                     	;# 
   125  001B                     	;# 
   126  001C                     	;# 
   127  001D                     	;# 
   128  001E                     	;# 
   129  001F                     	;# 
   130  0081                     	;# 
   131  0085                     	;# 
   132  0086                     	;# 
   133  0087                     	;# 
   134  0088                     	;# 
   135  0089                     	;# 
   136  008C                     	;# 
   137  008D                     	;# 
   138  008E                     	;# 
   139  0091                     	;# 
   140  0092                     	;# 
   141  0093                     	;# 
   142  0094                     	;# 
   143  0098                     	;# 
   144  0099                     	;# 
   145  009C                     	;# 
   146  009D                     	;# 
   147  009E                     	;# 
   148  009F                     	;# 
   149  010C                     	;# 
   150  010D                     	;# 
   151  010E                     	;# 
   152  010F                     	;# 
   153  018C                     	;# 
   154  018D                     	;# 
   155  0000                     	;# 
   156  0001                     	;# 
   157  0002                     	;# 
   158  0003                     	;# 
   159  0004                     	;# 
   160  0005                     	;# 
   161  0006                     	;# 
   162  0007                     	;# 
   163  0008                     	;# 
   164  0009                     	;# 
   165  000A                     	;# 
   166  000B                     	;# 
   167  000C                     	;# 
   168  000D                     	;# 
   169  000E                     	;# 
   170  000E                     	;# 
   171  000F                     	;# 
   172  0010                     	;# 
   173  0011                     	;# 
   174  0012                     	;# 
   175  0013                     	;# 
   176  0014                     	;# 
   177  0015                     	;# 
   178  0015                     	;# 
   179  0016                     	;# 
   180  0017                     	;# 
   181  0018                     	;# 
   182  0019                     	;# 
   183  001A                     	;# 
   184  001B                     	;# 
   185  001B                     	;# 
   186  001C                     	;# 
   187  001D                     	;# 
   188  001E                     	;# 
   189  001F                     	;# 
   190  0081                     	;# 
   191  0085                     	;# 
   192  0086                     	;# 
   193  0087                     	;# 
   194  0088                     	;# 
   195  0089                     	;# 
   196  008C                     	;# 
   197  008D                     	;# 
   198  008E                     	;# 
   199  0091                     	;# 
   200  0092                     	;# 
   201  0093                     	;# 
   202  0094                     	;# 
   203  0098                     	;# 
   204  0099                     	;# 
   205  009C                     	;# 
   206  009D                     	;# 
   207  009E                     	;# 
   208  009F                     	;# 
   209  010C                     	;# 
   210  010D                     	;# 
   211  010E                     	;# 
   212  010F                     	;# 
   213  018C                     	;# 
   214  018D                     	;# 
   215                           
   216                           	psect	idataBANK0
   217  07E2                     __pidataBANK0:	
   218                           
   219                           ;initializer for _chk
   220  07E2  3445               	retlw	69
   221  07E3  346E               	retlw	110
   222  07E4  3474               	retlw	116
   223  07E5  3465               	retlw	101
   224  07E6  3472               	retlw	114
   225  07E7  3420               	retlw	32
   226  07E8  3450               	retlw	80
   227  07E9  3461               	retlw	97
   228  07EA  3473               	retlw	115
   229  07EB  3473               	retlw	115
   230  07EC  3477               	retlw	119
   231  07ED  346F               	retlw	111
   232  07EE  3472               	retlw	114
   233  07EF  3464               	retlw	100
   234  07F0  343A               	retlw	58
   235  07F1  3400               	retlw	0
   236                           
   237                           ;initializer for _suc
   238  07F2  3448               	retlw	72
   239  07F3  3461               	retlw	97
   240  07F4  3470               	retlw	112
   241  07F5  3470               	retlw	112
   242  07F6  3479               	retlw	121
   243  07F7  3420               	retlw	32
   244  07F8  3444               	retlw	68
   245  07F9  3472               	retlw	114
   246  07FA  3469               	retlw	105
   247  07FB  3476               	retlw	118
   248  07FC  3465               	retlw	101
   249  07FD  3420               	retlw	32
   250  07FE  3421               	retlw	33
   251  07FF  3400               	retlw	0
   252                           
   253                           	psect	idataBANK1
   254  1776                     __pidataBANK1:	
   255                           
   256                           ;initializer for _pschng
   257  1776  3450               	retlw	80
   258  1777  3461               	retlw	97
   259  1778  3473               	retlw	115
   260  1779  3473               	retlw	115
   261  177A  3477               	retlw	119
   262  177B  346F               	retlw	111
   263  177C  3472               	retlw	114
   264  177D  3464               	retlw	100
   265  177E  3420               	retlw	32
   266  177F  3443               	retlw	67
   267  1780  3468               	retlw	104
   268  1781  3461               	retlw	97
   269  1782  346E               	retlw	110
   270  1783  3467               	retlw	103
   271  1784  3465               	retlw	101
   272  1785  3464               	retlw	100
   273  1786  3400               	retlw	0
   274                           
   275                           ;initializer for _rng
   276  1787  3457               	retlw	87
   277  1788  3452               	retlw	82
   278  1789  344F               	retlw	79
   279  178A  344E               	retlw	78
   280  178B  3447               	retlw	71
   281  178C  3420               	retlw	32
   282  178D  3450               	retlw	80
   283  178E  3441               	retlw	65
   284  178F  3453               	retlw	83
   285  1790  3453               	retlw	83
   286  1791  3457               	retlw	87
   287  1792  344F               	retlw	79
   288  1793  3452               	retlw	82
   289  1794  3444               	retlw	68
   290  1795  3421               	retlw	33
   291  1796  3400               	retlw	0
   292                           
   293                           ;initializer for _new
   294  1797  344E               	retlw	78
   295  1798  3445               	retlw	69
   296  1799  3457               	retlw	87
   297  179A  3420               	retlw	32
   298  179B  3450               	retlw	80
   299  179C  3461               	retlw	97
   300  179D  3473               	retlw	115
   301  179E  3473               	retlw	115
   302  179F  3477               	retlw	119
   303  17A0  346F               	retlw	111
   304  17A1  3472               	retlw	114
   305  17A2  3464               	retlw	100
   306  17A3  3420               	retlw	32
   307  17A4  343A               	retlw	58
   308  17A5  3400               	retlw	0
   309                           
   310                           ;initializer for _old
   311  17A6  344F               	retlw	79
   312  17A7  344C               	retlw	76
   313  17A8  3444               	retlw	68
   314  17A9  3420               	retlw	32
   315  17AA  3450               	retlw	80
   316  17AB  3461               	retlw	97
   317  17AC  3473               	retlw	115
   318  17AD  3473               	retlw	115
   319  17AE  3477               	retlw	119
   320  17AF  346F               	retlw	111
   321  17B0  3472               	retlw	114
   322  17B1  3464               	retlw	100
   323  17B2  3420               	retlw	32
   324  17B3  343A               	retlw	58
   325  17B4  3400               	retlw	0
   326                           
   327                           	psect	bitnvBANK0
   328  0318                     __pbitnvBANK0:	
   329  0318                     _D:	
   330  0318                     	ds	1
   331  0319                     _I_D:	
   332  0319                     	ds	1
   333  031A                     _N:	
   334  031A                     	ds	1
   335  0006                     _PORTB	set	6
   336  0007                     _PORTC	set	7
   337  0008                     _PORTD	set	8
   338  0010                     _T1CON	set	16
   339  00F8                     _ADON	set	248
   340  0018                     _CARRY	set	24
   341  005F                     _GIE	set	95
   342  005C                     _INTE	set	92
   343  0059                     _INTF	set	89
   344  0028                     _RA0	set	40
   345  0029                     _RA1	set	41
   346  002A                     _RA2	set	42
   347  002B                     _RA3	set	43
   348  002D                     _RA5	set	45
   349  0034                     _RB4	set	52
   350  0035                     _RB5	set	53
   351  0036                     _RB6	set	54
   352  0037                     _RB7	set	55
   353  005B                     _RBIE	set	91
   354  0058                     _RBIF	set	88
   355  0038                     _RC0	set	56
   356  0039                     _RC1	set	57
   357  003A                     _RC2	set	58
   358  003B                     _RC3	set	59
   359  0048                     _RE0	set	72
   360  0049                     _RE1	set	73
   361  004A                     _RE2	set	74
   362  009F                     _ADCON1	set	159
   363  009C                     _CMCON	set	156
   364  0085                     _TRISA	set	133
   365  0086                     _TRISB	set	134
   366  0087                     _TRISC	set	135
   367  0088                     _TRISD	set	136
   368  04EF                     _CVREN	set	1263
   369  040E                     _INTEDG	set	1038
   370  040D                     _T0CS	set	1037
   371  0448                     _TRISE0	set	1096
   372  0449                     _TRISE1	set	1097
   373  044A                     _TRISE2	set	1098
   374  040F                     _nRBPU	set	1039
   375  010D                     _EEADR	set	269
   376  010C                     _EEDATA	set	268
   377  018C                     _EECON1	set	396
   378  018D                     _EECON2	set	397
   379  0C60                     _RD	set	3168
   380  0C61                     _WR	set	3169
   381  0C62                     _WREN	set	3170
   382                           
   383                           ; #config settings
   384  0000                     
   385                           	psect	cinit
   386  0015                     start_initialization:	
   387  0015                     __initialization:	
   388                           
   389                           ; Clear objects allocated to BITBANK0
   390  0015  01E2               	clrf	(__pbitbssBANK0/(0+8))& (0+127)
   391                           
   392                           ; Clear objects allocated to BANK0
   393  0016  01D7               	clrf	__pbssBANK0& (0+127)
   394  0017  01D8               	clrf	(__pbssBANK0+1)& (0+127)
   395  0018  01D9               	clrf	(__pbssBANK0+2)& (0+127)
   396  0019  01DA               	clrf	(__pbssBANK0+3)& (0+127)
   397  001A  01DB               	clrf	(__pbssBANK0+4)& (0+127)
   398  001B  01DC               	clrf	(__pbssBANK0+5)& (0+127)
   399  001C  01DD               	clrf	(__pbssBANK0+6)& (0+127)
   400  001D  01DE               	clrf	(__pbssBANK0+7)& (0+127)
   401  001E  01DF               	clrf	(__pbssBANK0+8)& (0+127)
   402  001F  01E0               	clrf	(__pbssBANK0+9)& (0+127)
   403  0020  01E1               	clrf	(__pbssBANK0+10)& (0+127)
   404                           
   405                           ; Initialize objects allocated to BANK1
   406  0021  1383               	bcf	3,7	;select IRP bank0
   407  0022  30DF               	movlw	low (__pdataBANK1+63)
   408  0023  00FD               	movwf	btemp+-1
   409  0024  3017               	movlw	high __pidataBANK1
   410  0025  00FE               	movwf	btemp
   411  0026  3076               	movlw	low __pidataBANK1
   412  0027  00FF               	movwf	btemp+1
   413  0028  30A0               	movlw	low __pdataBANK1
   414  0029  0084               	movwf	4
   415  002A  160A  118A  2642   	fcall	init_ram0
      +       120A  118A         
   416                           
   417                           ; Initialize objects allocated to BANK0
   418  002F  303E               	movlw	low (__pdataBANK0+30)
   419  0030  00FD               	movwf	btemp+-1
   420  0031  3007               	movlw	high __pidataBANK0
   421  0032  00FE               	movwf	btemp
   422  0033  30E2               	movlw	low __pidataBANK0
   423  0034  00FF               	movwf	btemp+1
   424  0035  3020               	movlw	low __pdataBANK0
   425  0036  0084               	movwf	4
   426  0037  160A  118A  2642   	fcall	init_ram0
   427  003A                     end_of_initialization:	
   428                           ;End of C runtime variable initialization code
   429                           
   430  003A                     __end_of__initialization:	
   431  003A  0183               	clrf	3
   432  003B  160A  118A  2FB5   	ljmp	_main	;jump to C main() function
   433                           
   434                           	psect	bitbssBANK0
   435  0310                     __pbitbssBANK0:	
   436  0310                     _B:	
   437  0310                     	ds	1
   438  0311                     _C:	
   439  0311                     	ds	1
   440  0312                     _F:	
   441  0312                     	ds	1
   442  0313                     _S:	
   443  0313                     	ds	1
   444  0314                     _paswd_chng:	
   445  0314                     	ds	1
   446  0315                     _wrn:	
   447  0315                     	ds	1
   448                           
   449                           	psect	bssBANK0
   450  0057                     __pbssBANK0:	
   451  0057                     _paswd:	
   452  0057                     	ds	4
   453  005B                     _bf_fails:	
   454  005B                     	ds	1
   455  005C                     _paswd0:	
   456  005C                     	ds	1
   457  005D                     _paswd1:	
   458  005D                     	ds	1
   459  005E                     _paswd2:	
   460  005E                     	ds	1
   461  005F                     _paswd3:	
   462  005F                     	ds	1
   463  0060                     _t0_ovs:	
   464  0060                     	ds	1
   465  0061                     _wrn_num:	
   466  0061                     	ds	1
   467                           
   468                           	psect	dataBANK0
   469  0020                     __pdataBANK0:	
   470  0020                     _chk:	
   471  0020                     	ds	16
   472  0030                     _suc:	
   473  0030                     	ds	14
   474                           
   475                           	psect	dataBANK1
   476  00A0                     __pdataBANK1:	
   477  00A0                     _pschng:	
   478  00A0                     	ds	17
   479  00B1                     _rng:	
   480  00B1                     	ds	16
   481  00C1                     _new:	
   482  00C1                     	ds	15
   483  00D0                     _old:	
   484  00D0                     	ds	15
   485                           
   486                           	psect	inittext
   487  163E                     init_fetch0:	
   488                           ;	Called with low address in FSR and high address in W
   489                           
   490  163E  087E               	movf	126,w
   491  163F  008A               	movwf	10
   492  1640  087F               	movf	127,w
   493  1641  0082               	movwf	2
   494  1642                     init_ram0:	
   495                           ;Called with:
   496                           ;	high address of idata address in btemp 
   497                           ;	low address of idata address in btemp+1 
   498                           ;	low address of data in FSR
   499                           ;	high address + 1 of data in btemp-1
   500                           
   501  1642  263E  160A  118A   	fcall	init_fetch0
   502  1645  0080               	movwf	0
   503  1646  0A84               	incf	4,f
   504  1647  0804               	movf	4,w
   505  1648  067D               	xorwf	125,w
   506  1649  1903               	btfsc	3,2
   507  164A  3400               	retlw	0
   508  164B  0AFF               	incf	127,f
   509  164C  1903               	btfsc	3,2
   510  164D  0AFE               	incf	126,f
   511  164E  2E42               	goto	init_ram0
   512                           
   513                           	psect	cstackBANK1
   514  00DF                     __pcstackBANK1:	
   515  00DF                     ??_chk_bf:	
   516                           
   517                           ; 0 bytes @ 0x0
   518  00DF                     	ds	1
   519  00E0                     chk_bf@bf:	
   520                           
   521                           ; 1 bytes @ 0x1
   522  00E0                     	ds	1
   523  00E1                     ??_init:	
   524                           
   525                           ; 0 bytes @ 0x2
   526  00E1                     	ds	2
   527  00E3                     init@temp:	
   528                           
   529                           ; 1 bytes @ 0x4
   530  00E3                     	ds	1
   531  00E4                     ??_main:	
   532                           
   533                           ; 0 bytes @ 0x5
   534  00E4                     	ds	1
   535                           
   536                           	psect	cstackCOMMON
   537  0070                     __pcstackCOMMON:	
   538  0070                     ??_spec_func4:	
   539  0070                     ?_eeprom_write:	
   540                           ; 0 bytes @ 0x0
   541                           
   542  0070                     ??_eeprom_read:	
   543                           ; 0 bytes @ 0x0
   544                           
   545  0070                     ??_spec_func1:	
   546                           ; 0 bytes @ 0x0
   547                           
   548  0070                     ?_isr:	
   549                           ; 0 bytes @ 0x0
   550                           
   551  0070                     ?_main:	
   552                           ; 0 bytes @ 0x0
   553                           
   554  0070                     ??i1_chk_bf:	
   555                           ; 0 bytes @ 0x0
   556                           
   557  0070                     ?_init:	
   558                           ; 0 bytes @ 0x0
   559                           
   560  0070                     ?_spec_func4:	
   561                           ; 1 bytes @ 0x0
   562                           
   563  0070                     ?_eeprom_read:	
   564                           ; 1 bytes @ 0x0
   565                           
   566  0070                     ?_keypad_read:	
   567                           ; 1 bytes @ 0x0
   568                           
   569  0070                     ?_disp_off:	
   570                           ; 1 bytes @ 0x0
   571                           
   572  0070                     ?_spec_func1:	
   573                           ; 1 bytes @ 0x0
   574                           
   575  0070                     ?_read:	
   576                           ; 1 bytes @ 0x0
   577                           
   578  0070                     ?_spec_func2:	
   579                           ; 1 bytes @ 0x0
   580                           
   581  0070                     ?_spec_func3:	
   582                           ; 1 bytes @ 0x0
   583                           
   584  0070                     ?_chk_bf:	
   585                           ; 1 bytes @ 0x0
   586                           
   587  0070                     ?i1_chk_bf:	
   588                           ; 1 bytes @ 0x0
   589                           
   590  0070                     ?i1_init:	
   591                           ; 1 bytes @ 0x0
   592                           
   593  0070                     ?___lmul:	
   594                           ; 1 bytes @ 0x0
   595                           
   596  0070                     spec_func1@input:	
   597                           ; 4 bytes @ 0x0
   598                           
   599  0070                     spec_func3@input:	
   600                           ; 1 bytes @ 0x0
   601                           
   602  0070                     spec_func4@input:	
   603                           ; 1 bytes @ 0x0
   604                           
   605  0070                     eeprom_write@value:	
   606                           ; 1 bytes @ 0x0
   607                           
   608  0070                     ___lmul@multiplier:	
   609                           ; 1 bytes @ 0x0
   610                           
   611                           
   612                           ; 4 bytes @ 0x0
   613  0070                     	ds	1
   614  0071                     ??_eeprom_write:	
   615  0071                     eeprom_read@addr:	
   616                           ; 0 bytes @ 0x1
   617                           
   618  0071                     i1chk_bf@bf:	
   619                           ; 1 bytes @ 0x1
   620                           
   621                           
   622                           ; 1 bytes @ 0x1
   623  0071                     	ds	1
   624  0072                     ??_disp_off:	
   625  0072                     ??i1_init:	
   626                           ; 0 bytes @ 0x2
   627                           
   628  0072                     ?_disp:	
   629                           ; 0 bytes @ 0x2
   630                           
   631  0072                     eeprom_write@addr:	
   632                           ; 1 bytes @ 0x2
   633                           
   634  0072                     disp@cnt:	
   635                           ; 1 bytes @ 0x2
   636                           
   637                           
   638                           ; 2 bytes @ 0x2
   639  0072                     	ds	2
   640  0074                     disp@linum:	
   641  0074                     i1init@temp:	
   642                           ; 1 bytes @ 0x4
   643                           
   644  0074                     ___lmul@multiplicand:	
   645                           ; 1 bytes @ 0x4
   646                           
   647                           
   648                           ; 4 bytes @ 0x4
   649  0074                     	ds	1
   650  0075                     ??_disp:	
   651  0075                     ??_spec_func3:	
   652                           ; 0 bytes @ 0x5
   653                           
   654                           
   655                           ; 0 bytes @ 0x5
   656  0075                     	ds	2
   657  0077                     disp@line:	
   658                           
   659                           ; 1 bytes @ 0x7
   660  0077                     	ds	1
   661  0078                     ??___lmul:	
   662  0078                     disp@i:	
   663                           ; 0 bytes @ 0x8
   664                           
   665                           
   666                           ; 2 bytes @ 0x8
   667  0078                     	ds	1
   668  0079                     ___lmul@product:	
   669                           
   670                           ; 4 bytes @ 0x9
   671  0079                     	ds	1
   672  007A                     disp@ch:	
   673                           
   674                           ; 1 bytes @ 0xA
   675  007A                     	ds	3
   676  007D                     read@inp:	
   677                           
   678                           ; 1 bytes @ 0xD
   679  007D                     	ds	1
   680                           
   681                           	psect	cstackBANK0
   682  003E                     __pcstackBANK0:	
   683  003E                     ??_read:	
   684                           
   685                           ; 0 bytes @ 0x0
   686  003E                     	ds	2
   687  0040                     ??_spec_func2:	
   688                           
   689                           ; 0 bytes @ 0x2
   690  0040                     	ds	4
   691  0044                     spec_func2@inp:	
   692                           
   693                           ; 1 bytes @ 0x6
   694  0044                     	ds	1
   695  0045                     spec_func2@temp:	
   696                           
   697                           ; 4 bytes @ 0x7
   698  0045                     	ds	4
   699  0049                     ??_keypad_read:	
   700                           
   701                           ; 0 bytes @ 0xB
   702  0049                     	ds	2
   703  004B                     keypad_read@input:	
   704                           
   705                           ; 1 bytes @ 0xD
   706  004B                     	ds	1
   707  004C                     ??_isr:	
   708                           
   709                           ; 0 bytes @ 0xE
   710  004C                     	ds	6
   711  0052                     isr@temp:	
   712                           
   713                           ; 1 bytes @ 0x14
   714  0052                     	ds	1
   715  0053                     isr@input:	
   716                           
   717                           ; 4 bytes @ 0x15
   718  0053                     	ds	4
   719                           
   720                           	psect	maintext
   721  17B5                     __pmaintext:	
   722 ;;
   723 ;;Main: autosize = 0, tempsize = 1, incstack = 0, save=0
   724 ;;
   725 ;; *************** function _main *****************
   726 ;; Defined at:
   727 ;;		line 368 in file "CarPassword.c"
   728 ;; Parameters:    Size  Location     Type
   729 ;;		None
   730 ;; Auto vars:     Size  Location     Type
   731 ;;		None
   732 ;; Return value:  Size  Location     Type
   733 ;;		None               void
   734 ;; Registers used:
   735 ;;		wreg, status,2, status,0, pclath, cstack
   736 ;; Tracked objects:
   737 ;;		On entry : 17F/0
   738 ;;		On exit  : 0/0
   739 ;;		Unchanged: 0/0
   740 ;; Data sizes:     COMMON   BANK0   BANK1   BANK3   BANK2
   741 ;;      Params:         0       0       0       0       0
   742 ;;      Locals:         0       0       0       0       0
   743 ;;      Temps:          0       0       1       0       0
   744 ;;      Totals:         0       0       1       0       0
   745 ;;Total ram usage:        1 bytes
   746 ;; Hardware stack levels required when called:    8
   747 ;; This function calls:
   748 ;;		_init
   749 ;; This function is called by:
   750 ;;		Startup code after reset
   751 ;; This function uses a non-reentrant model
   752 ;;
   753                           
   754                           
   755                           ;psect for function _main
   756  17B5                     _main:	
   757                           
   758                           ;CarPassword.c: 369: T1CON = 0x00;
   759                           
   760                           ;incstack = 0
   761                           ; Regs used in _main: [wreg+status,2+status,0+pclath+cstack]
   762  17B5  1283               	bcf	3,5	;RP0=0, select bank0
   763  17B6  1303               	bcf	3,6	;RP1=0, select bank0
   764  17B7  0190               	clrf	16	;volatile
   765                           
   766                           ;CarPassword.c: 370: TRISC = 0x00;
   767  17B8  1683               	bsf	3,5	;RP0=1, select bank1
   768  17B9  1303               	bcf	3,6	;RP1=0, select bank1
   769  17BA  0187               	clrf	7	;volatile
   770                           
   771                           ;CarPassword.c: 371: TRISD = 0xF0;
   772  17BB  30F0               	movlw	240
   773  17BC  0088               	movwf	8	;volatile
   774                           
   775                           ;CarPassword.c: 372: CMCON |= 0x07;
   776  17BD  3007               	movlw	7
   777  17BE  00E4               	movwf	??_main^(0+128)
   778  17BF  0864               	movf	??_main^(0+128),w
   779  17C0  049C               	iorwf	28,f	;volatile
   780                           
   781                           ;CarPassword.c: 373: CVREN = 0b0;
   782  17C1  139D               	bcf	29,7	;volatile
   783                           
   784                           ;CarPassword.c: 374: ADCON1 = 0x07;
   785  17C2  3007               	movlw	7
   786  17C3  009F               	movwf	31	;volatile
   787                           
   788                           ;CarPassword.c: 375: ADON = 0b0;
   789  17C4  1283               	bcf	3,5	;RP0=0, select bank0
   790  17C5  1303               	bcf	3,6	;RP1=0, select bank0
   791  17C6  101F               	bcf	31,0	;volatile
   792                           
   793                           ;CarPassword.c: 376: T0CS = 0b0;
   794  17C7  1683               	bsf	3,5	;RP0=1, select bank1
   795  17C8  1303               	bcf	3,6	;RP1=0, select bank1
   796  17C9  1281               	bcf	1,5	;volatile
   797                           
   798                           ;CarPassword.c: 377: TRISA = 0x00;
   799  17CA  0185               	clrf	5	;volatile
   800                           
   801                           ;CarPassword.c: 378: TRISB = 0xFF;
   802  17CB  30FF               	movlw	255
   803  17CC  0086               	movwf	6	;volatile
   804                           
   805                           ;CarPassword.c: 379: nRBPU = 0b0;
   806  17CD  1381               	bcf	1,7	;volatile
   807                           
   808                           ;CarPassword.c: 380: RBIF = 0b0;
   809  17CE  100B               	bcf	11,0	;volatile
   810                           
   811                           ;CarPassword.c: 381: RBIE = 0b1;
   812  17CF  158B               	bsf	11,3	;volatile
   813                           
   814                           ;CarPassword.c: 382: INTF = 0b0;
   815  17D0  108B               	bcf	11,1	;volatile
   816                           
   817                           ;CarPassword.c: 383: INTEDG = 0b0;
   818  17D1  1301               	bcf	1,6	;volatile
   819                           
   820                           ;CarPassword.c: 384: INTE = 0b1;
   821  17D2  160B               	bsf	11,4	;volatile
   822                           
   823                           ;CarPassword.c: 385: paswd_chng = 0b0;
   824  17D3  1283               	bcf	3,5	;RP0=0, select bank0
   825  17D4  1303               	bcf	3,6	;RP1=0, select bank0
   826  17D5  1262               	bcf	_paswd_chng/(0+8),_paswd_chng& (0+7)	;volatile
   827                           
   828                           ;CarPassword.c: 386: N=0b1;
   829  17D6  1563               	bsf	_N/(0+8),_N& (0+7)	;volatile
   830                           
   831                           ;CarPassword.c: 387: F=0b0;
   832  17D7  1162               	bcf	_F/(0+8),_F& (0+7)	;volatile
   833                           
   834                           ;CarPassword.c: 388: D=0b1;
   835  17D8  1463               	bsf	_D/(0+8),_D& (0+7)	;volatile
   836                           
   837                           ;CarPassword.c: 389: C=0b0;
   838  17D9  10E2               	bcf	_C/(0+8),_C& (0+7)	;volatile
   839                           
   840                           ;CarPassword.c: 390: B=0b0;
   841  17DA  1062               	bcf	_B/(0+8),_B& (0+7)	;volatile
   842                           
   843                           ;CarPassword.c: 391: I_D=0b1;
   844  17DB  14E3               	bsf	_I_D/(0+8),_I_D& (0+7)	;volatile
   845                           
   846                           ;CarPassword.c: 392: S=0b0;
   847  17DC  11E2               	bcf	_S/(0+8),_S& (0+7)	;volatile
   848                           
   849                           ;CarPassword.c: 393: wrn = 0b0;
   850  17DD  12E2               	bcf	_wrn/(0+8),_wrn& (0+7)	;volatile
   851                           
   852                           ;CarPassword.c: 394: wrn_num = 0;
   853  17DE  01E1               	clrf	_wrn_num	;volatile
   854                           
   855                           ;CarPassword.c: 395: RA3 = 0b0;
   856  17DF  1185               	bcf	5,3	;volatile
   857                           
   858                           ;CarPassword.c: 396: TRISE0 = 0b0;
   859  17E0  1683               	bsf	3,5	;RP0=1, select bank1
   860  17E1  1303               	bcf	3,6	;RP1=0, select bank1
   861  17E2  1009               	bcf	9,0	;volatile
   862                           
   863                           ;CarPassword.c: 397: TRISE1 = 0b0;
   864  17E3  1089               	bcf	9,1	;volatile
   865                           
   866                           ;CarPassword.c: 398: TRISE2 = 0b0;
   867  17E4  1109               	bcf	9,2	;volatile
   868                           
   869                           ;CarPassword.c: 399: RE0 = 0b1;
   870  17E5  1283               	bcf	3,5	;RP0=0, select bank0
   871  17E6  1303               	bcf	3,6	;RP1=0, select bank0
   872  17E7  1409               	bsf	9,0	;volatile
   873                           
   874                           ;CarPassword.c: 400: RA0 = 0b0;
   875  17E8  1005               	bcf	5,0	;volatile
   876                           
   877                           ;CarPassword.c: 401: RA1 = 0b0;
   878  17E9  1085               	bcf	5,1	;volatile
   879                           
   880                           ;CarPassword.c: 402: RE1 = 0b0;
   881  17EA  1089               	bcf	9,1	;volatile
   882                           
   883                           ;CarPassword.c: 403: RE2 = 0b0;
   884  17EB  1109               	bcf	9,2	;volatile
   885                           
   886                           ;CarPassword.c: 404: RA2 = 0b1;
   887  17EC  1505               	bsf	5,2	;volatile
   888                           
   889                           ;CarPassword.c: 405: if(init() == 0)
   890  17ED  120A  158A  2615   	fcall	_init
      +       160A  118A         
   891  17F2  3800               	iorlw	0
   892  17F3  1D03               	skipz
   893  17F4  2FF9               	goto	l218
   894                           
   895                           ;CarPassword.c: 406: RA5 = 0b0;
   896  17F5  1283               	bcf	3,5	;RP0=0, select bank0
   897  17F6  1303               	bcf	3,6	;RP1=0, select bank0
   898  17F7  1285               	bcf	5,5	;volatile
   899  17F8  2FFC               	goto	l4575
   900  17F9                     l218:	
   901                           
   902                           ;CarPassword.c: 407: else
   903                           ;CarPassword.c: 408: RA5 = 0b1;
   904  17F9  1283               	bcf	3,5	;RP0=0, select bank0
   905  17FA  1303               	bcf	3,6	;RP1=0, select bank0
   906  17FB  1685               	bsf	5,5	;volatile
   907  17FC                     l4575:	
   908                           
   909                           ;CarPassword.c: 409: PORTB;
   910  17FC  0806               	movf	6,w	;volatile
   911                           
   912                           ;CarPassword.c: 410: GIE = 0b1;
   913  17FD  178B               	bsf	11,7	;volatile
   914  17FE                     l220:	
   915                           ;CarPassword.c: 411: while(1)
   916                           
   917  17FE  0063               	sleep	;# 
   918  17FF  2FFE               	goto	l220
   919  1800                     __end_of_main:	
   920                           
   921                           	psect	text1
   922  0E15                     __ptext1:	
   923 ;; *************** function _init *****************
   924 ;; Defined at:
   925 ;;		line 44 in file "ST7066U_4bit.c"
   926 ;; Parameters:    Size  Location     Type
   927 ;;		None
   928 ;; Auto vars:     Size  Location     Type
   929 ;;  temp            1    4[BANK1 ] volatile unsigned char 
   930 ;; Return value:  Size  Location     Type
   931 ;;                  1    wreg      unsigned char 
   932 ;; Registers used:
   933 ;;		wreg, status,2, status,0, pclath, cstack
   934 ;; Tracked objects:
   935 ;;		On entry : 0/0
   936 ;;		On exit  : 0/0
   937 ;;		Unchanged: 0/0
   938 ;; Data sizes:     COMMON   BANK0   BANK1   BANK3   BANK2
   939 ;;      Params:         0       0       0       0       0
   940 ;;      Locals:         0       0       1       0       0
   941 ;;      Temps:          0       0       2       0       0
   942 ;;      Totals:         0       0       3       0       0
   943 ;;Total ram usage:        3 bytes
   944 ;; Hardware stack levels used:    1
   945 ;; Hardware stack levels required when called:    7
   946 ;; This function calls:
   947 ;;		_chk_bf
   948 ;; This function is called by:
   949 ;;		_main
   950 ;; This function uses a non-reentrant model
   951 ;;
   952                           
   953                           
   954                           ;psect for function _init
   955  0E15                     _init:	
   956                           
   957                           ;ST7066U_4bit.c: 45: volatile unsigned char temp;
   958                           ;ST7066U_4bit.c: 46: _delay((unsigned long)((50)*(4000000/4000.0)));
   959                           
   960                           ;incstack = 0
   961                           ; Regs used in _init: [wreg+status,2+status,0+pclath+cstack]
   962  0E15  3041               	movlw	65
   963  0E16  1683               	bsf	3,5	;RP0=1, select bank1
   964  0E17  1303               	bcf	3,6	;RP1=0, select bank1
   965  0E18  00E2               	movwf	(??_init^(0+128)+1)
   966  0E19  30EE               	movlw	238
   967  0E1A  00E1               	movwf	??_init^(0+128)
   968  0E1B                     u2667:	
   969  0E1B  0BE1               	decfsz	??_init^(0+128),f
   970  0E1C  2E1B               	goto	u2667
   971  0E1D  0BE2               	decfsz	(??_init^(0+128)+1),f
   972  0E1E  2E1B               	goto	u2667
   973  0E1F  0000               	nop
   974                           
   975                           ;ST7066U_4bit.c: 47: RC3=0b0;
   976  0E20  1283               	bcf	3,5	;RP0=0, select bank0
   977  0E21  1303               	bcf	3,6	;RP1=0, select bank0
   978  0E22  1187               	bcf	7,3	;volatile
   979                           
   980                           ;ST7066U_4bit.c: 48: temp = 0x30;
   981  0E23  3030               	movlw	48
   982  0E24  1683               	bsf	3,5	;RP0=1, select bank1
   983  0E25  1303               	bcf	3,6	;RP1=0, select bank1
   984  0E26  00E1               	movwf	??_init^(0+128)
   985  0E27  0861               	movf	??_init^(0+128),w
   986  0E28  00E3               	movwf	init@temp^(0+128)	;volatile
   987                           
   988                           ;ST7066U_4bit.c: 49: RC1 = 0b0;
   989  0E29  1283               	bcf	3,5	;RP0=0, select bank0
   990  0E2A  1303               	bcf	3,6	;RP1=0, select bank0
   991  0E2B  1087               	bcf	7,1	;volatile
   992                           
   993                           ;ST7066U_4bit.c: 50: RC2 = 0b0;
   994  0E2C  1107               	bcf	7,2	;volatile
   995                           
   996                           ;ST7066U_4bit.c: 51: PORTC &= 0x0F;
   997  0E2D  300F               	movlw	15
   998  0E2E  1683               	bsf	3,5	;RP0=1, select bank1
   999  0E2F  1303               	bcf	3,6	;RP1=0, select bank1
  1000  0E30  00E1               	movwf	??_init^(0+128)
  1001  0E31  0861               	movf	??_init^(0+128),w
  1002  0E32  1283               	bcf	3,5	;RP0=0, select bank0
  1003  0E33  1303               	bcf	3,6	;RP1=0, select bank0
  1004  0E34  0587               	andwf	7,f	;volatile
  1005                           
  1006                           ;ST7066U_4bit.c: 52: RC3 = 0b1;
  1007  0E35  1587               	bsf	7,3	;volatile
  1008                           
  1009                           ;ST7066U_4bit.c: 53: PORTC |= temp;
  1010  0E36  1683               	bsf	3,5	;RP0=1, select bank1
  1011  0E37  1303               	bcf	3,6	;RP1=0, select bank1
  1012  0E38  0863               	movf	init@temp^(0+128),w	;volatile
  1013  0E39  00E1               	movwf	??_init^(0+128)
  1014  0E3A  0861               	movf	??_init^(0+128),w
  1015  0E3B  1283               	bcf	3,5	;RP0=0, select bank0
  1016  0E3C  1303               	bcf	3,6	;RP1=0, select bank0
  1017  0E3D  0487               	iorwf	7,f	;volatile
  1018                           
  1019                           ;ST7066U_4bit.c: 54: _delay((unsigned long)((4)*(4000000/4000000.0)));
  1020  0E3E  2E3F               	nop2	;2 cycle nop
  1021  0E3F  2E40               	nop2	;2 cycle nop
  1022                           
  1023                           ;ST7066U_4bit.c: 55: RC3 = 0b0;
  1024  0E40  1283               	bcf	3,5	;RP0=0, select bank0
  1025  0E41  1303               	bcf	3,6	;RP1=0, select bank0
  1026  0E42  1187               	bcf	7,3	;volatile
  1027                           
  1028                           ;ST7066U_4bit.c: 56: _delay((unsigned long)((40)*(4000000/4000000.0)));
  1029  0E43  300D               	movlw	13
  1030  0E44  1683               	bsf	3,5	;RP0=1, select bank1
  1031  0E45  1303               	bcf	3,6	;RP1=0, select bank1
  1032  0E46  00E1               	movwf	??_init^(0+128)
  1033  0E47                     u2677:	
  1034  0E47  0BE1               	decfsz	??_init^(0+128),f
  1035  0E48  2E47               	goto	u2677
  1036                           
  1037                           ;ST7066U_4bit.c: 57: temp = 0x20;
  1038  0E49  3020               	movlw	32
  1039  0E4A  1683               	bsf	3,5	;RP0=1, select bank1
  1040  0E4B  1303               	bcf	3,6	;RP1=0, select bank1
  1041  0E4C  00E1               	movwf	??_init^(0+128)
  1042  0E4D  0861               	movf	??_init^(0+128),w
  1043  0E4E  00E3               	movwf	init@temp^(0+128)	;volatile
  1044                           
  1045                           ;ST7066U_4bit.c: 58: PORTC &= 0x0F;
  1046  0E4F  300F               	movlw	15
  1047  0E50  00E1               	movwf	??_init^(0+128)
  1048  0E51  0861               	movf	??_init^(0+128),w
  1049  0E52  1283               	bcf	3,5	;RP0=0, select bank0
  1050  0E53  1303               	bcf	3,6	;RP1=0, select bank0
  1051  0E54  0587               	andwf	7,f	;volatile
  1052                           
  1053                           ;ST7066U_4bit.c: 59: RC3 = 0b1;
  1054  0E55  1587               	bsf	7,3	;volatile
  1055                           
  1056                           ;ST7066U_4bit.c: 60: PORTC |= temp;
  1057  0E56  1683               	bsf	3,5	;RP0=1, select bank1
  1058  0E57  1303               	bcf	3,6	;RP1=0, select bank1
  1059  0E58  0863               	movf	init@temp^(0+128),w	;volatile
  1060  0E59  00E1               	movwf	??_init^(0+128)
  1061  0E5A  0861               	movf	??_init^(0+128),w
  1062  0E5B  1283               	bcf	3,5	;RP0=0, select bank0
  1063  0E5C  1303               	bcf	3,6	;RP1=0, select bank0
  1064  0E5D  0487               	iorwf	7,f	;volatile
  1065                           
  1066                           ;ST7066U_4bit.c: 61: _delay((unsigned long)((4)*(4000000/4000000.0)));
  1067  0E5E  2E5F               	nop2	;2 cycle nop
  1068  0E5F  2E60               	nop2	;2 cycle nop
  1069                           
  1070                           ;ST7066U_4bit.c: 62: RC3 = 0b0;
  1071  0E60  1283               	bcf	3,5	;RP0=0, select bank0
  1072  0E61  1303               	bcf	3,6	;RP1=0, select bank0
  1073  0E62  1187               	bcf	7,3	;volatile
  1074                           
  1075                           ;ST7066U_4bit.c: 63: temp = 0x00;
  1076  0E63  1683               	bsf	3,5	;RP0=1, select bank1
  1077  0E64  1303               	bcf	3,6	;RP1=0, select bank1
  1078  0E65  01E3               	clrf	init@temp^(0+128)	;volatile
  1079                           
  1080                           ;ST7066U_4bit.c: 64: if(N == 0b1)
  1081  0E66  1283               	bcf	3,5	;RP0=0, select bank0
  1082  0E67  1303               	bcf	3,6	;RP1=0, select bank0
  1083  0E68  1D63               	btfss	_N/(0+8),_N& (0+7)	;volatile
  1084  0E69  2E6D               	goto	l4309
  1085                           
  1086                           ;ST7066U_4bit.c: 65: temp |= 0x01;
  1087  0E6A  1683               	bsf	3,5	;RP0=1, select bank1
  1088  0E6B  1303               	bcf	3,6	;RP1=0, select bank1
  1089  0E6C  1463               	bsf	init@temp^(0+128),0	;volatile
  1090  0E6D                     l4309:	
  1091                           
  1092                           ;ST7066U_4bit.c: 66: temp <<= 1;
  1093  0E6D  1003               	clrc
  1094  0E6E  1683               	bsf	3,5	;RP0=1, select bank1
  1095  0E6F  1303               	bcf	3,6	;RP1=0, select bank1
  1096  0E70  0DE3               	rlf	init@temp^(0+128),f	;volatile
  1097                           
  1098                           ;ST7066U_4bit.c: 67: if(F == 0b1)
  1099  0E71  1283               	bcf	3,5	;RP0=0, select bank0
  1100  0E72  1303               	bcf	3,6	;RP1=0, select bank0
  1101  0E73  1D62               	btfss	_F/(0+8),_F& (0+7)	;volatile
  1102  0E74  2E78               	goto	l4315
  1103                           
  1104                           ;ST7066U_4bit.c: 68: temp |= 0x01;
  1105  0E75  1683               	bsf	3,5	;RP0=1, select bank1
  1106  0E76  1303               	bcf	3,6	;RP1=0, select bank1
  1107  0E77  1463               	bsf	init@temp^(0+128),0	;volatile
  1108  0E78                     l4315:	
  1109                           
  1110                           ;ST7066U_4bit.c: 69: temp <<= 6;
  1111  0E78  1683               	bsf	3,5	;RP0=1, select bank1
  1112  0E79  1303               	bcf	3,6	;RP1=0, select bank1
  1113  0E7A  0EE3               	swapf	init@temp^(0+128),f	;volatile
  1114  0E7B  0DE3               	rlf	init@temp^(0+128),f	;volatile
  1115  0E7C  0DE3               	rlf	init@temp^(0+128),f	;volatile
  1116  0E7D  30C0               	movlw	192
  1117  0E7E  05E3               	andwf	init@temp^(0+128),f	;volatile
  1118                           
  1119                           ;ST7066U_4bit.c: 70: PORTC &= 0x0F;
  1120  0E7F  300F               	movlw	15
  1121  0E80  00E1               	movwf	??_init^(0+128)
  1122  0E81  0861               	movf	??_init^(0+128),w
  1123  0E82  1283               	bcf	3,5	;RP0=0, select bank0
  1124  0E83  1303               	bcf	3,6	;RP1=0, select bank0
  1125  0E84  0587               	andwf	7,f	;volatile
  1126                           
  1127                           ;ST7066U_4bit.c: 71: RC3 = 0b1;
  1128  0E85  1587               	bsf	7,3	;volatile
  1129                           
  1130                           ;ST7066U_4bit.c: 72: PORTC |= temp;
  1131  0E86  1683               	bsf	3,5	;RP0=1, select bank1
  1132  0E87  1303               	bcf	3,6	;RP1=0, select bank1
  1133  0E88  0863               	movf	init@temp^(0+128),w	;volatile
  1134  0E89  00E1               	movwf	??_init^(0+128)
  1135  0E8A  0861               	movf	??_init^(0+128),w
  1136  0E8B  1283               	bcf	3,5	;RP0=0, select bank0
  1137  0E8C  1303               	bcf	3,6	;RP1=0, select bank0
  1138  0E8D  0487               	iorwf	7,f	;volatile
  1139                           
  1140                           ;ST7066U_4bit.c: 73: _delay((unsigned long)((4)*(4000000/4000000.0)));
  1141  0E8E  2E8F               	nop2	;2 cycle nop
  1142  0E8F  2E90               	nop2	;2 cycle nop
  1143                           
  1144                           ;ST7066U_4bit.c: 74: RC3 = 0b0;
  1145  0E90  1283               	bcf	3,5	;RP0=0, select bank0
  1146  0E91  1303               	bcf	3,6	;RP1=0, select bank0
  1147  0E92  1187               	bcf	7,3	;volatile
  1148                           
  1149                           ;ST7066U_4bit.c: 75: _delay((unsigned long)((40)*(4000000/4000000.0)));
  1150  0E93  300D               	movlw	13
  1151  0E94  1683               	bsf	3,5	;RP0=1, select bank1
  1152  0E95  1303               	bcf	3,6	;RP1=0, select bank1
  1153  0E96  00E1               	movwf	??_init^(0+128)
  1154  0E97                     u2687:	
  1155  0E97  0BE1               	decfsz	??_init^(0+128),f
  1156  0E98  2E97               	goto	u2687
  1157                           
  1158                           ;ST7066U_4bit.c: 76: temp = 0x20;
  1159  0E99  3020               	movlw	32
  1160  0E9A  1683               	bsf	3,5	;RP0=1, select bank1
  1161  0E9B  1303               	bcf	3,6	;RP1=0, select bank1
  1162  0E9C  00E1               	movwf	??_init^(0+128)
  1163  0E9D  0861               	movf	??_init^(0+128),w
  1164  0E9E  00E3               	movwf	init@temp^(0+128)	;volatile
  1165                           
  1166                           ;ST7066U_4bit.c: 77: PORTC &= 0x0F;
  1167  0E9F  300F               	movlw	15
  1168  0EA0  00E1               	movwf	??_init^(0+128)
  1169  0EA1  0861               	movf	??_init^(0+128),w
  1170  0EA2  1283               	bcf	3,5	;RP0=0, select bank0
  1171  0EA3  1303               	bcf	3,6	;RP1=0, select bank0
  1172  0EA4  0587               	andwf	7,f	;volatile
  1173                           
  1174                           ;ST7066U_4bit.c: 78: RC3 = 0b1;
  1175  0EA5  1587               	bsf	7,3	;volatile
  1176                           
  1177                           ;ST7066U_4bit.c: 79: PORTC |= temp;
  1178  0EA6  1683               	bsf	3,5	;RP0=1, select bank1
  1179  0EA7  1303               	bcf	3,6	;RP1=0, select bank1
  1180  0EA8  0863               	movf	init@temp^(0+128),w	;volatile
  1181  0EA9  00E1               	movwf	??_init^(0+128)
  1182  0EAA  0861               	movf	??_init^(0+128),w
  1183  0EAB  1283               	bcf	3,5	;RP0=0, select bank0
  1184  0EAC  1303               	bcf	3,6	;RP1=0, select bank0
  1185  0EAD  0487               	iorwf	7,f	;volatile
  1186                           
  1187                           ;ST7066U_4bit.c: 80: _delay((unsigned long)((4)*(4000000/4000000.0)));
  1188  0EAE  2EAF               	nop2	;2 cycle nop
  1189  0EAF  2EB0               	nop2	;2 cycle nop
  1190                           
  1191                           ;ST7066U_4bit.c: 81: RC3 = 0b0;
  1192  0EB0  1283               	bcf	3,5	;RP0=0, select bank0
  1193  0EB1  1303               	bcf	3,6	;RP1=0, select bank0
  1194  0EB2  1187               	bcf	7,3	;volatile
  1195                           
  1196                           ;ST7066U_4bit.c: 82: temp = 0x00;
  1197  0EB3  1683               	bsf	3,5	;RP0=1, select bank1
  1198  0EB4  1303               	bcf	3,6	;RP1=0, select bank1
  1199  0EB5  01E3               	clrf	init@temp^(0+128)	;volatile
  1200                           
  1201                           ;ST7066U_4bit.c: 83: if(N == 0b1)
  1202  0EB6  1283               	bcf	3,5	;RP0=0, select bank0
  1203  0EB7  1303               	bcf	3,6	;RP1=0, select bank0
  1204  0EB8  1D63               	btfss	_N/(0+8),_N& (0+7)	;volatile
  1205  0EB9  2EBD               	goto	l4343
  1206                           
  1207                           ;ST7066U_4bit.c: 84: temp |= 0x01;
  1208  0EBA  1683               	bsf	3,5	;RP0=1, select bank1
  1209  0EBB  1303               	bcf	3,6	;RP1=0, select bank1
  1210  0EBC  1463               	bsf	init@temp^(0+128),0	;volatile
  1211  0EBD                     l4343:	
  1212                           
  1213                           ;ST7066U_4bit.c: 85: temp <<= 1;
  1214  0EBD  1003               	clrc
  1215  0EBE  1683               	bsf	3,5	;RP0=1, select bank1
  1216  0EBF  1303               	bcf	3,6	;RP1=0, select bank1
  1217  0EC0  0DE3               	rlf	init@temp^(0+128),f	;volatile
  1218                           
  1219                           ;ST7066U_4bit.c: 86: if(F == 0b1)
  1220  0EC1  1283               	bcf	3,5	;RP0=0, select bank0
  1221  0EC2  1303               	bcf	3,6	;RP1=0, select bank0
  1222  0EC3  1D62               	btfss	_F/(0+8),_F& (0+7)	;volatile
  1223  0EC4  2EC8               	goto	l4349
  1224                           
  1225                           ;ST7066U_4bit.c: 87: temp |= 0x01;
  1226  0EC5  1683               	bsf	3,5	;RP0=1, select bank1
  1227  0EC6  1303               	bcf	3,6	;RP1=0, select bank1
  1228  0EC7  1463               	bsf	init@temp^(0+128),0	;volatile
  1229  0EC8                     l4349:	
  1230                           
  1231                           ;ST7066U_4bit.c: 88: temp <<= 6;
  1232  0EC8  1683               	bsf	3,5	;RP0=1, select bank1
  1233  0EC9  1303               	bcf	3,6	;RP1=0, select bank1
  1234  0ECA  0EE3               	swapf	init@temp^(0+128),f	;volatile
  1235  0ECB  0DE3               	rlf	init@temp^(0+128),f	;volatile
  1236  0ECC  0DE3               	rlf	init@temp^(0+128),f	;volatile
  1237  0ECD  30C0               	movlw	192
  1238  0ECE  05E3               	andwf	init@temp^(0+128),f	;volatile
  1239                           
  1240                           ;ST7066U_4bit.c: 89: PORTC &= 0x0F;
  1241  0ECF  300F               	movlw	15
  1242  0ED0  00E1               	movwf	??_init^(0+128)
  1243  0ED1  0861               	movf	??_init^(0+128),w
  1244  0ED2  1283               	bcf	3,5	;RP0=0, select bank0
  1245  0ED3  1303               	bcf	3,6	;RP1=0, select bank0
  1246  0ED4  0587               	andwf	7,f	;volatile
  1247                           
  1248                           ;ST7066U_4bit.c: 90: RC3 = 0b1;
  1249  0ED5  1587               	bsf	7,3	;volatile
  1250                           
  1251                           ;ST7066U_4bit.c: 91: PORTC |= temp;
  1252  0ED6  1683               	bsf	3,5	;RP0=1, select bank1
  1253  0ED7  1303               	bcf	3,6	;RP1=0, select bank1
  1254  0ED8  0863               	movf	init@temp^(0+128),w	;volatile
  1255  0ED9  00E1               	movwf	??_init^(0+128)
  1256  0EDA  0861               	movf	??_init^(0+128),w
  1257  0EDB  1283               	bcf	3,5	;RP0=0, select bank0
  1258  0EDC  1303               	bcf	3,6	;RP1=0, select bank0
  1259  0EDD  0487               	iorwf	7,f	;volatile
  1260                           
  1261                           ;ST7066U_4bit.c: 92: _delay((unsigned long)((4)*(4000000/4000000.0)));
  1262  0EDE  2EDF               	nop2	;2 cycle nop
  1263  0EDF  2EE0               	nop2	;2 cycle nop
  1264                           
  1265                           ;ST7066U_4bit.c: 93: RC3 = 0b0;
  1266  0EE0  1283               	bcf	3,5	;RP0=0, select bank0
  1267  0EE1  1303               	bcf	3,6	;RP1=0, select bank0
  1268  0EE2  1187               	bcf	7,3	;volatile
  1269                           
  1270                           ;ST7066U_4bit.c: 94: _delay((unsigned long)((40)*(4000000/4000000.0)));
  1271  0EE3  300D               	movlw	13
  1272  0EE4  1683               	bsf	3,5	;RP0=1, select bank1
  1273  0EE5  1303               	bcf	3,6	;RP1=0, select bank1
  1274  0EE6  00E1               	movwf	??_init^(0+128)
  1275  0EE7                     u2697:	
  1276  0EE7  0BE1               	decfsz	??_init^(0+128),f
  1277  0EE8  2EE7               	goto	u2697
  1278                           
  1279                           ;ST7066U_4bit.c: 95: bf_fails = 0x00;
  1280  0EE9  1283               	bcf	3,5	;RP0=0, select bank0
  1281  0EEA  1303               	bcf	3,6	;RP1=0, select bank0
  1282  0EEB  01DB               	clrf	_bf_fails
  1283  0EEC                     l4373:	
  1284                           ;ST7066U_4bit.c: 96: while(chk_bf() == 1)
  1285                           
  1286  0EEC  160A  118A  26C2   	fcall	_chk_bf
      +       120A  158A         
  1287  0EF1  3A01               	xorlw	1
  1288  0EF2  1D03               	btfss	3,2
  1289  0EF3  2F09               	goto	l4375
  1290                           
  1291                           ;ST7066U_4bit.c: 97: {
  1292                           ;ST7066U_4bit.c: 98: _delay((unsigned long)((80)*(4000000/4000000.0)));
  1293  0EF4  301A               	movlw	26
  1294  0EF5  1683               	bsf	3,5	;RP0=1, select bank1
  1295  0EF6  1303               	bcf	3,6	;RP1=0, select bank1
  1296  0EF7  00E1               	movwf	??_init^(0+128)
  1297  0EF8                     u2707:	
  1298  0EF8  0BE1               	decfsz	??_init^(0+128),f
  1299  0EF9  2EF8               	goto	u2707
  1300  0EFA  0000               	nop
  1301                           
  1302                           ;ST7066U_4bit.c: 99: bf_fails++;
  1303  0EFB  3001               	movlw	1
  1304  0EFC  1683               	bsf	3,5	;RP0=1, select bank1
  1305  0EFD  1303               	bcf	3,6	;RP1=0, select bank1
  1306  0EFE  00E1               	movwf	??_init^(0+128)
  1307  0EFF  0861               	movf	??_init^(0+128),w
  1308  0F00  1283               	bcf	3,5	;RP0=0, select bank0
  1309  0F01  1303               	bcf	3,6	;RP1=0, select bank0
  1310  0F02  07DB               	addwf	_bf_fails,f
  1311                           
  1312                           ;ST7066U_4bit.c: 100: if(bf_fails >= 25)
  1313  0F03  3019               	movlw	25
  1314  0F04  025B               	subwf	_bf_fails,w
  1315  0F05  1C03               	skipc
  1316  0F06  2EEC               	goto	l4373
  1317                           
  1318                           ;ST7066U_4bit.c: 101: {
  1319                           ;ST7066U_4bit.c: 102: return 1;
  1320  0F07  3001               	movlw	1
  1321  0F08  0008               	return
  1322  0F09                     l4375:	
  1323                           
  1324                           ;ST7066U_4bit.c: 103: }
  1325                           ;ST7066U_4bit.c: 104: }
  1326                           ;ST7066U_4bit.c: 105: PORTC &= 0x0F;
  1327  0F09  300F               	movlw	15
  1328  0F0A  1683               	bsf	3,5	;RP0=1, select bank1
  1329  0F0B  1303               	bcf	3,6	;RP1=0, select bank1
  1330  0F0C  00E1               	movwf	??_init^(0+128)
  1331  0F0D  0861               	movf	??_init^(0+128),w
  1332  0F0E  1283               	bcf	3,5	;RP0=0, select bank0
  1333  0F0F  1303               	bcf	3,6	;RP1=0, select bank0
  1334  0F10  0587               	andwf	7,f	;volatile
  1335                           
  1336                           ;ST7066U_4bit.c: 106: RC3 = 0b1;
  1337  0F11  1587               	bsf	7,3	;volatile
  1338                           
  1339                           ;ST7066U_4bit.c: 107: _delay((unsigned long)((4)*(4000000/4000000.0)));
  1340  0F12  2F13               	nop2	;2 cycle nop
  1341  0F13  2F14               	nop2	;2 cycle nop
  1342                           
  1343                           ;ST7066U_4bit.c: 108: RC3 = 0b0;
  1344  0F14  1283               	bcf	3,5	;RP0=0, select bank0
  1345  0F15  1303               	bcf	3,6	;RP1=0, select bank0
  1346  0F16  1187               	bcf	7,3	;volatile
  1347                           
  1348                           ;ST7066U_4bit.c: 109: temp = 0x01;
  1349  0F17  3001               	movlw	1
  1350  0F18  1683               	bsf	3,5	;RP0=1, select bank1
  1351  0F19  1303               	bcf	3,6	;RP1=0, select bank1
  1352  0F1A  00E1               	movwf	??_init^(0+128)
  1353  0F1B  0861               	movf	??_init^(0+128),w
  1354  0F1C  00E3               	movwf	init@temp^(0+128)	;volatile
  1355                           
  1356                           ;ST7066U_4bit.c: 110: temp <<= 1;
  1357  0F1D  1003               	clrc
  1358  0F1E  0DE3               	rlf	init@temp^(0+128),f	;volatile
  1359                           
  1360                           ;ST7066U_4bit.c: 111: if(D == 0b1)
  1361  0F1F  1283               	bcf	3,5	;RP0=0, select bank0
  1362  0F20  1303               	bcf	3,6	;RP1=0, select bank0
  1363  0F21  1C63               	btfss	_D/(0+8),_D& (0+7)	;volatile
  1364  0F22  2F26               	goto	l4391
  1365                           
  1366                           ;ST7066U_4bit.c: 112: temp |= 0x01;
  1367  0F23  1683               	bsf	3,5	;RP0=1, select bank1
  1368  0F24  1303               	bcf	3,6	;RP1=0, select bank1
  1369  0F25  1463               	bsf	init@temp^(0+128),0	;volatile
  1370  0F26                     l4391:	
  1371                           
  1372                           ;ST7066U_4bit.c: 113: temp <<= 1;
  1373  0F26  1003               	clrc
  1374  0F27  1683               	bsf	3,5	;RP0=1, select bank1
  1375  0F28  1303               	bcf	3,6	;RP1=0, select bank1
  1376  0F29  0DE3               	rlf	init@temp^(0+128),f	;volatile
  1377                           
  1378                           ;ST7066U_4bit.c: 114: if(C == 0b1)
  1379  0F2A  1283               	bcf	3,5	;RP0=0, select bank0
  1380  0F2B  1303               	bcf	3,6	;RP1=0, select bank0
  1381  0F2C  1CE2               	btfss	_C/(0+8),_C& (0+7)	;volatile
  1382  0F2D  2F31               	goto	l4397
  1383                           
  1384                           ;ST7066U_4bit.c: 115: temp |= 0x01;
  1385  0F2E  1683               	bsf	3,5	;RP0=1, select bank1
  1386  0F2F  1303               	bcf	3,6	;RP1=0, select bank1
  1387  0F30  1463               	bsf	init@temp^(0+128),0	;volatile
  1388  0F31                     l4397:	
  1389                           
  1390                           ;ST7066U_4bit.c: 116: temp <<= 1;
  1391  0F31  1003               	clrc
  1392  0F32  1683               	bsf	3,5	;RP0=1, select bank1
  1393  0F33  1303               	bcf	3,6	;RP1=0, select bank1
  1394  0F34  0DE3               	rlf	init@temp^(0+128),f	;volatile
  1395                           
  1396                           ;ST7066U_4bit.c: 117: if(B == 0b1)
  1397  0F35  1283               	bcf	3,5	;RP0=0, select bank0
  1398  0F36  1303               	bcf	3,6	;RP1=0, select bank0
  1399  0F37  1C62               	btfss	_B/(0+8),_B& (0+7)	;volatile
  1400  0F38  2F3C               	goto	l4403
  1401                           
  1402                           ;ST7066U_4bit.c: 118: temp |= 0x01;
  1403  0F39  1683               	bsf	3,5	;RP0=1, select bank1
  1404  0F3A  1303               	bcf	3,6	;RP1=0, select bank1
  1405  0F3B  1463               	bsf	init@temp^(0+128),0	;volatile
  1406  0F3C                     l4403:	
  1407                           
  1408                           ;ST7066U_4bit.c: 119: temp <<= 4;
  1409  0F3C  1683               	bsf	3,5	;RP0=1, select bank1
  1410  0F3D  1303               	bcf	3,6	;RP1=0, select bank1
  1411  0F3E  0EE3               	swapf	init@temp^(0+128),f	;volatile
  1412  0F3F  30F0               	movlw	240
  1413  0F40  05E3               	andwf	init@temp^(0+128),f	;volatile
  1414                           
  1415                           ;ST7066U_4bit.c: 120: RC3 = 0b1;
  1416  0F41  1283               	bcf	3,5	;RP0=0, select bank0
  1417  0F42  1303               	bcf	3,6	;RP1=0, select bank0
  1418  0F43  1587               	bsf	7,3	;volatile
  1419                           
  1420                           ;ST7066U_4bit.c: 121: PORTC |= temp;
  1421  0F44  1683               	bsf	3,5	;RP0=1, select bank1
  1422  0F45  1303               	bcf	3,6	;RP1=0, select bank1
  1423  0F46  0863               	movf	init@temp^(0+128),w	;volatile
  1424  0F47  00E1               	movwf	??_init^(0+128)
  1425  0F48  0861               	movf	??_init^(0+128),w
  1426  0F49  1283               	bcf	3,5	;RP0=0, select bank0
  1427  0F4A  1303               	bcf	3,6	;RP1=0, select bank0
  1428  0F4B  0487               	iorwf	7,f	;volatile
  1429                           
  1430                           ;ST7066U_4bit.c: 122: _delay((unsigned long)((4)*(4000000/4000000.0)));
  1431  0F4C  2F4D               	nop2	;2 cycle nop
  1432  0F4D  2F4E               	nop2	;2 cycle nop
  1433                           
  1434                           ;ST7066U_4bit.c: 123: RC3 = 0b0;
  1435  0F4E  1283               	bcf	3,5	;RP0=0, select bank0
  1436  0F4F  1303               	bcf	3,6	;RP1=0, select bank0
  1437  0F50  1187               	bcf	7,3	;volatile
  1438                           
  1439                           ;ST7066U_4bit.c: 124: _delay((unsigned long)((40)*(4000000/4000000.0)));
  1440  0F51  300D               	movlw	13
  1441  0F52  1683               	bsf	3,5	;RP0=1, select bank1
  1442  0F53  1303               	bcf	3,6	;RP1=0, select bank1
  1443  0F54  00E1               	movwf	??_init^(0+128)
  1444  0F55                     u2717:	
  1445  0F55  0BE1               	decfsz	??_init^(0+128),f
  1446  0F56  2F55               	goto	u2717
  1447                           
  1448                           ;ST7066U_4bit.c: 125: bf_fails = 0x00;
  1449  0F57  1283               	bcf	3,5	;RP0=0, select bank0
  1450  0F58  1303               	bcf	3,6	;RP1=0, select bank0
  1451  0F59  01DB               	clrf	_bf_fails
  1452  0F5A                     l4427:	
  1453                           ;ST7066U_4bit.c: 126: while(chk_bf() == 1)
  1454                           
  1455  0F5A  160A  118A  26C2   	fcall	_chk_bf
      +       120A  158A         
  1456  0F5F  3A01               	xorlw	1
  1457  0F60  1D03               	btfss	3,2
  1458  0F61  2F77               	goto	l4429
  1459                           
  1460                           ;ST7066U_4bit.c: 127: {
  1461                           ;ST7066U_4bit.c: 128: _delay((unsigned long)((80)*(4000000/4000000.0)));
  1462  0F62  301A               	movlw	26
  1463  0F63  1683               	bsf	3,5	;RP0=1, select bank1
  1464  0F64  1303               	bcf	3,6	;RP1=0, select bank1
  1465  0F65  00E1               	movwf	??_init^(0+128)
  1466  0F66                     u2727:	
  1467  0F66  0BE1               	decfsz	??_init^(0+128),f
  1468  0F67  2F66               	goto	u2727
  1469  0F68  0000               	nop
  1470                           
  1471                           ;ST7066U_4bit.c: 129: bf_fails++;
  1472  0F69  3001               	movlw	1
  1473  0F6A  1683               	bsf	3,5	;RP0=1, select bank1
  1474  0F6B  1303               	bcf	3,6	;RP1=0, select bank1
  1475  0F6C  00E1               	movwf	??_init^(0+128)
  1476  0F6D  0861               	movf	??_init^(0+128),w
  1477  0F6E  1283               	bcf	3,5	;RP0=0, select bank0
  1478  0F6F  1303               	bcf	3,6	;RP1=0, select bank0
  1479  0F70  07DB               	addwf	_bf_fails,f
  1480                           
  1481                           ;ST7066U_4bit.c: 130: if(bf_fails >= 25)
  1482  0F71  3019               	movlw	25
  1483  0F72  025B               	subwf	_bf_fails,w
  1484  0F73  1C03               	skipc
  1485  0F74  2F5A               	goto	l4427
  1486                           
  1487                           ;ST7066U_4bit.c: 131: {
  1488                           ;ST7066U_4bit.c: 132: return 1;
  1489  0F75  3001               	movlw	1
  1490  0F76  0008               	return
  1491  0F77                     l4429:	
  1492                           
  1493                           ;ST7066U_4bit.c: 133: }
  1494                           ;ST7066U_4bit.c: 134: }
  1495                           ;ST7066U_4bit.c: 135: PORTC &= 0x0F;
  1496  0F77  300F               	movlw	15
  1497  0F78  1683               	bsf	3,5	;RP0=1, select bank1
  1498  0F79  1303               	bcf	3,6	;RP1=0, select bank1
  1499  0F7A  00E1               	movwf	??_init^(0+128)
  1500  0F7B  0861               	movf	??_init^(0+128),w
  1501  0F7C  1283               	bcf	3,5	;RP0=0, select bank0
  1502  0F7D  1303               	bcf	3,6	;RP1=0, select bank0
  1503  0F7E  0587               	andwf	7,f	;volatile
  1504                           
  1505                           ;ST7066U_4bit.c: 136: RC3 = 0b1;
  1506  0F7F  1587               	bsf	7,3	;volatile
  1507                           
  1508                           ;ST7066U_4bit.c: 137: _delay((unsigned long)((4)*(4000000/4000000.0)));
  1509  0F80  2F81               	nop2	;2 cycle nop
  1510  0F81  2F82               	nop2	;2 cycle nop
  1511                           
  1512                           ;ST7066U_4bit.c: 138: RC3 = 0b0;
  1513  0F82  1283               	bcf	3,5	;RP0=0, select bank0
  1514  0F83  1303               	bcf	3,6	;RP1=0, select bank0
  1515  0F84  1187               	bcf	7,3	;volatile
  1516                           
  1517                           ;ST7066U_4bit.c: 139: _delay((unsigned long)((4)*(4000000/4000000.0)));
  1518  0F85  2F86               	nop2	;2 cycle nop
  1519  0F86  2F87               	nop2	;2 cycle nop
  1520                           
  1521                           ;ST7066U_4bit.c: 140: RC3 = 0b1;
  1522  0F87  1283               	bcf	3,5	;RP0=0, select bank0
  1523  0F88  1303               	bcf	3,6	;RP1=0, select bank0
  1524  0F89  1587               	bsf	7,3	;volatile
  1525                           
  1526                           ;ST7066U_4bit.c: 141: PORTC |= 0x10;
  1527  0F8A  1607               	bsf	7,4	;volatile
  1528                           
  1529                           ;ST7066U_4bit.c: 142: _delay((unsigned long)((4)*(4000000/4000000.0)));
  1530  0F8B  2F8C               	nop2	;2 cycle nop
  1531  0F8C  2F8D               	nop2	;2 cycle nop
  1532                           
  1533                           ;ST7066U_4bit.c: 143: RC3 = 0b0;
  1534  0F8D  1283               	bcf	3,5	;RP0=0, select bank0
  1535  0F8E  1303               	bcf	3,6	;RP1=0, select bank0
  1536  0F8F  1187               	bcf	7,3	;volatile
  1537                           
  1538                           ;ST7066U_4bit.c: 144: _delay((unsigned long)((2)*(4000000/4000.0)));
  1539  0F90  3003               	movlw	3
  1540  0F91  1683               	bsf	3,5	;RP0=1, select bank1
  1541  0F92  1303               	bcf	3,6	;RP1=0, select bank1
  1542  0F93  00E2               	movwf	(??_init^(0+128)+1)
  1543  0F94  3097               	movlw	151
  1544  0F95  00E1               	movwf	??_init^(0+128)
  1545  0F96                     u2737:	
  1546  0F96  0BE1               	decfsz	??_init^(0+128),f
  1547  0F97  2F96               	goto	u2737
  1548  0F98  0BE2               	decfsz	(??_init^(0+128)+1),f
  1549  0F99  2F96               	goto	u2737
  1550  0F9A  2F9B               	nop2
  1551                           
  1552                           ;ST7066U_4bit.c: 145: bf_fails = 0x00;
  1553  0F9B  1283               	bcf	3,5	;RP0=0, select bank0
  1554  0F9C  1303               	bcf	3,6	;RP1=0, select bank0
  1555  0F9D  01DB               	clrf	_bf_fails
  1556  0F9E                     l4461:	
  1557                           ;ST7066U_4bit.c: 146: while(chk_bf() == 1)
  1558                           
  1559  0F9E  160A  118A  26C2   	fcall	_chk_bf
      +       120A  158A         
  1560  0FA3  3A01               	xorlw	1
  1561  0FA4  1D03               	btfss	3,2
  1562  0FA5  2FBB               	goto	l4463
  1563                           
  1564                           ;ST7066U_4bit.c: 147: {
  1565                           ;ST7066U_4bit.c: 148: _delay((unsigned long)((80)*(4000000/4000000.0)));
  1566  0FA6  301A               	movlw	26
  1567  0FA7  1683               	bsf	3,5	;RP0=1, select bank1
  1568  0FA8  1303               	bcf	3,6	;RP1=0, select bank1
  1569  0FA9  00E1               	movwf	??_init^(0+128)
  1570  0FAA                     u2747:	
  1571  0FAA  0BE1               	decfsz	??_init^(0+128),f
  1572  0FAB  2FAA               	goto	u2747
  1573  0FAC  0000               	nop
  1574                           
  1575                           ;ST7066U_4bit.c: 149: bf_fails++;
  1576  0FAD  3001               	movlw	1
  1577  0FAE  1683               	bsf	3,5	;RP0=1, select bank1
  1578  0FAF  1303               	bcf	3,6	;RP1=0, select bank1
  1579  0FB0  00E1               	movwf	??_init^(0+128)
  1580  0FB1  0861               	movf	??_init^(0+128),w
  1581  0FB2  1283               	bcf	3,5	;RP0=0, select bank0
  1582  0FB3  1303               	bcf	3,6	;RP1=0, select bank0
  1583  0FB4  07DB               	addwf	_bf_fails,f
  1584                           
  1585                           ;ST7066U_4bit.c: 150: if(bf_fails >= 25)
  1586  0FB5  3019               	movlw	25
  1587  0FB6  025B               	subwf	_bf_fails,w
  1588  0FB7  1C03               	skipc
  1589  0FB8  2F9E               	goto	l4461
  1590                           
  1591                           ;ST7066U_4bit.c: 151: {
  1592                           ;ST7066U_4bit.c: 152: return 1;
  1593  0FB9  3001               	movlw	1
  1594  0FBA  0008               	return
  1595  0FBB                     l4463:	
  1596                           
  1597                           ;ST7066U_4bit.c: 153: }
  1598                           ;ST7066U_4bit.c: 154: }
  1599                           ;ST7066U_4bit.c: 155: PORTC &= 0x0F;
  1600  0FBB  300F               	movlw	15
  1601  0FBC  1683               	bsf	3,5	;RP0=1, select bank1
  1602  0FBD  1303               	bcf	3,6	;RP1=0, select bank1
  1603  0FBE  00E1               	movwf	??_init^(0+128)
  1604  0FBF  0861               	movf	??_init^(0+128),w
  1605  0FC0  1283               	bcf	3,5	;RP0=0, select bank0
  1606  0FC1  1303               	bcf	3,6	;RP1=0, select bank0
  1607  0FC2  0587               	andwf	7,f	;volatile
  1608                           
  1609                           ;ST7066U_4bit.c: 156: RC3 = 0b1;
  1610  0FC3  1587               	bsf	7,3	;volatile
  1611                           
  1612                           ;ST7066U_4bit.c: 157: _delay((unsigned long)((4)*(4000000/4000000.0)));
  1613  0FC4  2FC5               	nop2	;2 cycle nop
  1614  0FC5  2FC6               	nop2	;2 cycle nop
  1615                           
  1616                           ;ST7066U_4bit.c: 158: RC3 = 0b0;
  1617  0FC6  1283               	bcf	3,5	;RP0=0, select bank0
  1618  0FC7  1303               	bcf	3,6	;RP1=0, select bank0
  1619  0FC8  1187               	bcf	7,3	;volatile
  1620                           
  1621                           ;ST7066U_4bit.c: 159: temp = 0x01;
  1622  0FC9  3001               	movlw	1
  1623  0FCA  1683               	bsf	3,5	;RP0=1, select bank1
  1624  0FCB  1303               	bcf	3,6	;RP1=0, select bank1
  1625  0FCC  00E1               	movwf	??_init^(0+128)
  1626  0FCD  0861               	movf	??_init^(0+128),w
  1627  0FCE  00E3               	movwf	init@temp^(0+128)	;volatile
  1628                           
  1629                           ;ST7066U_4bit.c: 160: temp <<= 1;
  1630  0FCF  1003               	clrc
  1631  0FD0  0DE3               	rlf	init@temp^(0+128),f	;volatile
  1632                           
  1633                           ;ST7066U_4bit.c: 161: if(I_D == 0b1)
  1634  0FD1  1283               	bcf	3,5	;RP0=0, select bank0
  1635  0FD2  1303               	bcf	3,6	;RP1=0, select bank0
  1636  0FD3  1CE3               	btfss	_I_D/(0+8),_I_D& (0+7)	;volatile
  1637  0FD4  2FD8               	goto	l4479
  1638                           
  1639                           ;ST7066U_4bit.c: 162: temp |= 0x01;
  1640  0FD5  1683               	bsf	3,5	;RP0=1, select bank1
  1641  0FD6  1303               	bcf	3,6	;RP1=0, select bank1
  1642  0FD7  1463               	bsf	init@temp^(0+128),0	;volatile
  1643  0FD8                     l4479:	
  1644                           
  1645                           ;ST7066U_4bit.c: 163: temp <<= 1;
  1646  0FD8  1003               	clrc
  1647  0FD9  1683               	bsf	3,5	;RP0=1, select bank1
  1648  0FDA  1303               	bcf	3,6	;RP1=0, select bank1
  1649  0FDB  0DE3               	rlf	init@temp^(0+128),f	;volatile
  1650                           
  1651                           ;ST7066U_4bit.c: 164: if(S == 0b1)
  1652  0FDC  1283               	bcf	3,5	;RP0=0, select bank0
  1653  0FDD  1303               	bcf	3,6	;RP1=0, select bank0
  1654  0FDE  1DE2               	btfss	_S/(0+8),_S& (0+7)	;volatile
  1655  0FDF  2FE3               	goto	l4485
  1656                           
  1657                           ;ST7066U_4bit.c: 165: temp |= 0x01;
  1658  0FE0  1683               	bsf	3,5	;RP0=1, select bank1
  1659  0FE1  1303               	bcf	3,6	;RP1=0, select bank1
  1660  0FE2  1463               	bsf	init@temp^(0+128),0	;volatile
  1661  0FE3                     l4485:	
  1662                           
  1663                           ;ST7066U_4bit.c: 166: temp <<= 4;
  1664  0FE3  1683               	bsf	3,5	;RP0=1, select bank1
  1665  0FE4  1303               	bcf	3,6	;RP1=0, select bank1
  1666  0FE5  0EE3               	swapf	init@temp^(0+128),f	;volatile
  1667  0FE6  30F0               	movlw	240
  1668  0FE7  05E3               	andwf	init@temp^(0+128),f	;volatile
  1669                           
  1670                           ;ST7066U_4bit.c: 167: RC3 = 0b1;
  1671  0FE8  1283               	bcf	3,5	;RP0=0, select bank0
  1672  0FE9  1303               	bcf	3,6	;RP1=0, select bank0
  1673  0FEA  1587               	bsf	7,3	;volatile
  1674                           
  1675                           ;ST7066U_4bit.c: 168: PORTC |= temp;
  1676  0FEB  1683               	bsf	3,5	;RP0=1, select bank1
  1677  0FEC  1303               	bcf	3,6	;RP1=0, select bank1
  1678  0FED  0863               	movf	init@temp^(0+128),w	;volatile
  1679  0FEE  00E1               	movwf	??_init^(0+128)
  1680  0FEF  0861               	movf	??_init^(0+128),w
  1681  0FF0  1283               	bcf	3,5	;RP0=0, select bank0
  1682  0FF1  1303               	bcf	3,6	;RP1=0, select bank0
  1683  0FF2  0487               	iorwf	7,f	;volatile
  1684                           
  1685                           ;ST7066U_4bit.c: 169: _delay((unsigned long)((4)*(4000000/4000000.0)));
  1686  0FF3  2FF4               	nop2	;2 cycle nop
  1687  0FF4  2FF5               	nop2	;2 cycle nop
  1688                           
  1689                           ;ST7066U_4bit.c: 170: RC3 =0b0;
  1690  0FF5  1283               	bcf	3,5	;RP0=0, select bank0
  1691  0FF6  1303               	bcf	3,6	;RP1=0, select bank0
  1692  0FF7  1187               	bcf	7,3	;volatile
  1693                           
  1694                           ;ST7066U_4bit.c: 171: _delay((unsigned long)((40)*(4000000/4000000.0)));
  1695  0FF8  300D               	movlw	13
  1696  0FF9  1683               	bsf	3,5	;RP0=1, select bank1
  1697  0FFA  1303               	bcf	3,6	;RP1=0, select bank1
  1698  0FFB  00E1               	movwf	??_init^(0+128)
  1699  0FFC                     u2757:	
  1700  0FFC  0BE1               	decfsz	??_init^(0+128),f
  1701  0FFD  2FFC               	goto	u2757
  1702                           
  1703                           ;ST7066U_4bit.c: 172: return 0;
  1704  0FFE  3000               	movlw	0
  1705  0FFF  0008               	return
  1706  1000                     __end_of_init:	
  1707                           
  1708                           	psect	text2
  1709  16C2                     __ptext2:	
  1710 ;; *************** function _chk_bf *****************
  1711 ;; Defined at:
  1712 ;;		line 16 in file "ST7066U_4bit.c"
  1713 ;; Parameters:    Size  Location     Type
  1714 ;;		None
  1715 ;; Auto vars:     Size  Location     Type
  1716 ;;  bf              1    1[BANK1 ] unsigned char 
  1717 ;; Return value:  Size  Location     Type
  1718 ;;                  1    wreg      unsigned char 
  1719 ;; Registers used:
  1720 ;;		wreg, status,2, status,0
  1721 ;; Tracked objects:
  1722 ;;		On entry : 0/0
  1723 ;;		On exit  : 0/0
  1724 ;;		Unchanged: 0/0
  1725 ;; Data sizes:     COMMON   BANK0   BANK1   BANK3   BANK2
  1726 ;;      Params:         0       0       0       0       0
  1727 ;;      Locals:         0       0       1       0       0
  1728 ;;      Temps:          0       0       1       0       0
  1729 ;;      Totals:         0       0       2       0       0
  1730 ;;Total ram usage:        2 bytes
  1731 ;; Hardware stack levels used:    1
  1732 ;; Hardware stack levels required when called:    6
  1733 ;; This function calls:
  1734 ;;		Nothing
  1735 ;; This function is called by:
  1736 ;;		_init
  1737 ;; This function uses a non-reentrant model
  1738 ;;
  1739                           
  1740                           
  1741                           ;psect for function _chk_bf
  1742  16C2                     _chk_bf:	
  1743                           
  1744                           ;ST7066U_4bit.c: 17: char bf;
  1745                           ;ST7066U_4bit.c: 18: RC3 = 0b0;
  1746                           
  1747                           ;incstack = 0
  1748                           ; Regs used in _chk_bf: [wreg+status,2+status,0]
  1749  16C2  1283               	bcf	3,5	;RP0=0, select bank0
  1750  16C3  1303               	bcf	3,6	;RP1=0, select bank0
  1751  16C4  1187               	bcf	7,3	;volatile
  1752                           
  1753                           ;ST7066U_4bit.c: 19: TRISC |= 0xF0;
  1754  16C5  30F0               	movlw	240
  1755  16C6  1683               	bsf	3,5	;RP0=1, select bank1
  1756  16C7  1303               	bcf	3,6	;RP1=0, select bank1
  1757  16C8  00DF               	movwf	??_chk_bf^(0+128)
  1758  16C9  085F               	movf	??_chk_bf^(0+128),w
  1759  16CA  0487               	iorwf	7,f	;volatile
  1760                           
  1761                           ;ST7066U_4bit.c: 20: PORTC &= 0x0F;
  1762  16CB  300F               	movlw	15
  1763  16CC  00DF               	movwf	??_chk_bf^(0+128)
  1764  16CD  085F               	movf	??_chk_bf^(0+128),w
  1765  16CE  1283               	bcf	3,5	;RP0=0, select bank0
  1766  16CF  1303               	bcf	3,6	;RP1=0, select bank0
  1767  16D0  0587               	andwf	7,f	;volatile
  1768                           
  1769                           ;ST7066U_4bit.c: 21: RC1 = 0b0;
  1770  16D1  1087               	bcf	7,1	;volatile
  1771                           
  1772                           ;ST7066U_4bit.c: 22: RC2 = 0b1;
  1773  16D2  1507               	bsf	7,2	;volatile
  1774                           
  1775                           ;ST7066U_4bit.c: 23: RC3 = 0b1;
  1776  16D3  1587               	bsf	7,3	;volatile
  1777                           
  1778                           ;ST7066U_4bit.c: 24: _delay((unsigned long)((4)*(4000000/4000000.0)));
  1779  16D4  2ED5               	nop2	;2 cycle nop
  1780  16D5  2ED6               	nop2	;2 cycle nop
  1781                           
  1782                           ;ST7066U_4bit.c: 25: bf = PORTC;
  1783  16D6  1283               	bcf	3,5	;RP0=0, select bank0
  1784  16D7  1303               	bcf	3,6	;RP1=0, select bank0
  1785  16D8  0807               	movf	7,w	;volatile
  1786  16D9  1683               	bsf	3,5	;RP0=1, select bank1
  1787  16DA  1303               	bcf	3,6	;RP1=0, select bank1
  1788  16DB  00DF               	movwf	??_chk_bf^(0+128)
  1789  16DC  085F               	movf	??_chk_bf^(0+128),w
  1790  16DD  00E0               	movwf	chk_bf@bf^(0+128)
  1791                           
  1792                           ;ST7066U_4bit.c: 26: RC3 = 0b0;
  1793  16DE  1283               	bcf	3,5	;RP0=0, select bank0
  1794  16DF  1303               	bcf	3,6	;RP1=0, select bank0
  1795  16E0  1187               	bcf	7,3	;volatile
  1796                           
  1797                           ;ST7066U_4bit.c: 27: _delay((unsigned long)((4)*(4000000/4000000.0)));
  1798  16E1  2EE2               	nop2	;2 cycle nop
  1799  16E2  2EE3               	nop2	;2 cycle nop
  1800                           
  1801                           ;ST7066U_4bit.c: 28: RC3 = 0b1;
  1802  16E3  1283               	bcf	3,5	;RP0=0, select bank0
  1803  16E4  1303               	bcf	3,6	;RP1=0, select bank0
  1804  16E5  1587               	bsf	7,3	;volatile
  1805                           
  1806                           ;ST7066U_4bit.c: 29: _delay((unsigned long)((4)*(4000000/4000000.0)));
  1807  16E6  2EE7               	nop2	;2 cycle nop
  1808  16E7  2EE8               	nop2	;2 cycle nop
  1809                           
  1810                           ;ST7066U_4bit.c: 30: RC3 = 0b0;
  1811  16E8  1283               	bcf	3,5	;RP0=0, select bank0
  1812  16E9  1303               	bcf	3,6	;RP1=0, select bank0
  1813  16EA  1187               	bcf	7,3	;volatile
  1814                           
  1815                           ;ST7066U_4bit.c: 31: RC2 = 0b0;
  1816  16EB  1107               	bcf	7,2	;volatile
  1817                           
  1818                           ;ST7066U_4bit.c: 32: TRISC &= 0x0F;
  1819  16EC  300F               	movlw	15
  1820  16ED  1683               	bsf	3,5	;RP0=1, select bank1
  1821  16EE  1303               	bcf	3,6	;RP1=0, select bank1
  1822  16EF  00DF               	movwf	??_chk_bf^(0+128)
  1823  16F0  085F               	movf	??_chk_bf^(0+128),w
  1824  16F1  0587               	andwf	7,f	;volatile
  1825                           
  1826                           ;ST7066U_4bit.c: 33: if((bf & 0x80) == 0)
  1827  16F2  1BE0               	btfsc	chk_bf@bf^(0+128),7
  1828  16F3  2EF6               	goto	l4615
  1829                           
  1830                           ;ST7066U_4bit.c: 34: {
  1831                           ;ST7066U_4bit.c: 35: return 0;
  1832  16F4  3000               	movlw	0
  1833                           
  1834                           ;ST7066U_4bit.c: 36: }
  1835  16F5  0008               	return
  1836  16F6                     l4615:	
  1837                           
  1838                           ;ST7066U_4bit.c: 37: else
  1839                           ;ST7066U_4bit.c: 38: {
  1840                           ;ST7066U_4bit.c: 39: return 1;
  1841  16F6  3001               	movlw	1
  1842  16F7  0008               	return
  1843  16F8                     __end_of_chk_bf:	
  1844                           
  1845                           	psect	text3
  1846  0C52                     __ptext3:	
  1847 ;; *************** function _isr *****************
  1848 ;; Defined at:
  1849 ;;		line 261 in file "CarPassword.c"
  1850 ;; Parameters:    Size  Location     Type
  1851 ;;		None
  1852 ;; Auto vars:     Size  Location     Type
  1853 ;;  input           4   21[BANK0 ] volatile unsigned long 
  1854 ;;  temp            1   20[BANK0 ] volatile unsigned char 
  1855 ;; Return value:  Size  Location     Type
  1856 ;;		None               void
  1857 ;; Registers used:
  1858 ;;		wreg, fsr0l, fsr0h, status,2, status,0, pclath, cstack
  1859 ;; Tracked objects:
  1860 ;;		On entry : 0/0
  1861 ;;		On exit  : 0/0
  1862 ;;		Unchanged: 0/0
  1863 ;; Data sizes:     COMMON   BANK0   BANK1   BANK3   BANK2
  1864 ;;      Params:         0       0       0       0       0
  1865 ;;      Locals:         0       5       0       0       0
  1866 ;;      Temps:          0       6       0       0       0
  1867 ;;      Totals:         0      11       0       0       0
  1868 ;;Total ram usage:       11 bytes
  1869 ;; Hardware stack levels used:    1
  1870 ;; Hardware stack levels required when called:    5
  1871 ;; This function calls:
  1872 ;;		_disp
  1873 ;;		_eeprom_read
  1874 ;;		_keypad_read
  1875 ;;		_disp_off
  1876 ;; This function is called by:
  1877 ;;		Interrupt level 1
  1878 ;; This function uses a non-reentrant model
  1879 ;;
  1880                           
  1881                           
  1882                           ;psect for function _isr
  1883  0C52                     _isr:	
  1884                           
  1885                           ;CarPassword.c: 262: volatile unsigned char temp;
  1886                           ;CarPassword.c: 263: volatile unsigned long int input;
  1887                           ;CarPassword.c: 264: if(RBIF)
  1888  0C52  1C0B               	btfss	11,0	;volatile
  1889  0C53  2E02               	goto	i1l192
  1890                           
  1891                           ;CarPassword.c: 265: {
  1892                           ;CarPassword.c: 266: temp = PORTB;
  1893  0C54  0806               	movf	6,w	;volatile
  1894  0C55  00CC               	movwf	??_isr
  1895  0C56  084C               	movf	??_isr,w
  1896  0C57  00D2               	movwf	isr@temp	;volatile
  1897                           
  1898                           ;CarPassword.c: 267: if(RB4 == 0b0)
  1899  0C58  1A06               	btfsc	6,4	;volatile
  1900  0C59  2DE3               	goto	i1l4247
  1901                           
  1902                           ;CarPassword.c: 268: {
  1903                           ;CarPassword.c: 269: RC0 = 0b1;
  1904  0C5A  1407               	bsf	7,0	;volatile
  1905                           
  1906                           ;CarPassword.c: 270: paswd0 = eeprom_read(0x00);
  1907  0C5B  3000               	movlw	0
  1908  0C5C  160A  118A  264F   	fcall	_eeprom_read
      +       120A  158A         
  1909  0C61  1283               	bcf	3,5	;RP0=0, select bank0
  1910  0C62  1303               	bcf	3,6	;RP1=0, select bank0
  1911  0C63  00CC               	movwf	??_isr
  1912  0C64  084C               	movf	??_isr,w
  1913  0C65  00DC               	movwf	_paswd0	;volatile
  1914                           
  1915                           ;CarPassword.c: 271: paswd1 = eeprom_read(0x01);
  1916  0C66  3001               	movlw	1
  1917  0C67  160A  118A  264F   	fcall	_eeprom_read
      +       120A  158A         
  1918  0C6C  1283               	bcf	3,5	;RP0=0, select bank0
  1919  0C6D  1303               	bcf	3,6	;RP1=0, select bank0
  1920  0C6E  00CC               	movwf	??_isr
  1921  0C6F  084C               	movf	??_isr,w
  1922  0C70  00DD               	movwf	_paswd1	;volatile
  1923                           
  1924                           ;CarPassword.c: 272: paswd2 = eeprom_read(0x02);
  1925  0C71  3002               	movlw	2
  1926  0C72  160A  118A  264F   	fcall	_eeprom_read
      +       120A  158A         
  1927  0C77  1283               	bcf	3,5	;RP0=0, select bank0
  1928  0C78  1303               	bcf	3,6	;RP1=0, select bank0
  1929  0C79  00CC               	movwf	??_isr
  1930  0C7A  084C               	movf	??_isr,w
  1931  0C7B  00DE               	movwf	_paswd2	;volatile
  1932                           
  1933                           ;CarPassword.c: 273: paswd3 = eeprom_read(0x03);
  1934  0C7C  3003               	movlw	3
  1935  0C7D  160A  118A  264F   	fcall	_eeprom_read
      +       120A  158A         
  1936  0C82  1283               	bcf	3,5	;RP0=0, select bank0
  1937  0C83  1303               	bcf	3,6	;RP1=0, select bank0
  1938  0C84  00CC               	movwf	??_isr
  1939  0C85  084C               	movf	??_isr,w
  1940  0C86  00DF               	movwf	_paswd3	;volatile
  1941                           
  1942                           ;CarPassword.c: 274: paswd = 0x00;
  1943  0C87  3000               	movlw	0
  1944  0C88  00DA               	movwf	_paswd+3	;volatile
  1945  0C89  3000               	movlw	0
  1946  0C8A  00D9               	movwf	_paswd+2	;volatile
  1947  0C8B  3000               	movlw	0
  1948  0C8C  00D8               	movwf	_paswd+1	;volatile
  1949  0C8D  3000               	movlw	0
  1950  0C8E  00D7               	movwf	_paswd	;volatile
  1951                           
  1952                           ;CarPassword.c: 275: paswd |= (volatile unsigned long int)paswd3;
  1953  0C8F  085F               	movf	_paswd3,w	;volatile
  1954  0C90  04D7               	iorwf	_paswd,f	;volatile
  1955                           
  1956                           ;CarPassword.c: 276: paswd <<=8;
  1957  0C91  3008               	movlw	8
  1958  0C92  00CC               	movwf	??_isr
  1959  0C93                     u233_25:	
  1960  0C93  1003               	clrc
  1961  0C94  0DD7               	rlf	_paswd,f	;volatile
  1962  0C95  0DD8               	rlf	_paswd+1,f	;volatile
  1963  0C96  0DD9               	rlf	_paswd+2,f	;volatile
  1964  0C97  0DDA               	rlf	_paswd+3,f	;volatile
  1965  0C98  0BCC               	decfsz	??_isr,f
  1966  0C99  2C93               	goto	u233_25
  1967                           
  1968                           ;CarPassword.c: 277: paswd |= (volatile unsigned long int)paswd2;
  1969  0C9A  085E               	movf	_paswd2,w	;volatile
  1970  0C9B  04D7               	iorwf	_paswd,f	;volatile
  1971                           
  1972                           ;CarPassword.c: 278: paswd <<=8;
  1973  0C9C  3008               	movlw	8
  1974  0C9D  00CC               	movwf	??_isr
  1975  0C9E                     u234_25:	
  1976  0C9E  1003               	clrc
  1977  0C9F  0DD7               	rlf	_paswd,f	;volatile
  1978  0CA0  0DD8               	rlf	_paswd+1,f	;volatile
  1979  0CA1  0DD9               	rlf	_paswd+2,f	;volatile
  1980  0CA2  0DDA               	rlf	_paswd+3,f	;volatile
  1981  0CA3  0BCC               	decfsz	??_isr,f
  1982  0CA4  2C9E               	goto	u234_25
  1983                           
  1984                           ;CarPassword.c: 279: paswd |= (volatile unsigned long int)paswd1;
  1985  0CA5  085D               	movf	_paswd1,w	;volatile
  1986  0CA6  04D7               	iorwf	_paswd,f	;volatile
  1987                           
  1988                           ;CarPassword.c: 280: paswd <<=8;
  1989  0CA7  3008               	movlw	8
  1990  0CA8  00CC               	movwf	??_isr
  1991  0CA9                     u235_25:	
  1992  0CA9  1003               	clrc
  1993  0CAA  0DD7               	rlf	_paswd,f	;volatile
  1994  0CAB  0DD8               	rlf	_paswd+1,f	;volatile
  1995  0CAC  0DD9               	rlf	_paswd+2,f	;volatile
  1996  0CAD  0DDA               	rlf	_paswd+3,f	;volatile
  1997  0CAE  0BCC               	decfsz	??_isr,f
  1998  0CAF  2CA9               	goto	u235_25
  1999                           
  2000                           ;CarPassword.c: 281: paswd |= (volatile unsigned long int)paswd0;
  2001  0CB0  085C               	movf	_paswd0,w	;volatile
  2002  0CB1  04D7               	iorwf	_paswd,f	;volatile
  2003  0CB2  2D34               	goto	L2
  2004  0CB3                     i1l4221:	
  2005                           ;CarPassword.c: 287: while((input != paswd) && (paswd_chng == 0b0))
  2006                           
  2007                           ;CarPassword.c: 286: keypad_read(&input);
  2008                           
  2009                           ;CarPassword.c: 284: else
  2010                           ;CarPassword.c: 285: RA5 = 0b1;
  2011                           
  2012                           ;CarPassword.c: 283: RA5 = 0b0;
  2013                           
  2014                           ;CarPassword.c: 282: if(disp(chk,15,0x00) == 0)
  2015                           
  2016                           
  2017                           ;CarPassword.c: 288: {
  2018                           ;CarPassword.c: 289: if(disp(rng,15,0) == 0b0)
  2019  0CB3  300F               	movlw	15
  2020  0CB4  00F2               	movwf	?_disp
  2021  0CB5  3000               	movlw	0
  2022  0CB6  00F3               	movwf	?_disp+1
  2023  0CB7  01F4               	clrf	?_disp+2
  2024  0CB8  30B1               	movlw	_rng& (0+255)
  2025  0CB9  120A  158A  22E8   	fcall	_disp
      +       120A  158A         
  2026  0CBE  3800               	iorlw	0
  2027  0CBF  1D03               	skipz
  2028  0CC0  2CC5               	goto	i1l198
  2029                           
  2030                           ;CarPassword.c: 290: RA5 = 0b0;
  2031  0CC1  1283               	bcf	3,5	;RP0=0, select bank0
  2032  0CC2  1303               	bcf	3,6	;RP1=0, select bank0
  2033  0CC3  1285               	bcf	5,5	;volatile
  2034  0CC4  2CC8               	goto	i1l4225
  2035  0CC5                     i1l198:	
  2036                           
  2037                           ;CarPassword.c: 291: else
  2038                           ;CarPassword.c: 292: RA5 = 0b1;
  2039  0CC5  1283               	bcf	3,5	;RP0=0, select bank0
  2040  0CC6  1303               	bcf	3,6	;RP1=0, select bank0
  2041  0CC7  1685               	bsf	5,5	;volatile
  2042  0CC8                     i1l4225:	
  2043                           
  2044                           ;CarPassword.c: 293: _delay((unsigned long)((190)*(4000000/4000.0)));
  2045  0CC8  30F7               	movlw	247
  2046  0CC9  00CD               	movwf	??_isr+1
  2047  0CCA  30BF               	movlw	191
  2048  0CCB  00CC               	movwf	??_isr
  2049  0CCC                     u276_27:	
  2050  0CCC  0BCC               	decfsz	??_isr,f
  2051  0CCD  2CCC               	goto	u276_27
  2052  0CCE  0BCD               	decfsz	??_isr+1,f
  2053  0CCF  2CCC               	goto	u276_27
  2054  0CD0  2CD1               	nop2
  2055                           
  2056                           ;CarPassword.c: 294: _delay((unsigned long)((190)*(4000000/4000.0)));
  2057  0CD1  30F7               	movlw	247
  2058  0CD2  1283               	bcf	3,5	;RP0=0, select bank0
  2059  0CD3  1303               	bcf	3,6	;RP1=0, select bank0
  2060  0CD4  00CD               	movwf	??_isr+1
  2061  0CD5  30BF               	movlw	191
  2062  0CD6  00CC               	movwf	??_isr
  2063  0CD7                     u277_27:	
  2064  0CD7  0BCC               	decfsz	??_isr,f
  2065  0CD8  2CD7               	goto	u277_27
  2066  0CD9  0BCD               	decfsz	??_isr+1,f
  2067  0CDA  2CD7               	goto	u277_27
  2068  0CDB  2CDC               	nop2
  2069                           
  2070                           ;CarPassword.c: 295: _delay((unsigned long)((190)*(4000000/4000.0)));
  2071  0CDC  30F7               	movlw	247
  2072  0CDD  1283               	bcf	3,5	;RP0=0, select bank0
  2073  0CDE  1303               	bcf	3,6	;RP1=0, select bank0
  2074  0CDF  00CD               	movwf	??_isr+1
  2075  0CE0  30BF               	movlw	191
  2076  0CE1  00CC               	movwf	??_isr
  2077  0CE2                     u278_27:	
  2078  0CE2  0BCC               	decfsz	??_isr,f
  2079  0CE3  2CE2               	goto	u278_27
  2080  0CE4  0BCD               	decfsz	??_isr+1,f
  2081  0CE5  2CE2               	goto	u278_27
  2082  0CE6  2CE7               	nop2
  2083                           
  2084                           ;CarPassword.c: 296: _delay((unsigned long)((190)*(4000000/4000.0)));
  2085  0CE7  30F7               	movlw	247
  2086  0CE8  1283               	bcf	3,5	;RP0=0, select bank0
  2087  0CE9  1303               	bcf	3,6	;RP1=0, select bank0
  2088  0CEA  00CD               	movwf	??_isr+1
  2089  0CEB  30BF               	movlw	191
  2090  0CEC  00CC               	movwf	??_isr
  2091  0CED                     u279_27:	
  2092  0CED  0BCC               	decfsz	??_isr,f
  2093  0CEE  2CED               	goto	u279_27
  2094  0CEF  0BCD               	decfsz	??_isr+1,f
  2095  0CF0  2CED               	goto	u279_27
  2096  0CF1  2CF2               	nop2
  2097                           
  2098                           ;CarPassword.c: 297: _delay((unsigned long)((190)*(4000000/4000.0)));
  2099  0CF2  30F7               	movlw	247
  2100  0CF3  1283               	bcf	3,5	;RP0=0, select bank0
  2101  0CF4  1303               	bcf	3,6	;RP1=0, select bank0
  2102  0CF5  00CD               	movwf	??_isr+1
  2103  0CF6  30BF               	movlw	191
  2104  0CF7  00CC               	movwf	??_isr
  2105  0CF8                     u280_27:	
  2106  0CF8  0BCC               	decfsz	??_isr,f
  2107  0CF9  2CF8               	goto	u280_27
  2108  0CFA  0BCD               	decfsz	??_isr+1,f
  2109  0CFB  2CF8               	goto	u280_27
  2110  0CFC  2CFD               	nop2
  2111                           
  2112                           ;CarPassword.c: 298: _delay((unsigned long)((190)*(4000000/4000.0)));
  2113  0CFD  30F7               	movlw	247
  2114  0CFE  1283               	bcf	3,5	;RP0=0, select bank0
  2115  0CFF  1303               	bcf	3,6	;RP1=0, select bank0
  2116  0D00  00CD               	movwf	??_isr+1
  2117  0D01  30BF               	movlw	191
  2118  0D02  00CC               	movwf	??_isr
  2119  0D03                     u281_27:	
  2120  0D03  0BCC               	decfsz	??_isr,f
  2121  0D04  2D03               	goto	u281_27
  2122  0D05  0BCD               	decfsz	??_isr+1,f
  2123  0D06  2D03               	goto	u281_27
  2124  0D07  2D08               	nop2
  2125                           
  2126                           ;CarPassword.c: 299: _delay((unsigned long)((190)*(4000000/4000.0)));
  2127  0D08  30F7               	movlw	247
  2128  0D09  1283               	bcf	3,5	;RP0=0, select bank0
  2129  0D0A  1303               	bcf	3,6	;RP1=0, select bank0
  2130  0D0B  00CD               	movwf	??_isr+1
  2131  0D0C  30BF               	movlw	191
  2132  0D0D  00CC               	movwf	??_isr
  2133  0D0E                     u282_27:	
  2134  0D0E  0BCC               	decfsz	??_isr,f
  2135  0D0F  2D0E               	goto	u282_27
  2136  0D10  0BCD               	decfsz	??_isr+1,f
  2137  0D11  2D0E               	goto	u282_27
  2138  0D12  2D13               	nop2
  2139                           
  2140                           ;CarPassword.c: 300: _delay((unsigned long)((190)*(4000000/4000.0)));
  2141  0D13  30F7               	movlw	247
  2142  0D14  1283               	bcf	3,5	;RP0=0, select bank0
  2143  0D15  1303               	bcf	3,6	;RP1=0, select bank0
  2144  0D16  00CD               	movwf	??_isr+1
  2145  0D17  30BF               	movlw	191
  2146  0D18  00CC               	movwf	??_isr
  2147  0D19                     u283_27:	
  2148  0D19  0BCC               	decfsz	??_isr,f
  2149  0D1A  2D19               	goto	u283_27
  2150  0D1B  0BCD               	decfsz	??_isr+1,f
  2151  0D1C  2D19               	goto	u283_27
  2152  0D1D  2D1E               	nop2
  2153                           
  2154                           ;CarPassword.c: 301: _delay((unsigned long)((190)*(4000000/4000.0)));
  2155  0D1E  30F7               	movlw	247
  2156  0D1F  1283               	bcf	3,5	;RP0=0, select bank0
  2157  0D20  1303               	bcf	3,6	;RP1=0, select bank0
  2158  0D21  00CD               	movwf	??_isr+1
  2159  0D22  30BF               	movlw	191
  2160  0D23  00CC               	movwf	??_isr
  2161  0D24                     u284_27:	
  2162  0D24  0BCC               	decfsz	??_isr,f
  2163  0D25  2D24               	goto	u284_27
  2164  0D26  0BCD               	decfsz	??_isr+1,f
  2165  0D27  2D24               	goto	u284_27
  2166  0D28  2D29               	nop2
  2167                           
  2168                           ;CarPassword.c: 302: _delay((unsigned long)((190)*(4000000/4000.0)));
  2169  0D29  30F7               	movlw	247
  2170  0D2A  1283               	bcf	3,5	;RP0=0, select bank0
  2171  0D2B  1303               	bcf	3,6	;RP1=0, select bank0
  2172  0D2C  00CD               	movwf	??_isr+1
  2173  0D2D  30BF               	movlw	191
  2174  0D2E  00CC               	movwf	??_isr
  2175  0D2F                     u285_27:	
  2176  0D2F  0BCC               	decfsz	??_isr,f
  2177  0D30  2D2F               	goto	u285_27
  2178  0D31  0BCD               	decfsz	??_isr+1,f
  2179  0D32  2D2F               	goto	u285_27
  2180  0D33  2D34               	nop2
  2181  0D34                     L2:	
  2182                           
  2183                           ;CarPassword.c: 303: if(disp(chk,15,0) == 0b0)
  2184  0D34  300F               	movlw	15
  2185  0D35  00F2               	movwf	?_disp
  2186  0D36  3000               	movlw	0
  2187  0D37  00F3               	movwf	?_disp+1
  2188  0D38  01F4               	clrf	?_disp+2
  2189  0D39  3020               	movlw	_chk& (0+255)
  2190  0D3A  120A  158A  22E8   	fcall	_disp
      +       120A  158A         
  2191  0D3F  3800               	iorlw	0
  2192  0D40  1D03               	skipz
  2193  0D41  2D46               	goto	i1l200
  2194                           
  2195                           ;CarPassword.c: 304: RA5 = 0b0;
  2196  0D42  1283               	bcf	3,5	;RP0=0, select bank0
  2197  0D43  1303               	bcf	3,6	;RP1=0, select bank0
  2198  0D44  1285               	bcf	5,5	;volatile
  2199  0D45  2D49               	goto	i1l4231
  2200  0D46                     i1l200:	
  2201                           
  2202                           ;CarPassword.c: 305: else
  2203                           ;CarPassword.c: 306: RA5 = 0b1;
  2204  0D46  1283               	bcf	3,5	;RP0=0, select bank0
  2205  0D47  1303               	bcf	3,6	;RP1=0, select bank0
  2206  0D48  1685               	bsf	5,5	;volatile
  2207  0D49                     i1l4231:	
  2208                           
  2209                           ;CarPassword.c: 307: keypad_read(&input);
  2210  0D49  3053               	movlw	isr@input& (0+255)
  2211  0D4A  120A  118A  2420   	fcall	_keypad_read
      +       120A  158A         
  2212  0D4F  1283               	bcf	3,5	;RP0=0, select bank0
  2213  0D50  1303               	bcf	3,6	;RP1=0, select bank0
  2214  0D51  085A               	movf	_paswd+3,w	;volatile
  2215  0D52  0656               	xorwf	isr@input+3,w	;volatile
  2216  0D53  1D03               	skipz
  2217  0D54  2D5F               	goto	u239_25
  2218  0D55  0859               	movf	_paswd+2,w	;volatile
  2219  0D56  0655               	xorwf	isr@input+2,w	;volatile
  2220  0D57  1D03               	skipz
  2221  0D58  2D5F               	goto	u239_25
  2222  0D59  0858               	movf	_paswd+1,w	;volatile
  2223  0D5A  0654               	xorwf	isr@input+1,w	;volatile
  2224  0D5B  1D03               	skipz
  2225  0D5C  2D5F               	goto	u239_25
  2226  0D5D  0857               	movf	_paswd,w	;volatile
  2227  0D5E  0653               	xorwf	isr@input,w	;volatile
  2228  0D5F                     u239_25:	
  2229  0D5F  1903               	skipnz
  2230  0D60  2D63               	goto	i1l204
  2231  0D61  1E62               	btfss	_paswd_chng/(0+8),_paswd_chng& (0+7)	;volatile
  2232  0D62  2CB3               	goto	i1l4221
  2233  0D63                     i1l204:	
  2234                           
  2235                           ;CarPassword.c: 308: }
  2236                           ;CarPassword.c: 309: paswd_chng = 0b0;
  2237  0D63  1262               	bcf	_paswd_chng/(0+8),_paswd_chng& (0+7)	;volatile
  2238                           
  2239                           ;CarPassword.c: 310: RA0 = 0b1;
  2240  0D64  1405               	bsf	5,0	;volatile
  2241                           
  2242                           ;CarPassword.c: 311: RA1 = 0b1;
  2243  0D65  1485               	bsf	5,1	;volatile
  2244                           
  2245                           ;CarPassword.c: 312: RE1 = 0b1;
  2246  0D66  1489               	bsf	9,1	;volatile
  2247                           
  2248                           ;CarPassword.c: 313: RE2 = 0b0;
  2249  0D67  1109               	bcf	9,2	;volatile
  2250                           
  2251                           ;CarPassword.c: 314: wrn_num = 0;
  2252  0D68  01E1               	clrf	_wrn_num	;volatile
  2253                           
  2254                           ;CarPassword.c: 315: if(disp(suc,13,0) == 0b0)
  2255  0D69  300D               	movlw	13
  2256  0D6A  00F2               	movwf	?_disp
  2257  0D6B  3000               	movlw	0
  2258  0D6C  00F3               	movwf	?_disp+1
  2259  0D6D  01F4               	clrf	?_disp+2
  2260  0D6E  3030               	movlw	_suc& (0+255)
  2261  0D6F  120A  158A  22E8   	fcall	_disp
      +       120A  158A         
  2262  0D74  3800               	iorlw	0
  2263  0D75  1D03               	skipz
  2264  0D76  2D7B               	goto	i1l205
  2265                           
  2266                           ;CarPassword.c: 316: RA5 = 0b0;
  2267  0D77  1283               	bcf	3,5	;RP0=0, select bank0
  2268  0D78  1303               	bcf	3,6	;RP1=0, select bank0
  2269  0D79  1285               	bcf	5,5	;volatile
  2270  0D7A  2D7E               	goto	i1l4243
  2271  0D7B                     i1l205:	
  2272                           
  2273                           ;CarPassword.c: 317: else
  2274                           ;CarPassword.c: 318: RA5 = 0b1;
  2275  0D7B  1283               	bcf	3,5	;RP0=0, select bank0
  2276  0D7C  1303               	bcf	3,6	;RP1=0, select bank0
  2277  0D7D  1685               	bsf	5,5	;volatile
  2278  0D7E                     i1l4243:	
  2279                           
  2280                           ;CarPassword.c: 319: _delay((unsigned long)((197)*(4000000/4000.0)));
  2281  0D7E  3000               	movlw	0
  2282  0D7F  00CD               	movwf	??_isr+1
  2283  0D80  30D7               	movlw	215
  2284  0D81  00CC               	movwf	??_isr
  2285  0D82                     u286_27:	
  2286  0D82  0BCC               	decfsz	??_isr,f
  2287  0D83  2D82               	goto	u286_27
  2288  0D84  0BCD               	decfsz	??_isr+1,f
  2289  0D85  2D82               	goto	u286_27
  2290                           
  2291                           ;CarPassword.c: 320: _delay((unsigned long)((197)*(4000000/4000.0)));
  2292  0D86  3000               	movlw	0
  2293  0D87  1283               	bcf	3,5	;RP0=0, select bank0
  2294  0D88  1303               	bcf	3,6	;RP1=0, select bank0
  2295  0D89  00CD               	movwf	??_isr+1
  2296  0D8A  30D7               	movlw	215
  2297  0D8B  00CC               	movwf	??_isr
  2298  0D8C                     u287_27:	
  2299  0D8C  0BCC               	decfsz	??_isr,f
  2300  0D8D  2D8C               	goto	u287_27
  2301  0D8E  0BCD               	decfsz	??_isr+1,f
  2302  0D8F  2D8C               	goto	u287_27
  2303                           
  2304                           ;CarPassword.c: 321: _delay((unsigned long)((197)*(4000000/4000.0)));
  2305  0D90  3000               	movlw	0
  2306  0D91  1283               	bcf	3,5	;RP0=0, select bank0
  2307  0D92  1303               	bcf	3,6	;RP1=0, select bank0
  2308  0D93  00CD               	movwf	??_isr+1
  2309  0D94  30D7               	movlw	215
  2310  0D95  00CC               	movwf	??_isr
  2311  0D96                     u288_27:	
  2312  0D96  0BCC               	decfsz	??_isr,f
  2313  0D97  2D96               	goto	u288_27
  2314  0D98  0BCD               	decfsz	??_isr+1,f
  2315  0D99  2D96               	goto	u288_27
  2316                           
  2317                           ;CarPassword.c: 322: _delay((unsigned long)((197)*(4000000/4000.0)));
  2318  0D9A  3000               	movlw	0
  2319  0D9B  1283               	bcf	3,5	;RP0=0, select bank0
  2320  0D9C  1303               	bcf	3,6	;RP1=0, select bank0
  2321  0D9D  00CD               	movwf	??_isr+1
  2322  0D9E  30D7               	movlw	215
  2323  0D9F  00CC               	movwf	??_isr
  2324  0DA0                     u289_27:	
  2325  0DA0  0BCC               	decfsz	??_isr,f
  2326  0DA1  2DA0               	goto	u289_27
  2327  0DA2  0BCD               	decfsz	??_isr+1,f
  2328  0DA3  2DA0               	goto	u289_27
  2329                           
  2330                           ;CarPassword.c: 323: _delay((unsigned long)((197)*(4000000/4000.0)));
  2331  0DA4  3000               	movlw	0
  2332  0DA5  1283               	bcf	3,5	;RP0=0, select bank0
  2333  0DA6  1303               	bcf	3,6	;RP1=0, select bank0
  2334  0DA7  00CD               	movwf	??_isr+1
  2335  0DA8  30D7               	movlw	215
  2336  0DA9  00CC               	movwf	??_isr
  2337  0DAA                     u290_27:	
  2338  0DAA  0BCC               	decfsz	??_isr,f
  2339  0DAB  2DAA               	goto	u290_27
  2340  0DAC  0BCD               	decfsz	??_isr+1,f
  2341  0DAD  2DAA               	goto	u290_27
  2342                           
  2343                           ;CarPassword.c: 324: _delay((unsigned long)((197)*(4000000/4000.0)));
  2344  0DAE  3000               	movlw	0
  2345  0DAF  1283               	bcf	3,5	;RP0=0, select bank0
  2346  0DB0  1303               	bcf	3,6	;RP1=0, select bank0
  2347  0DB1  00CD               	movwf	??_isr+1
  2348  0DB2  30D7               	movlw	215
  2349  0DB3  00CC               	movwf	??_isr
  2350  0DB4                     u291_27:	
  2351  0DB4  0BCC               	decfsz	??_isr,f
  2352  0DB5  2DB4               	goto	u291_27
  2353  0DB6  0BCD               	decfsz	??_isr+1,f
  2354  0DB7  2DB4               	goto	u291_27
  2355                           
  2356                           ;CarPassword.c: 325: _delay((unsigned long)((197)*(4000000/4000.0)));
  2357  0DB8  3000               	movlw	0
  2358  0DB9  1283               	bcf	3,5	;RP0=0, select bank0
  2359  0DBA  1303               	bcf	3,6	;RP1=0, select bank0
  2360  0DBB  00CD               	movwf	??_isr+1
  2361  0DBC  30D7               	movlw	215
  2362  0DBD  00CC               	movwf	??_isr
  2363  0DBE                     u292_27:	
  2364  0DBE  0BCC               	decfsz	??_isr,f
  2365  0DBF  2DBE               	goto	u292_27
  2366  0DC0  0BCD               	decfsz	??_isr+1,f
  2367  0DC1  2DBE               	goto	u292_27
  2368                           
  2369                           ;CarPassword.c: 326: _delay((unsigned long)((197)*(4000000/4000.0)));
  2370  0DC2  3000               	movlw	0
  2371  0DC3  1283               	bcf	3,5	;RP0=0, select bank0
  2372  0DC4  1303               	bcf	3,6	;RP1=0, select bank0
  2373  0DC5  00CD               	movwf	??_isr+1
  2374  0DC6  30D7               	movlw	215
  2375  0DC7  00CC               	movwf	??_isr
  2376  0DC8                     u293_27:	
  2377  0DC8  0BCC               	decfsz	??_isr,f
  2378  0DC9  2DC8               	goto	u293_27
  2379  0DCA  0BCD               	decfsz	??_isr+1,f
  2380  0DCB  2DC8               	goto	u293_27
  2381                           
  2382                           ;CarPassword.c: 327: _delay((unsigned long)((197)*(4000000/4000.0)));
  2383  0DCC  3000               	movlw	0
  2384  0DCD  1283               	bcf	3,5	;RP0=0, select bank0
  2385  0DCE  1303               	bcf	3,6	;RP1=0, select bank0
  2386  0DCF  00CD               	movwf	??_isr+1
  2387  0DD0  30D7               	movlw	215
  2388  0DD1  00CC               	movwf	??_isr
  2389  0DD2                     u294_27:	
  2390  0DD2  0BCC               	decfsz	??_isr,f
  2391  0DD3  2DD2               	goto	u294_27
  2392  0DD4  0BCD               	decfsz	??_isr+1,f
  2393  0DD5  2DD2               	goto	u294_27
  2394                           
  2395                           ;CarPassword.c: 328: _delay((unsigned long)((197)*(4000000/4000.0)));
  2396  0DD6  3000               	movlw	0
  2397  0DD7  1283               	bcf	3,5	;RP0=0, select bank0
  2398  0DD8  1303               	bcf	3,6	;RP1=0, select bank0
  2399  0DD9  00CD               	movwf	??_isr+1
  2400  0DDA  30D7               	movlw	215
  2401  0DDB  00CC               	movwf	??_isr
  2402  0DDC                     u295_27:	
  2403  0DDC  0BCC               	decfsz	??_isr,f
  2404  0DDD  2DDC               	goto	u295_27
  2405  0DDE  0BCD               	decfsz	??_isr+1,f
  2406  0DDF  2DDC               	goto	u295_27
  2407                           
  2408                           ;CarPassword.c: 329: RC0 = 0b0;
  2409  0DE0  1283               	bcf	3,5	;RP0=0, select bank0
  2410  0DE1  1303               	bcf	3,6	;RP1=0, select bank0
  2411  0DE2  1007               	bcf	7,0	;volatile
  2412  0DE3                     i1l4247:	
  2413                           
  2414                           ;CarPassword.c: 330: }
  2415                           ;CarPassword.c: 331: if(RB4 == 0b1)
  2416  0DE3  1E06               	btfss	6,4	;volatile
  2417  0DE4  2DF0               	goto	i1l4255
  2418                           
  2419                           ;CarPassword.c: 332: {
  2420                           ;CarPassword.c: 333: RA0 = 0b0;
  2421  0DE5  1005               	bcf	5,0	;volatile
  2422                           
  2423                           ;CarPassword.c: 334: RA1 = 0b0;
  2424  0DE6  1085               	bcf	5,1	;volatile
  2425                           
  2426                           ;CarPassword.c: 335: RE1 = 0b0;
  2427  0DE7  1089               	bcf	9,1	;volatile
  2428                           
  2429                           ;CarPassword.c: 336: disp_off();
  2430  0DE8  120A  158A  2002   	fcall	_disp_off
      +       120A  158A         
  2431                           
  2432                           ;CarPassword.c: 337: RA5 = 0b0;
  2433  0DED  1283               	bcf	3,5	;RP0=0, select bank0
  2434  0DEE  1303               	bcf	3,6	;RP1=0, select bank0
  2435  0DEF  1285               	bcf	5,5	;volatile
  2436  0DF0                     i1l4255:	
  2437                           
  2438                           ;CarPassword.c: 339: }
  2439                           ;CarPassword.c: 340: if(RB5 == 0b0)
  2440  0DF0  1E86               	btfss	6,5	;volatile
  2441                           
  2442                           ;CarPassword.c: 341: {
  2443                           ;CarPassword.c: 342: if(wrn == 0b1)
  2444  0DF1  1EE2               	btfss	_wrn/(0+8),_wrn& (0+7)	;volatile
  2445  0DF2  2DF4               	goto	i1l208
  2446                           
  2447                           ;CarPassword.c: 343: RE2 =0b1;
  2448  0DF3  1509               	bsf	9,2	;volatile
  2449  0DF4                     i1l208:	
  2450                           
  2451                           ;CarPassword.c: 344: }
  2452                           ;CarPassword.c: 345: if(RB6 == 0b0)
  2453  0DF4  1F06               	btfss	6,6	;volatile
  2454                           
  2455                           ;CarPassword.c: 346: {
  2456                           ;CarPassword.c: 347: if(wrn == 0b1)
  2457  0DF5  1EE2               	btfss	_wrn/(0+8),_wrn& (0+7)	;volatile
  2458  0DF6  2DF8               	goto	i1l210
  2459                           
  2460                           ;CarPassword.c: 348: RE2 = 0b1;
  2461  0DF7  1509               	bsf	9,2	;volatile
  2462  0DF8                     i1l210:	
  2463                           
  2464                           ;CarPassword.c: 349: }
  2465                           ;CarPassword.c: 350: if(RB7 == 0b0)
  2466  0DF8  1B86               	btfsc	6,7	;volatile
  2467  0DF9  2E00               	goto	i1l212
  2468                           
  2469                           ;CarPassword.c: 351: {
  2470                           ;CarPassword.c: 352: RE2 = 0b1;
  2471  0DFA  1509               	bsf	9,2	;volatile
  2472                           
  2473                           ;CarPassword.c: 353: wrn_num++;
  2474  0DFB  3001               	movlw	1
  2475  0DFC  00CC               	movwf	??_isr
  2476  0DFD  084C               	movf	??_isr,w
  2477  0DFE  07E1               	addwf	_wrn_num,f	;volatile
  2478                           
  2479                           ;CarPassword.c: 354: }
  2480  0DFF  2E01               	goto	i1l213
  2481  0E00                     i1l212:	
  2482                           
  2483                           ;CarPassword.c: 355: else
  2484                           ;CarPassword.c: 356: RE2 = 0b0;
  2485  0E00  1109               	bcf	9,2	;volatile
  2486  0E01                     i1l213:	
  2487                           
  2488                           ;CarPassword.c: 357: RBIF = 0b0;
  2489  0E01  100B               	bcf	11,0	;volatile
  2490  0E02                     i1l192:	
  2491                           
  2492                           ;CarPassword.c: 358: }
  2493                           ;CarPassword.c: 359: if(INTF)
  2494  0E02  1C8B               	btfss	11,1	;volatile
  2495  0E03  2E0A               	goto	i1l215
  2496                           
  2497                           ;CarPassword.c: 360: {
  2498                           ;CarPassword.c: 361: wrn ^= 0b1;
  2499  0E04  3020               	movlw	(0+1) shl (_wrn& (0+7))
  2500  0E05  06E2               	xorwf	_wrn/(0+8),f
  2501                           
  2502                           ;CarPassword.c: 362: RA3 ^= 0b1;
  2503  0E06  3008               	movlw	8
  2504  0E07  0685               	xorwf	5,f
  2505                           
  2506                           ;CarPassword.c: 363: RE2 = 0b0;
  2507  0E08  1109               	bcf	9,2	;volatile
  2508                           
  2509                           ;CarPassword.c: 364: INTF = 0b0;
  2510  0E09  108B               	bcf	11,1	;volatile
  2511  0E0A                     i1l215:	
  2512  0E0A  0851               	movf	??_isr+5,w
  2513  0E0B  00FF               	movwf	127
  2514  0E0C  0850               	movf	??_isr+4,w
  2515  0E0D  008A               	movwf	10
  2516  0E0E  084F               	movf	??_isr+3,w
  2517  0E0F  0084               	movwf	4
  2518  0E10  0E4E               	swapf	(??_isr+2)^0,w
  2519  0E11  0083               	movwf	3
  2520  0E12  0EFE               	swapf	126,f
  2521  0E13  0E7E               	swapf	126,w
  2522  0E14  0009               	retfie
  2523  0E15                     __end_of_isr:	
  2524                           
  2525                           	psect	intentry
  2526  0004                     __pintentry:	
  2527                           ;incstack = 0
  2528                           ; Regs used in _isr: [wreg-fsr0h+status,2+status,0+pclath+cstack]
  2529                           
  2530  0004                     interrupt_function:	
  2531  007E                     saved_w	set	btemp
  2532  0004  00FE               	movwf	btemp
  2533  0005  0E03               	swapf	3,w
  2534  0006  1283               	bcf	3,5	;RP0=0, select bank0
  2535  0007  1303               	bcf	3,6	;RP1=0, select bank0
  2536  0008  00CE               	movwf	??_isr+2
  2537  0009  0804               	movf	4,w
  2538  000A  00CF               	movwf	??_isr+3
  2539  000B  080A               	movf	10,w
  2540  000C  00D0               	movwf	??_isr+4
  2541  000D  087F               	movf	btemp+1,w
  2542  000E  00D1               	movwf	??_isr+5
  2543  000F  120A  158A  2C52   	ljmp	_isr
  2544                           
  2545                           	psect	text4
  2546  0802                     __ptext4:	
  2547 ;; *************** function _disp_off *****************
  2548 ;; Defined at:
  2549 ;;		line 306 in file "ST7066U_4bit.c"
  2550 ;; Parameters:    Size  Location     Type
  2551 ;;		None
  2552 ;; Auto vars:     Size  Location     Type
  2553 ;;		None
  2554 ;; Return value:  Size  Location     Type
  2555 ;;                  1    wreg      unsigned char 
  2556 ;; Registers used:
  2557 ;;		wreg, status,2, status,0, pclath, cstack
  2558 ;; Tracked objects:
  2559 ;;		On entry : 0/0
  2560 ;;		On exit  : 0/0
  2561 ;;		Unchanged: 0/0
  2562 ;; Data sizes:     COMMON   BANK0   BANK1   BANK3   BANK2
  2563 ;;      Params:         0       0       0       0       0
  2564 ;;      Locals:         0       0       0       0       0
  2565 ;;      Temps:          1       0       0       0       0
  2566 ;;      Totals:         1       0       0       0       0
  2567 ;;Total ram usage:        1 bytes
  2568 ;; Hardware stack levels used:    1
  2569 ;; Hardware stack levels required when called:    1
  2570 ;; This function calls:
  2571 ;;		i1_chk_bf
  2572 ;; This function is called by:
  2573 ;;		_isr
  2574 ;; This function uses a non-reentrant model
  2575 ;;
  2576                           
  2577                           
  2578                           ;psect for function _disp_off
  2579  0802                     _disp_off:	
  2580  0802                     i1l3509:	
  2581                           ;ST7066U_4bit.c: 307: while(chk_bf() == 1)
  2582                           
  2583                           ;incstack = 0
  2584                           ; Regs used in _disp_off: [wreg+status,2+status,0+pclath+cstack]
  2585                           
  2586  0802  160A  118A  2690   	fcall	i1_chk_bf
      +       120A  158A         
  2587  0807  3A01               	xorlw	1
  2588  0808  1D03               	btfss	3,2
  2589  0809  281A               	goto	i1l367
  2590                           
  2591                           ;ST7066U_4bit.c: 308: {
  2592                           ;ST7066U_4bit.c: 309: _delay((unsigned long)((80)*(4000000/4000000.0)));
  2593  080A  301A               	movlw	26
  2594  080B  00F2               	movwf	??_disp_off
  2595  080C                     u296_27:	
  2596  080C  0BF2               	decfsz	??_disp_off,f
  2597  080D  280C               	goto	u296_27
  2598  080E  0000               	nop
  2599                           
  2600                           ;ST7066U_4bit.c: 310: ++bf_fails;
  2601  080F  3001               	movlw	1
  2602  0810  00F2               	movwf	??_disp_off
  2603  0811  0872               	movf	??_disp_off,w
  2604  0812  1283               	bcf	3,5	;RP0=0, select bank0
  2605  0813  1303               	bcf	3,6	;RP1=0, select bank0
  2606  0814  07DB               	addwf	_bf_fails,f
  2607                           
  2608                           ;ST7066U_4bit.c: 311: if(bf_fails >= 25)
  2609  0815  3019               	movlw	25
  2610  0816  025B               	subwf	_bf_fails,w
  2611  0817  1803               	btfsc	3,0
  2612  0818  0008               	return
  2613  0819  2802               	goto	i1l3509
  2614  081A                     i1l367:	
  2615                           ;ST7066U_4bit.c: 312: {
  2616                           ;ST7066U_4bit.c: 313: return 1;
  2617                           ;	Return value of _disp_off is never used
  2618                           
  2619                           
  2620                           ;ST7066U_4bit.c: 314: }
  2621                           ;ST7066U_4bit.c: 315: }
  2622                           ;ST7066U_4bit.c: 316: RC3 = 0b0;
  2623  081A  1283               	bcf	3,5	;RP0=0, select bank0
  2624  081B  1303               	bcf	3,6	;RP1=0, select bank0
  2625  081C  1187               	bcf	7,3	;volatile
  2626                           
  2627                           ;ST7066U_4bit.c: 317: RC1 = 0b0;
  2628  081D  1087               	bcf	7,1	;volatile
  2629                           
  2630                           ;ST7066U_4bit.c: 318: RC2 = 0b0;
  2631  081E  1107               	bcf	7,2	;volatile
  2632                           
  2633                           ;ST7066U_4bit.c: 319: PORTC &= 0x0F;
  2634  081F  300F               	movlw	15
  2635  0820  00F2               	movwf	??_disp_off
  2636  0821  0872               	movf	??_disp_off,w
  2637  0822  0587               	andwf	7,f	;volatile
  2638                           
  2639                           ;ST7066U_4bit.c: 320: RC3 = 0b1;
  2640  0823  1587               	bsf	7,3	;volatile
  2641                           
  2642                           ;ST7066U_4bit.c: 321: _delay((unsigned long)((4)*(4000000/4000000.0)));
  2643  0824  2825               	nop2	;2 cycle nop
  2644  0825  2826               	nop2	;2 cycle nop
  2645                           
  2646                           ;ST7066U_4bit.c: 322: RC3 = 0b0;
  2647  0826  1283               	bcf	3,5	;RP0=0, select bank0
  2648  0827  1303               	bcf	3,6	;RP1=0, select bank0
  2649  0828  1187               	bcf	7,3	;volatile
  2650                           
  2651                           ;ST7066U_4bit.c: 323: _delay((unsigned long)((4)*(4000000/4000000.0)));
  2652  0829  282A               	nop2	;2 cycle nop
  2653  082A  282B               	nop2	;2 cycle nop
  2654                           
  2655                           ;ST7066U_4bit.c: 324: RC3 = 0b1;
  2656  082B  1283               	bcf	3,5	;RP0=0, select bank0
  2657  082C  1303               	bcf	3,6	;RP1=0, select bank0
  2658  082D  1587               	bsf	7,3	;volatile
  2659                           
  2660                           ;ST7066U_4bit.c: 325: PORTC |= 0x80;
  2661  082E  1787               	bsf	7,7	;volatile
  2662                           
  2663                           ;ST7066U_4bit.c: 326: _delay((unsigned long)((4)*(4000000/4000000.0)));
  2664  082F  2830               	nop2	;2 cycle nop
  2665  0830  2831               	nop2	;2 cycle nop
  2666                           
  2667                           ;ST7066U_4bit.c: 327: RC3 = 0b0;
  2668  0831  1283               	bcf	3,5	;RP0=0, select bank0
  2669  0832  1303               	bcf	3,6	;RP1=0, select bank0
  2670  0833  1187               	bcf	7,3	;volatile
  2671                           
  2672                           ;ST7066U_4bit.c: 328: _delay((unsigned long)((40)*(4000000/4000000.0)));
  2673  0834  300D               	movlw	13
  2674  0835  00F2               	movwf	??_disp_off
  2675  0836                     u297_27:	
  2676  0836  0BF2               	decfsz	??_disp_off,f
  2677  0837  2836               	goto	u297_27
  2678  0838  0008               	return
  2679  0839                     __end_of_disp_off:	
  2680                           ;ST7066U_4bit.c: 329: return 0;
  2681                           ;	Return value of _disp_off is never used
  2682                           
  2683                           
  2684                           	psect	text5
  2685  0420                     __ptext5:	
  2686 ;; *************** function _keypad_read *****************
  2687 ;; Defined at:
  2688 ;;		line 16 in file "Keypad.c"
  2689 ;; Parameters:    Size  Location     Type
  2690 ;;  input           1    wreg     PTR volatile unsigned lo
  2691 ;;		 -> isr@input(4), 
  2692 ;; Auto vars:     Size  Location     Type
  2693 ;;  input           1   13[BANK0 ] PTR volatile unsigned lo
  2694 ;;		 -> isr@input(4), 
  2695 ;; Return value:  Size  Location     Type
  2696 ;;                  1    wreg      unsigned char 
  2697 ;; Registers used:
  2698 ;;		wreg, fsr0l, fsr0h, status,2, status,0, pclath, cstack
  2699 ;; Tracked objects:
  2700 ;;		On entry : 0/0
  2701 ;;		On exit  : 0/0
  2702 ;;		Unchanged: 0/0
  2703 ;; Data sizes:     COMMON   BANK0   BANK1   BANK3   BANK2
  2704 ;;      Params:         0       0       0       0       0
  2705 ;;      Locals:         0       1       0       0       0
  2706 ;;      Temps:          0       2       0       0       0
  2707 ;;      Totals:         0       3       0       0       0
  2708 ;;Total ram usage:        3 bytes
  2709 ;; Hardware stack levels used:    1
  2710 ;; Hardware stack levels required when called:    4
  2711 ;; This function calls:
  2712 ;;		_spec_func1
  2713 ;;		_spec_func4
  2714 ;;		_spec_func2
  2715 ;;		_spec_func3
  2716 ;;		___lmul
  2717 ;; This function is called by:
  2718 ;;		_isr
  2719 ;; This function uses a non-reentrant model
  2720 ;;
  2721                           
  2722                           
  2723                           ;psect for function _keypad_read
  2724  0420                     _keypad_read:	
  2725                           
  2726                           ;incstack = 0
  2727                           ; Regs used in _keypad_read: [wreg-fsr0h+status,2+status,0+pclath+cstack]
  2728                           ;keypad_read@input stored from wreg
  2729  0420  1283               	bcf	3,5	;RP0=0, select bank0
  2730  0421  1303               	bcf	3,6	;RP1=0, select bank0
  2731  0422  00CB               	movwf	keypad_read@input
  2732                           
  2733                           ;Keypad.c: 17: (*input)=0;
  2734  0423  084B               	movf	keypad_read@input,w
  2735  0424  0084               	movwf	4
  2736  0425  1383               	bcf	3,7	;select IRP bank0
  2737  0426  0180               	clrf	0
  2738  0427  0A84               	incf	4,f
  2739  0428  0180               	clrf	0
  2740  0429  0A84               	incf	4,f
  2741  042A  0180               	clrf	0
  2742  042B  0A84               	incf	4,f
  2743  042C  0180               	clrf	0
  2744  042D                     i1l4013:	
  2745                           ;Keypad.c: 18: while(1)
  2746                           
  2747                           
  2748                           ;Keypad.c: 19: {
  2749                           ;Keypad.c: 20: PORTD = 0xFE;
  2750  042D  30FE               	movlw	254
  2751  042E  1283               	bcf	3,5	;RP0=0, select bank0
  2752  042F  1303               	bcf	3,6	;RP1=0, select bank0
  2753  0430  0088               	movwf	8	;volatile
  2754                           
  2755                           ;Keypad.c: 21: if((PORTD & 0x10) == 0)
  2756  0431  1A08               	btfsc	8,4	;volatile
  2757  0432  2C79               	goto	i1l241
  2758                           
  2759                           ;Keypad.c: 22: {
  2760                           ;Keypad.c: 23: RE0 = 0b1;
  2761  0433  1409               	bsf	9,0	;volatile
  2762                           
  2763                           ;Keypad.c: 24: _delay((unsigned long)((150)*(4000000/4000.0)));
  2764  0434  30C3               	movlw	195
  2765  0435  00CA               	movwf	??_keypad_read+1
  2766  0436  30CD               	movlw	205
  2767  0437  00C9               	movwf	??_keypad_read
  2768  0438                     u298_27:	
  2769  0438  0BC9               	decfsz	??_keypad_read,f
  2770  0439  2C38               	goto	u298_27
  2771  043A  0BCA               	decfsz	??_keypad_read+1,f
  2772  043B  2C38               	goto	u298_27
  2773                           
  2774                           ;Keypad.c: 25: _delay((unsigned long)((150)*(4000000/4000.0)));
  2775  043C  30C3               	movlw	195
  2776  043D  1283               	bcf	3,5	;RP0=0, select bank0
  2777  043E  1303               	bcf	3,6	;RP1=0, select bank0
  2778  043F  00CA               	movwf	??_keypad_read+1
  2779  0440  30CD               	movlw	205
  2780  0441  00C9               	movwf	??_keypad_read
  2781  0442                     u299_27:	
  2782  0442  0BC9               	decfsz	??_keypad_read,f
  2783  0443  2C42               	goto	u299_27
  2784  0444  0BCA               	decfsz	??_keypad_read+1,f
  2785  0445  2C42               	goto	u299_27
  2786                           
  2787                           ;Keypad.c: 26: (*input) *= (unsigned long int)10;
  2788  0446  3000               	movlw	0
  2789  0447  00F3               	movwf	?___lmul+3
  2790  0448  3000               	movlw	0
  2791  0449  00F2               	movwf	?___lmul+2
  2792  044A  3000               	movlw	0
  2793  044B  00F1               	movwf	?___lmul+1
  2794  044C  300A               	movlw	10
  2795  044D  00F0               	movwf	?___lmul
  2796  044E  1283               	bcf	3,5	;RP0=0, select bank0
  2797  044F  1303               	bcf	3,6	;RP1=0, select bank0
  2798  0450  084B               	movf	keypad_read@input,w
  2799  0451  0084               	movwf	4
  2800  0452  1383               	bcf	3,7	;select IRP bank0
  2801  0453  0800               	movf	0,w
  2802  0454  00F4               	movwf	?___lmul+4
  2803  0455  0A84               	incf	4,f
  2804  0456  0800               	movf	0,w
  2805  0457  00F5               	movwf	?___lmul+5
  2806  0458  0A84               	incf	4,f
  2807  0459  0800               	movf	0,w
  2808  045A  00F6               	movwf	?___lmul+6
  2809  045B  0A84               	incf	4,f
  2810  045C  0800               	movf	0,w
  2811  045D  00F7               	movwf	?___lmul+7
  2812  045E  0804               	movf	4,w
  2813  045F  00C9               	movwf	??_keypad_read
  2814  0460  160A  118A  26F8   	fcall	___lmul
      +       120A  118A         
  2815  0465  1283               	bcf	3,5	;RP0=0, select bank0
  2816  0466  1303               	bcf	3,6	;RP1=0, select bank0
  2817  0467  0849               	movf	??_keypad_read,w
  2818  0468  0084               	movwf	4
  2819  0469  0873               	movf	?___lmul+3,w
  2820  046A  1383               	bcf	3,7	;select IRP bank0
  2821  046B  0080               	movwf	0
  2822  046C  0384               	decf	4,f
  2823  046D  0872               	movf	?___lmul+2,w
  2824  046E  0080               	movwf	0
  2825  046F  0384               	decf	4,f
  2826  0470  0871               	movf	?___lmul+1,w
  2827  0471  0080               	movwf	0
  2828  0472  0384               	decf	4,f
  2829  0473  0870               	movf	?___lmul,w
  2830  0474  0080               	movwf	0
  2831                           
  2832                           ;Keypad.c: 27: (*input) += 1;
  2833  0475  084B               	movf	keypad_read@input,w
  2834  0476  0084               	movwf	4
  2835  0477  3001               	movlw	1
  2836  0478  2D08               	goto	L3
  2837  0479                     i1l241:	
  2838                           ;Keypad.c: 29: }
  2839                           
  2840                           ;Keypad.c: 28: RE0 = 0b0;
  2841                           
  2842                           
  2843                           ;Keypad.c: 30: else if((PORTD & 0x20) == 0)
  2844  0479  1A88               	btfsc	8,5	;volatile
  2845  047A  2CC1               	goto	i1l243
  2846                           
  2847                           ;Keypad.c: 31: {
  2848                           ;Keypad.c: 32: RE0 = 0b1;
  2849  047B  1409               	bsf	9,0	;volatile
  2850                           
  2851                           ;Keypad.c: 33: _delay((unsigned long)((150)*(4000000/4000.0)));
  2852  047C  30C3               	movlw	195
  2853  047D  00CA               	movwf	??_keypad_read+1
  2854  047E  30CD               	movlw	205
  2855  047F  00C9               	movwf	??_keypad_read
  2856  0480                     u300_27:	
  2857  0480  0BC9               	decfsz	??_keypad_read,f
  2858  0481  2C80               	goto	u300_27
  2859  0482  0BCA               	decfsz	??_keypad_read+1,f
  2860  0483  2C80               	goto	u300_27
  2861                           
  2862                           ;Keypad.c: 34: _delay((unsigned long)((150)*(4000000/4000.0)));
  2863  0484  30C3               	movlw	195
  2864  0485  1283               	bcf	3,5	;RP0=0, select bank0
  2865  0486  1303               	bcf	3,6	;RP1=0, select bank0
  2866  0487  00CA               	movwf	??_keypad_read+1
  2867  0488  30CD               	movlw	205
  2868  0489  00C9               	movwf	??_keypad_read
  2869  048A                     u301_27:	
  2870  048A  0BC9               	decfsz	??_keypad_read,f
  2871  048B  2C8A               	goto	u301_27
  2872  048C  0BCA               	decfsz	??_keypad_read+1,f
  2873  048D  2C8A               	goto	u301_27
  2874                           
  2875                           ;Keypad.c: 35: (*input) *= (unsigned long int)10;
  2876  048E  3000               	movlw	0
  2877  048F  00F3               	movwf	?___lmul+3
  2878  0490  3000               	movlw	0
  2879  0491  00F2               	movwf	?___lmul+2
  2880  0492  3000               	movlw	0
  2881  0493  00F1               	movwf	?___lmul+1
  2882  0494  300A               	movlw	10
  2883  0495  00F0               	movwf	?___lmul
  2884  0496  1283               	bcf	3,5	;RP0=0, select bank0
  2885  0497  1303               	bcf	3,6	;RP1=0, select bank0
  2886  0498  084B               	movf	keypad_read@input,w
  2887  0499  0084               	movwf	4
  2888  049A  1383               	bcf	3,7	;select IRP bank0
  2889  049B  0800               	movf	0,w
  2890  049C  00F4               	movwf	?___lmul+4
  2891  049D  0A84               	incf	4,f
  2892  049E  0800               	movf	0,w
  2893  049F  00F5               	movwf	?___lmul+5
  2894  04A0  0A84               	incf	4,f
  2895  04A1  0800               	movf	0,w
  2896  04A2  00F6               	movwf	?___lmul+6
  2897  04A3  0A84               	incf	4,f
  2898  04A4  0800               	movf	0,w
  2899  04A5  00F7               	movwf	?___lmul+7
  2900  04A6  0804               	movf	4,w
  2901  04A7  00C9               	movwf	??_keypad_read
  2902  04A8  160A  118A  26F8   	fcall	___lmul
      +       120A  118A         
  2903  04AD  1283               	bcf	3,5	;RP0=0, select bank0
  2904  04AE  1303               	bcf	3,6	;RP1=0, select bank0
  2905  04AF  0849               	movf	??_keypad_read,w
  2906  04B0  0084               	movwf	4
  2907  04B1  0873               	movf	?___lmul+3,w
  2908  04B2  1383               	bcf	3,7	;select IRP bank0
  2909  04B3  0080               	movwf	0
  2910  04B4  0384               	decf	4,f
  2911  04B5  0872               	movf	?___lmul+2,w
  2912  04B6  0080               	movwf	0
  2913  04B7  0384               	decf	4,f
  2914  04B8  0871               	movf	?___lmul+1,w
  2915  04B9  0080               	movwf	0
  2916  04BA  0384               	decf	4,f
  2917  04BB  0870               	movf	?___lmul,w
  2918  04BC  0080               	movwf	0
  2919                           
  2920                           ;Keypad.c: 36: (*input) += 4;
  2921  04BD  084B               	movf	keypad_read@input,w
  2922  04BE  0084               	movwf	4
  2923  04BF  3004               	movlw	4
  2924  04C0  2D08               	goto	L3
  2925  04C1                     i1l243:	
  2926                           ;Keypad.c: 38: }
  2927                           
  2928                           ;Keypad.c: 37: RE0 = 0b0;
  2929                           
  2930                           
  2931                           ;Keypad.c: 39: else if((PORTD & 0x40) == 0)
  2932  04C1  1B08               	btfsc	8,6	;volatile
  2933  04C2  2D1C               	goto	i1l245
  2934                           
  2935                           ;Keypad.c: 40: {
  2936                           ;Keypad.c: 41: RE0 = 0b1;
  2937  04C3  1409               	bsf	9,0	;volatile
  2938                           
  2939                           ;Keypad.c: 42: _delay((unsigned long)((150)*(4000000/4000.0)));
  2940  04C4  30C3               	movlw	195
  2941  04C5  00CA               	movwf	??_keypad_read+1
  2942  04C6  30CD               	movlw	205
  2943  04C7  00C9               	movwf	??_keypad_read
  2944  04C8                     u302_27:	
  2945  04C8  0BC9               	decfsz	??_keypad_read,f
  2946  04C9  2CC8               	goto	u302_27
  2947  04CA  0BCA               	decfsz	??_keypad_read+1,f
  2948  04CB  2CC8               	goto	u302_27
  2949                           
  2950                           ;Keypad.c: 43: _delay((unsigned long)((150)*(4000000/4000.0)));
  2951  04CC  30C3               	movlw	195
  2952  04CD  1283               	bcf	3,5	;RP0=0, select bank0
  2953  04CE  1303               	bcf	3,6	;RP1=0, select bank0
  2954  04CF  00CA               	movwf	??_keypad_read+1
  2955  04D0  30CD               	movlw	205
  2956  04D1  00C9               	movwf	??_keypad_read
  2957  04D2                     u303_27:	
  2958  04D2  0BC9               	decfsz	??_keypad_read,f
  2959  04D3  2CD2               	goto	u303_27
  2960  04D4  0BCA               	decfsz	??_keypad_read+1,f
  2961  04D5  2CD2               	goto	u303_27
  2962                           
  2963                           ;Keypad.c: 44: (*input) *= (unsigned long int)10;
  2964  04D6  3000               	movlw	0
  2965  04D7  00F3               	movwf	?___lmul+3
  2966  04D8  3000               	movlw	0
  2967  04D9  00F2               	movwf	?___lmul+2
  2968  04DA  3000               	movlw	0
  2969  04DB  00F1               	movwf	?___lmul+1
  2970  04DC  300A               	movlw	10
  2971  04DD  00F0               	movwf	?___lmul
  2972  04DE  1283               	bcf	3,5	;RP0=0, select bank0
  2973  04DF  1303               	bcf	3,6	;RP1=0, select bank0
  2974  04E0  084B               	movf	keypad_read@input,w
  2975  04E1  0084               	movwf	4
  2976  04E2  1383               	bcf	3,7	;select IRP bank0
  2977  04E3  0800               	movf	0,w
  2978  04E4  00F4               	movwf	?___lmul+4
  2979  04E5  0A84               	incf	4,f
  2980  04E6  0800               	movf	0,w
  2981  04E7  00F5               	movwf	?___lmul+5
  2982  04E8  0A84               	incf	4,f
  2983  04E9  0800               	movf	0,w
  2984  04EA  00F6               	movwf	?___lmul+6
  2985  04EB  0A84               	incf	4,f
  2986  04EC  0800               	movf	0,w
  2987  04ED  00F7               	movwf	?___lmul+7
  2988  04EE  0804               	movf	4,w
  2989  04EF  00C9               	movwf	??_keypad_read
  2990  04F0  160A  118A  26F8   	fcall	___lmul
      +       120A  118A         
  2991  04F5  1283               	bcf	3,5	;RP0=0, select bank0
  2992  04F6  1303               	bcf	3,6	;RP1=0, select bank0
  2993  04F7  0849               	movf	??_keypad_read,w
  2994  04F8  0084               	movwf	4
  2995  04F9  0873               	movf	?___lmul+3,w
  2996  04FA  1383               	bcf	3,7	;select IRP bank0
  2997  04FB  0080               	movwf	0
  2998  04FC  0384               	decf	4,f
  2999  04FD  0872               	movf	?___lmul+2,w
  3000  04FE  0080               	movwf	0
  3001  04FF  0384               	decf	4,f
  3002  0500  0871               	movf	?___lmul+1,w
  3003  0501  0080               	movwf	0
  3004  0502  0384               	decf	4,f
  3005  0503  0870               	movf	?___lmul,w
  3006  0504  0080               	movwf	0
  3007                           
  3008                           ;Keypad.c: 45: (*input) += 7;
  3009  0505  084B               	movf	keypad_read@input,w
  3010  0506  0084               	movwf	4
  3011  0507  3007               	movlw	7
  3012  0508                     L3:	
  3013  0508  0780               	addwf	0,f
  3014  0509  0A84               	incf	4,f
  3015  050A  3000               	movlw	0
  3016  050B  1803               	skipnc
  3017  050C  3E01               	addlw	1
  3018  050D  1D03               	skipz
  3019  050E  0780               	addwf	0,f
  3020  050F  0A84               	incf	4,f
  3021  0510  3000               	movlw	0
  3022  0511  1803               	skipnc
  3023  0512  3E01               	addlw	1
  3024  0513  1D03               	skipz
  3025  0514  0780               	addwf	0,f
  3026  0515  0A84               	incf	4,f
  3027  0516  3000               	movlw	0
  3028  0517  1803               	skipnc
  3029  0518  3E01               	addlw	1
  3030  0519  0780               	addwf	0,f
  3031                           
  3032                           ;Keypad.c: 46: RE0 = 0b0;
  3033  051A  1009               	bcf	9,0	;volatile
  3034                           
  3035                           ;Keypad.c: 47: }
  3036  051B  2D35               	goto	i1l4055
  3037  051C                     i1l245:	
  3038                           
  3039                           ;Keypad.c: 48: else if((PORTD & 0x80) == 0)
  3040  051C  1B88               	btfsc	8,7	;volatile
  3041  051D  2D35               	goto	i1l4055
  3042                           
  3043                           ;Keypad.c: 49: {
  3044                           ;Keypad.c: 50: RE0 = 0b1;
  3045  051E  1409               	bsf	9,0	;volatile
  3046                           
  3047                           ;Keypad.c: 51: _delay((unsigned long)((150)*(4000000/4000.0)));
  3048  051F  30C3               	movlw	195
  3049  0520  00CA               	movwf	??_keypad_read+1
  3050  0521  30CD               	movlw	205
  3051  0522  00C9               	movwf	??_keypad_read
  3052  0523                     u304_27:	
  3053  0523  0BC9               	decfsz	??_keypad_read,f
  3054  0524  2D23               	goto	u304_27
  3055  0525  0BCA               	decfsz	??_keypad_read+1,f
  3056  0526  2D23               	goto	u304_27
  3057                           
  3058                           ;Keypad.c: 52: _delay((unsigned long)((150)*(4000000/4000.0)));
  3059  0527  30C3               	movlw	195
  3060  0528  1283               	bcf	3,5	;RP0=0, select bank0
  3061  0529  1303               	bcf	3,6	;RP1=0, select bank0
  3062  052A  00CA               	movwf	??_keypad_read+1
  3063  052B  30CD               	movlw	205
  3064  052C  00C9               	movwf	??_keypad_read
  3065  052D                     u305_27:	
  3066  052D  0BC9               	decfsz	??_keypad_read,f
  3067  052E  2D2D               	goto	u305_27
  3068  052F  0BCA               	decfsz	??_keypad_read+1,f
  3069  0530  2D2D               	goto	u305_27
  3070                           
  3071                           ;Keypad.c: 53: RE0 = 0b0;
  3072  0531  1283               	bcf	3,5	;RP0=0, select bank0
  3073  0532  1303               	bcf	3,6	;RP1=0, select bank0
  3074  0533  1009               	bcf	9,0	;volatile
  3075                           
  3076                           ;Keypad.c: 54: return '*';
  3077                           ;	Return value of _keypad_read is never used
  3078  0534  0008               	return
  3079  0535                     i1l4055:	
  3080                           
  3081                           ;Keypad.c: 55: }
  3082                           ;Keypad.c: 56: PORTD = 0xFD;
  3083  0535  30FD               	movlw	253
  3084  0536  0088               	movwf	8	;volatile
  3085                           
  3086                           ;Keypad.c: 57: if((PORTD & 0x10) == 0)
  3087  0537  1A08               	btfsc	8,4	;volatile
  3088  0538  2D7F               	goto	i1l249
  3089                           
  3090                           ;Keypad.c: 58: {
  3091                           ;Keypad.c: 59: RE0 = 0b1;
  3092  0539  1409               	bsf	9,0	;volatile
  3093                           
  3094                           ;Keypad.c: 60: _delay((unsigned long)((150)*(4000000/4000.0)));
  3095  053A  30C3               	movlw	195
  3096  053B  00CA               	movwf	??_keypad_read+1
  3097  053C  30CD               	movlw	205
  3098  053D  00C9               	movwf	??_keypad_read
  3099  053E                     u306_27:	
  3100  053E  0BC9               	decfsz	??_keypad_read,f
  3101  053F  2D3E               	goto	u306_27
  3102  0540  0BCA               	decfsz	??_keypad_read+1,f
  3103  0541  2D3E               	goto	u306_27
  3104                           
  3105                           ;Keypad.c: 61: _delay((unsigned long)((150)*(4000000/4000.0)));
  3106  0542  30C3               	movlw	195
  3107  0543  1283               	bcf	3,5	;RP0=0, select bank0
  3108  0544  1303               	bcf	3,6	;RP1=0, select bank0
  3109  0545  00CA               	movwf	??_keypad_read+1
  3110  0546  30CD               	movlw	205
  3111  0547  00C9               	movwf	??_keypad_read
  3112  0548                     u307_27:	
  3113  0548  0BC9               	decfsz	??_keypad_read,f
  3114  0549  2D48               	goto	u307_27
  3115  054A  0BCA               	decfsz	??_keypad_read+1,f
  3116  054B  2D48               	goto	u307_27
  3117                           
  3118                           ;Keypad.c: 62: (*input) *= (unsigned long int)10;
  3119  054C  3000               	movlw	0
  3120  054D  00F3               	movwf	?___lmul+3
  3121  054E  3000               	movlw	0
  3122  054F  00F2               	movwf	?___lmul+2
  3123  0550  3000               	movlw	0
  3124  0551  00F1               	movwf	?___lmul+1
  3125  0552  300A               	movlw	10
  3126  0553  00F0               	movwf	?___lmul
  3127  0554  1283               	bcf	3,5	;RP0=0, select bank0
  3128  0555  1303               	bcf	3,6	;RP1=0, select bank0
  3129  0556  084B               	movf	keypad_read@input,w
  3130  0557  0084               	movwf	4
  3131  0558  1383               	bcf	3,7	;select IRP bank0
  3132  0559  0800               	movf	0,w
  3133  055A  00F4               	movwf	?___lmul+4
  3134  055B  0A84               	incf	4,f
  3135  055C  0800               	movf	0,w
  3136  055D  00F5               	movwf	?___lmul+5
  3137  055E  0A84               	incf	4,f
  3138  055F  0800               	movf	0,w
  3139  0560  00F6               	movwf	?___lmul+6
  3140  0561  0A84               	incf	4,f
  3141  0562  0800               	movf	0,w
  3142  0563  00F7               	movwf	?___lmul+7
  3143  0564  0804               	movf	4,w
  3144  0565  00C9               	movwf	??_keypad_read
  3145  0566  160A  118A  26F8   	fcall	___lmul
      +       120A  118A         
  3146  056B  1283               	bcf	3,5	;RP0=0, select bank0
  3147  056C  1303               	bcf	3,6	;RP1=0, select bank0
  3148  056D  0849               	movf	??_keypad_read,w
  3149  056E  0084               	movwf	4
  3150  056F  0873               	movf	?___lmul+3,w
  3151  0570  1383               	bcf	3,7	;select IRP bank0
  3152  0571  0080               	movwf	0
  3153  0572  0384               	decf	4,f
  3154  0573  0872               	movf	?___lmul+2,w
  3155  0574  0080               	movwf	0
  3156  0575  0384               	decf	4,f
  3157  0576  0871               	movf	?___lmul+1,w
  3158  0577  0080               	movwf	0
  3159  0578  0384               	decf	4,f
  3160  0579  0870               	movf	?___lmul,w
  3161  057A  0080               	movwf	0
  3162                           
  3163                           ;Keypad.c: 63: (*input) += 2;
  3164  057B  084B               	movf	keypad_read@input,w
  3165  057C  0084               	movwf	4
  3166  057D  3002               	movlw	2
  3167  057E  2E0E               	goto	L5
  3168  057F                     i1l249:	
  3169                           ;Keypad.c: 65: }
  3170                           
  3171                           ;Keypad.c: 64: RE0 = 0b0;
  3172                           
  3173                           
  3174                           ;Keypad.c: 66: else if((PORTD & 0x20) == 0)
  3175  057F  1A88               	btfsc	8,5	;volatile
  3176  0580  2DC7               	goto	i1l251
  3177                           
  3178                           ;Keypad.c: 67: {
  3179                           ;Keypad.c: 68: RE0 = 0b1;
  3180  0581  1409               	bsf	9,0	;volatile
  3181                           
  3182                           ;Keypad.c: 69: _delay((unsigned long)((150)*(4000000/4000.0)));
  3183  0582  30C3               	movlw	195
  3184  0583  00CA               	movwf	??_keypad_read+1
  3185  0584  30CD               	movlw	205
  3186  0585  00C9               	movwf	??_keypad_read
  3187  0586                     u308_27:	
  3188  0586  0BC9               	decfsz	??_keypad_read,f
  3189  0587  2D86               	goto	u308_27
  3190  0588  0BCA               	decfsz	??_keypad_read+1,f
  3191  0589  2D86               	goto	u308_27
  3192                           
  3193                           ;Keypad.c: 70: _delay((unsigned long)((150)*(4000000/4000.0)));
  3194  058A  30C3               	movlw	195
  3195  058B  1283               	bcf	3,5	;RP0=0, select bank0
  3196  058C  1303               	bcf	3,6	;RP1=0, select bank0
  3197  058D  00CA               	movwf	??_keypad_read+1
  3198  058E  30CD               	movlw	205
  3199  058F  00C9               	movwf	??_keypad_read
  3200  0590                     u309_27:	
  3201  0590  0BC9               	decfsz	??_keypad_read,f
  3202  0591  2D90               	goto	u309_27
  3203  0592  0BCA               	decfsz	??_keypad_read+1,f
  3204  0593  2D90               	goto	u309_27
  3205                           
  3206                           ;Keypad.c: 71: (*input) *= (unsigned long int)10;
  3207  0594  3000               	movlw	0
  3208  0595  00F3               	movwf	?___lmul+3
  3209  0596  3000               	movlw	0
  3210  0597  00F2               	movwf	?___lmul+2
  3211  0598  3000               	movlw	0
  3212  0599  00F1               	movwf	?___lmul+1
  3213  059A  300A               	movlw	10
  3214  059B  00F0               	movwf	?___lmul
  3215  059C  1283               	bcf	3,5	;RP0=0, select bank0
  3216  059D  1303               	bcf	3,6	;RP1=0, select bank0
  3217  059E  084B               	movf	keypad_read@input,w
  3218  059F  0084               	movwf	4
  3219  05A0  1383               	bcf	3,7	;select IRP bank0
  3220  05A1  0800               	movf	0,w
  3221  05A2  00F4               	movwf	?___lmul+4
  3222  05A3  0A84               	incf	4,f
  3223  05A4  0800               	movf	0,w
  3224  05A5  00F5               	movwf	?___lmul+5
  3225  05A6  0A84               	incf	4,f
  3226  05A7  0800               	movf	0,w
  3227  05A8  00F6               	movwf	?___lmul+6
  3228  05A9  0A84               	incf	4,f
  3229  05AA  0800               	movf	0,w
  3230  05AB  00F7               	movwf	?___lmul+7
  3231  05AC  0804               	movf	4,w
  3232  05AD  00C9               	movwf	??_keypad_read
  3233  05AE  160A  118A  26F8   	fcall	___lmul
      +       120A  118A         
  3234  05B3  1283               	bcf	3,5	;RP0=0, select bank0
  3235  05B4  1303               	bcf	3,6	;RP1=0, select bank0
  3236  05B5  0849               	movf	??_keypad_read,w
  3237  05B6  0084               	movwf	4
  3238  05B7  0873               	movf	?___lmul+3,w
  3239  05B8  1383               	bcf	3,7	;select IRP bank0
  3240  05B9  0080               	movwf	0
  3241  05BA  0384               	decf	4,f
  3242  05BB  0872               	movf	?___lmul+2,w
  3243  05BC  0080               	movwf	0
  3244  05BD  0384               	decf	4,f
  3245  05BE  0871               	movf	?___lmul+1,w
  3246  05BF  0080               	movwf	0
  3247  05C0  0384               	decf	4,f
  3248  05C1  0870               	movf	?___lmul,w
  3249  05C2  0080               	movwf	0
  3250                           
  3251                           ;Keypad.c: 72: (*input) += 5;
  3252  05C3  084B               	movf	keypad_read@input,w
  3253  05C4  0084               	movwf	4
  3254  05C5  3005               	movlw	5
  3255  05C6  2E0E               	goto	L5
  3256  05C7                     i1l251:	
  3257                           ;Keypad.c: 74: }
  3258                           
  3259                           ;Keypad.c: 73: RE0 = 0b0;
  3260                           
  3261                           
  3262                           ;Keypad.c: 75: else if((PORTD & 0x40) == 0)
  3263  05C7  1B08               	btfsc	8,6	;volatile
  3264  05C8  2E21               	goto	i1l253
  3265                           
  3266                           ;Keypad.c: 76: {
  3267                           ;Keypad.c: 77: RE0 = 0b1;
  3268  05C9  1409               	bsf	9,0	;volatile
  3269                           
  3270                           ;Keypad.c: 78: _delay((unsigned long)((150)*(4000000/4000.0)));
  3271  05CA  30C3               	movlw	195
  3272  05CB  00CA               	movwf	??_keypad_read+1
  3273  05CC  30CD               	movlw	205
  3274  05CD  00C9               	movwf	??_keypad_read
  3275  05CE                     u310_27:	
  3276  05CE  0BC9               	decfsz	??_keypad_read,f
  3277  05CF  2DCE               	goto	u310_27
  3278  05D0  0BCA               	decfsz	??_keypad_read+1,f
  3279  05D1  2DCE               	goto	u310_27
  3280                           
  3281                           ;Keypad.c: 79: _delay((unsigned long)((150)*(4000000/4000.0)));
  3282  05D2  30C3               	movlw	195
  3283  05D3  1283               	bcf	3,5	;RP0=0, select bank0
  3284  05D4  1303               	bcf	3,6	;RP1=0, select bank0
  3285  05D5  00CA               	movwf	??_keypad_read+1
  3286  05D6  30CD               	movlw	205
  3287  05D7  00C9               	movwf	??_keypad_read
  3288  05D8                     u311_27:	
  3289  05D8  0BC9               	decfsz	??_keypad_read,f
  3290  05D9  2DD8               	goto	u311_27
  3291  05DA  0BCA               	decfsz	??_keypad_read+1,f
  3292  05DB  2DD8               	goto	u311_27
  3293                           
  3294                           ;Keypad.c: 80: (*input) *= (unsigned long int)10;
  3295  05DC  3000               	movlw	0
  3296  05DD  00F3               	movwf	?___lmul+3
  3297  05DE  3000               	movlw	0
  3298  05DF  00F2               	movwf	?___lmul+2
  3299  05E0  3000               	movlw	0
  3300  05E1  00F1               	movwf	?___lmul+1
  3301  05E2  300A               	movlw	10
  3302  05E3  00F0               	movwf	?___lmul
  3303  05E4  1283               	bcf	3,5	;RP0=0, select bank0
  3304  05E5  1303               	bcf	3,6	;RP1=0, select bank0
  3305  05E6  084B               	movf	keypad_read@input,w
  3306  05E7  0084               	movwf	4
  3307  05E8  1383               	bcf	3,7	;select IRP bank0
  3308  05E9  0800               	movf	0,w
  3309  05EA  00F4               	movwf	?___lmul+4
  3310  05EB  0A84               	incf	4,f
  3311  05EC  0800               	movf	0,w
  3312  05ED  00F5               	movwf	?___lmul+5
  3313  05EE  0A84               	incf	4,f
  3314  05EF  0800               	movf	0,w
  3315  05F0  00F6               	movwf	?___lmul+6
  3316  05F1  0A84               	incf	4,f
  3317  05F2  0800               	movf	0,w
  3318  05F3  00F7               	movwf	?___lmul+7
  3319  05F4  0804               	movf	4,w
  3320  05F5  00C9               	movwf	??_keypad_read
  3321  05F6  160A  118A  26F8   	fcall	___lmul
      +       120A  118A         
  3322  05FB  1283               	bcf	3,5	;RP0=0, select bank0
  3323  05FC  1303               	bcf	3,6	;RP1=0, select bank0
  3324  05FD  0849               	movf	??_keypad_read,w
  3325  05FE  0084               	movwf	4
  3326  05FF  0873               	movf	?___lmul+3,w
  3327  0600  1383               	bcf	3,7	;select IRP bank0
  3328  0601  0080               	movwf	0
  3329  0602  0384               	decf	4,f
  3330  0603  0872               	movf	?___lmul+2,w
  3331  0604  0080               	movwf	0
  3332  0605  0384               	decf	4,f
  3333  0606  0871               	movf	?___lmul+1,w
  3334  0607  0080               	movwf	0
  3335  0608  0384               	decf	4,f
  3336  0609  0870               	movf	?___lmul,w
  3337  060A  0080               	movwf	0
  3338                           
  3339                           ;Keypad.c: 81: (*input) += 8;
  3340  060B  084B               	movf	keypad_read@input,w
  3341  060C  0084               	movwf	4
  3342  060D  3008               	movlw	8
  3343  060E                     L5:	
  3344  060E  0780               	addwf	0,f
  3345  060F  0A84               	incf	4,f
  3346  0610  3000               	movlw	0
  3347  0611  1803               	skipnc
  3348  0612  3E01               	addlw	1
  3349  0613  1D03               	skipz
  3350  0614  0780               	addwf	0,f
  3351  0615  0A84               	incf	4,f
  3352  0616  3000               	movlw	0
  3353  0617  1803               	skipnc
  3354  0618  3E01               	addlw	1
  3355  0619  1D03               	skipz
  3356  061A  0780               	addwf	0,f
  3357  061B  0A84               	incf	4,f
  3358  061C  3000               	movlw	0
  3359  061D  1803               	skipnc
  3360  061E  3E01               	addlw	1
  3361  061F  0780               	addwf	0,f
  3362  0620  2E65               	goto	i1l4095
  3363  0621                     i1l253:	
  3364                           ;Keypad.c: 83: }
  3365                           
  3366                           ;Keypad.c: 82: RE0 = 0b0;
  3367                           
  3368                           
  3369                           ;Keypad.c: 84: else if((PORTD & 0x80) == 0)
  3370  0621  1B88               	btfsc	8,7	;volatile
  3371  0622  2E66               	goto	i1l4097
  3372                           
  3373                           ;Keypad.c: 85: {
  3374                           ;Keypad.c: 86: RE0 = 0b1;
  3375  0623  1409               	bsf	9,0	;volatile
  3376                           
  3377                           ;Keypad.c: 87: _delay((unsigned long)((150)*(4000000/4000.0)));
  3378  0624  30C3               	movlw	195
  3379  0625  00CA               	movwf	??_keypad_read+1
  3380  0626  30CD               	movlw	205
  3381  0627  00C9               	movwf	??_keypad_read
  3382  0628                     u312_27:	
  3383  0628  0BC9               	decfsz	??_keypad_read,f
  3384  0629  2E28               	goto	u312_27
  3385  062A  0BCA               	decfsz	??_keypad_read+1,f
  3386  062B  2E28               	goto	u312_27
  3387                           
  3388                           ;Keypad.c: 88: _delay((unsigned long)((150)*(4000000/4000.0)));
  3389  062C  30C3               	movlw	195
  3390  062D  1283               	bcf	3,5	;RP0=0, select bank0
  3391  062E  1303               	bcf	3,6	;RP1=0, select bank0
  3392  062F  00CA               	movwf	??_keypad_read+1
  3393  0630  30CD               	movlw	205
  3394  0631  00C9               	movwf	??_keypad_read
  3395  0632                     u313_27:	
  3396  0632  0BC9               	decfsz	??_keypad_read,f
  3397  0633  2E32               	goto	u313_27
  3398  0634  0BCA               	decfsz	??_keypad_read+1,f
  3399  0635  2E32               	goto	u313_27
  3400                           
  3401                           ;Keypad.c: 89: (*input) *= (unsigned long int)10;
  3402  0636  3000               	movlw	0
  3403  0637  00F3               	movwf	?___lmul+3
  3404  0638  3000               	movlw	0
  3405  0639  00F2               	movwf	?___lmul+2
  3406  063A  3000               	movlw	0
  3407  063B  00F1               	movwf	?___lmul+1
  3408  063C  300A               	movlw	10
  3409  063D  00F0               	movwf	?___lmul
  3410  063E  1283               	bcf	3,5	;RP0=0, select bank0
  3411  063F  1303               	bcf	3,6	;RP1=0, select bank0
  3412  0640  084B               	movf	keypad_read@input,w
  3413  0641  0084               	movwf	4
  3414  0642  1383               	bcf	3,7	;select IRP bank0
  3415  0643  0800               	movf	0,w
  3416  0644  00F4               	movwf	?___lmul+4
  3417  0645  0A84               	incf	4,f
  3418  0646  0800               	movf	0,w
  3419  0647  00F5               	movwf	?___lmul+5
  3420  0648  0A84               	incf	4,f
  3421  0649  0800               	movf	0,w
  3422  064A  00F6               	movwf	?___lmul+6
  3423  064B  0A84               	incf	4,f
  3424  064C  0800               	movf	0,w
  3425  064D  00F7               	movwf	?___lmul+7
  3426  064E  0804               	movf	4,w
  3427  064F  00C9               	movwf	??_keypad_read
  3428  0650  160A  118A  26F8   	fcall	___lmul
      +       120A  118A         
  3429  0655  1283               	bcf	3,5	;RP0=0, select bank0
  3430  0656  1303               	bcf	3,6	;RP1=0, select bank0
  3431  0657  0849               	movf	??_keypad_read,w
  3432  0658  0084               	movwf	4
  3433  0659  0873               	movf	?___lmul+3,w
  3434  065A  1383               	bcf	3,7	;select IRP bank0
  3435  065B  0080               	movwf	0
  3436  065C  0384               	decf	4,f
  3437  065D  0872               	movf	?___lmul+2,w
  3438  065E  0080               	movwf	0
  3439  065F  0384               	decf	4,f
  3440  0660  0871               	movf	?___lmul+1,w
  3441  0661  0080               	movwf	0
  3442  0662  0384               	decf	4,f
  3443  0663  0870               	movf	?___lmul,w
  3444  0664  0080               	movwf	0
  3445  0665                     i1l4095:	
  3446                           
  3447                           ;Keypad.c: 90: RE0 = 0b0;
  3448  0665  1009               	bcf	9,0	;volatile
  3449  0666                     i1l4097:	
  3450                           
  3451                           ;Keypad.c: 91: }
  3452                           ;Keypad.c: 92: PORTD = 0xFB;
  3453  0666  30FB               	movlw	251
  3454  0667  0088               	movwf	8	;volatile
  3455                           
  3456                           ;Keypad.c: 93: if((PORTD & 0x10) == 0)
  3457  0668  1A08               	btfsc	8,4	;volatile
  3458  0669  2EB0               	goto	i1l256
  3459                           
  3460                           ;Keypad.c: 94: {
  3461                           ;Keypad.c: 95: RE0 = 0b1;
  3462  066A  1409               	bsf	9,0	;volatile
  3463                           
  3464                           ;Keypad.c: 96: _delay((unsigned long)((150)*(4000000/4000.0)));
  3465  066B  30C3               	movlw	195
  3466  066C  00CA               	movwf	??_keypad_read+1
  3467  066D  30CD               	movlw	205
  3468  066E  00C9               	movwf	??_keypad_read
  3469  066F                     u314_27:	
  3470  066F  0BC9               	decfsz	??_keypad_read,f
  3471  0670  2E6F               	goto	u314_27
  3472  0671  0BCA               	decfsz	??_keypad_read+1,f
  3473  0672  2E6F               	goto	u314_27
  3474                           
  3475                           ;Keypad.c: 97: _delay((unsigned long)((150)*(4000000/4000.0)));
  3476  0673  30C3               	movlw	195
  3477  0674  1283               	bcf	3,5	;RP0=0, select bank0
  3478  0675  1303               	bcf	3,6	;RP1=0, select bank0
  3479  0676  00CA               	movwf	??_keypad_read+1
  3480  0677  30CD               	movlw	205
  3481  0678  00C9               	movwf	??_keypad_read
  3482  0679                     u315_27:	
  3483  0679  0BC9               	decfsz	??_keypad_read,f
  3484  067A  2E79               	goto	u315_27
  3485  067B  0BCA               	decfsz	??_keypad_read+1,f
  3486  067C  2E79               	goto	u315_27
  3487                           
  3488                           ;Keypad.c: 98: (*input) *= (unsigned long int)10;
  3489  067D  3000               	movlw	0
  3490  067E  00F3               	movwf	?___lmul+3
  3491  067F  3000               	movlw	0
  3492  0680  00F2               	movwf	?___lmul+2
  3493  0681  3000               	movlw	0
  3494  0682  00F1               	movwf	?___lmul+1
  3495  0683  300A               	movlw	10
  3496  0684  00F0               	movwf	?___lmul
  3497  0685  1283               	bcf	3,5	;RP0=0, select bank0
  3498  0686  1303               	bcf	3,6	;RP1=0, select bank0
  3499  0687  084B               	movf	keypad_read@input,w
  3500  0688  0084               	movwf	4
  3501  0689  1383               	bcf	3,7	;select IRP bank0
  3502  068A  0800               	movf	0,w
  3503  068B  00F4               	movwf	?___lmul+4
  3504  068C  0A84               	incf	4,f
  3505  068D  0800               	movf	0,w
  3506  068E  00F5               	movwf	?___lmul+5
  3507  068F  0A84               	incf	4,f
  3508  0690  0800               	movf	0,w
  3509  0691  00F6               	movwf	?___lmul+6
  3510  0692  0A84               	incf	4,f
  3511  0693  0800               	movf	0,w
  3512  0694  00F7               	movwf	?___lmul+7
  3513  0695  0804               	movf	4,w
  3514  0696  00C9               	movwf	??_keypad_read
  3515  0697  160A  118A  26F8   	fcall	___lmul
      +       120A  118A         
  3516  069C  1283               	bcf	3,5	;RP0=0, select bank0
  3517  069D  1303               	bcf	3,6	;RP1=0, select bank0
  3518  069E  0849               	movf	??_keypad_read,w
  3519  069F  0084               	movwf	4
  3520  06A0  0873               	movf	?___lmul+3,w
  3521  06A1  1383               	bcf	3,7	;select IRP bank0
  3522  06A2  0080               	movwf	0
  3523  06A3  0384               	decf	4,f
  3524  06A4  0872               	movf	?___lmul+2,w
  3525  06A5  0080               	movwf	0
  3526  06A6  0384               	decf	4,f
  3527  06A7  0871               	movf	?___lmul+1,w
  3528  06A8  0080               	movwf	0
  3529  06A9  0384               	decf	4,f
  3530  06AA  0870               	movf	?___lmul,w
  3531  06AB  0080               	movwf	0
  3532                           
  3533                           ;Keypad.c: 99: (*input) += 3;
  3534  06AC  084B               	movf	keypad_read@input,w
  3535  06AD  0084               	movwf	4
  3536  06AE  3003               	movlw	3
  3537  06AF  2F3F               	goto	L4
  3538  06B0                     i1l256:	
  3539                           ;Keypad.c: 101: }
  3540                           
  3541                           ;Keypad.c: 100: RE0 = 0b0;
  3542                           
  3543                           
  3544                           ;Keypad.c: 102: else if((PORTD & 0x20) == 0)
  3545  06B0  1A88               	btfsc	8,5	;volatile
  3546  06B1  2EF8               	goto	i1l258
  3547                           
  3548                           ;Keypad.c: 103: {
  3549                           ;Keypad.c: 104: RE0 = 0b1;
  3550  06B2  1409               	bsf	9,0	;volatile
  3551                           
  3552                           ;Keypad.c: 105: _delay((unsigned long)((150)*(4000000/4000.0)));
  3553  06B3  30C3               	movlw	195
  3554  06B4  00CA               	movwf	??_keypad_read+1
  3555  06B5  30CD               	movlw	205
  3556  06B6  00C9               	movwf	??_keypad_read
  3557  06B7                     u316_27:	
  3558  06B7  0BC9               	decfsz	??_keypad_read,f
  3559  06B8  2EB7               	goto	u316_27
  3560  06B9  0BCA               	decfsz	??_keypad_read+1,f
  3561  06BA  2EB7               	goto	u316_27
  3562                           
  3563                           ;Keypad.c: 106: _delay((unsigned long)((150)*(4000000/4000.0)));
  3564  06BB  30C3               	movlw	195
  3565  06BC  1283               	bcf	3,5	;RP0=0, select bank0
  3566  06BD  1303               	bcf	3,6	;RP1=0, select bank0
  3567  06BE  00CA               	movwf	??_keypad_read+1
  3568  06BF  30CD               	movlw	205
  3569  06C0  00C9               	movwf	??_keypad_read
  3570  06C1                     u317_27:	
  3571  06C1  0BC9               	decfsz	??_keypad_read,f
  3572  06C2  2EC1               	goto	u317_27
  3573  06C3  0BCA               	decfsz	??_keypad_read+1,f
  3574  06C4  2EC1               	goto	u317_27
  3575                           
  3576                           ;Keypad.c: 107: (*input) *= (unsigned long int)10;
  3577  06C5  3000               	movlw	0
  3578  06C6  00F3               	movwf	?___lmul+3
  3579  06C7  3000               	movlw	0
  3580  06C8  00F2               	movwf	?___lmul+2
  3581  06C9  3000               	movlw	0
  3582  06CA  00F1               	movwf	?___lmul+1
  3583  06CB  300A               	movlw	10
  3584  06CC  00F0               	movwf	?___lmul
  3585  06CD  1283               	bcf	3,5	;RP0=0, select bank0
  3586  06CE  1303               	bcf	3,6	;RP1=0, select bank0
  3587  06CF  084B               	movf	keypad_read@input,w
  3588  06D0  0084               	movwf	4
  3589  06D1  1383               	bcf	3,7	;select IRP bank0
  3590  06D2  0800               	movf	0,w
  3591  06D3  00F4               	movwf	?___lmul+4
  3592  06D4  0A84               	incf	4,f
  3593  06D5  0800               	movf	0,w
  3594  06D6  00F5               	movwf	?___lmul+5
  3595  06D7  0A84               	incf	4,f
  3596  06D8  0800               	movf	0,w
  3597  06D9  00F6               	movwf	?___lmul+6
  3598  06DA  0A84               	incf	4,f
  3599  06DB  0800               	movf	0,w
  3600  06DC  00F7               	movwf	?___lmul+7
  3601  06DD  0804               	movf	4,w
  3602  06DE  00C9               	movwf	??_keypad_read
  3603  06DF  160A  118A  26F8   	fcall	___lmul
      +       120A  118A         
  3604  06E4  1283               	bcf	3,5	;RP0=0, select bank0
  3605  06E5  1303               	bcf	3,6	;RP1=0, select bank0
  3606  06E6  0849               	movf	??_keypad_read,w
  3607  06E7  0084               	movwf	4
  3608  06E8  0873               	movf	?___lmul+3,w
  3609  06E9  1383               	bcf	3,7	;select IRP bank0
  3610  06EA  0080               	movwf	0
  3611  06EB  0384               	decf	4,f
  3612  06EC  0872               	movf	?___lmul+2,w
  3613  06ED  0080               	movwf	0
  3614  06EE  0384               	decf	4,f
  3615  06EF  0871               	movf	?___lmul+1,w
  3616  06F0  0080               	movwf	0
  3617  06F1  0384               	decf	4,f
  3618  06F2  0870               	movf	?___lmul,w
  3619  06F3  0080               	movwf	0
  3620                           
  3621                           ;Keypad.c: 108: (*input) += 6;
  3622  06F4  084B               	movf	keypad_read@input,w
  3623  06F5  0084               	movwf	4
  3624  06F6  3006               	movlw	6
  3625  06F7  2F3F               	goto	L4
  3626  06F8                     i1l258:	
  3627                           ;Keypad.c: 110: }
  3628                           
  3629                           ;Keypad.c: 109: RE0 = 0b0;
  3630                           
  3631                           
  3632                           ;Keypad.c: 111: else if((PORTD & 0x40) == 0)
  3633  06F8  1B08               	btfsc	8,6	;volatile
  3634  06F9  2F53               	goto	i1l260
  3635                           
  3636                           ;Keypad.c: 112: {
  3637                           ;Keypad.c: 113: RE0 = 0b1;
  3638  06FA  1409               	bsf	9,0	;volatile
  3639                           
  3640                           ;Keypad.c: 114: _delay((unsigned long)((150)*(4000000/4000.0)));
  3641  06FB  30C3               	movlw	195
  3642  06FC  00CA               	movwf	??_keypad_read+1
  3643  06FD  30CD               	movlw	205
  3644  06FE  00C9               	movwf	??_keypad_read
  3645  06FF                     u318_27:	
  3646  06FF  0BC9               	decfsz	??_keypad_read,f
  3647  0700  2EFF               	goto	u318_27
  3648  0701  0BCA               	decfsz	??_keypad_read+1,f
  3649  0702  2EFF               	goto	u318_27
  3650                           
  3651                           ;Keypad.c: 115: _delay((unsigned long)((150)*(4000000/4000.0)));
  3652  0703  30C3               	movlw	195
  3653  0704  1283               	bcf	3,5	;RP0=0, select bank0
  3654  0705  1303               	bcf	3,6	;RP1=0, select bank0
  3655  0706  00CA               	movwf	??_keypad_read+1
  3656  0707  30CD               	movlw	205
  3657  0708  00C9               	movwf	??_keypad_read
  3658  0709                     u319_27:	
  3659  0709  0BC9               	decfsz	??_keypad_read,f
  3660  070A  2F09               	goto	u319_27
  3661  070B  0BCA               	decfsz	??_keypad_read+1,f
  3662  070C  2F09               	goto	u319_27
  3663                           
  3664                           ;Keypad.c: 116: (*input) *= (unsigned long int)10;
  3665  070D  3000               	movlw	0
  3666  070E  00F3               	movwf	?___lmul+3
  3667  070F  3000               	movlw	0
  3668  0710  00F2               	movwf	?___lmul+2
  3669  0711  3000               	movlw	0
  3670  0712  00F1               	movwf	?___lmul+1
  3671  0713  300A               	movlw	10
  3672  0714  00F0               	movwf	?___lmul
  3673  0715  1283               	bcf	3,5	;RP0=0, select bank0
  3674  0716  1303               	bcf	3,6	;RP1=0, select bank0
  3675  0717  084B               	movf	keypad_read@input,w
  3676  0718  0084               	movwf	4
  3677  0719  1383               	bcf	3,7	;select IRP bank0
  3678  071A  0800               	movf	0,w
  3679  071B  00F4               	movwf	?___lmul+4
  3680  071C  0A84               	incf	4,f
  3681  071D  0800               	movf	0,w
  3682  071E  00F5               	movwf	?___lmul+5
  3683  071F  0A84               	incf	4,f
  3684  0720  0800               	movf	0,w
  3685  0721  00F6               	movwf	?___lmul+6
  3686  0722  0A84               	incf	4,f
  3687  0723  0800               	movf	0,w
  3688  0724  00F7               	movwf	?___lmul+7
  3689  0725  0804               	movf	4,w
  3690  0726  00C9               	movwf	??_keypad_read
  3691  0727  160A  118A  26F8   	fcall	___lmul
      +       120A  118A         
  3692  072C  1283               	bcf	3,5	;RP0=0, select bank0
  3693  072D  1303               	bcf	3,6	;RP1=0, select bank0
  3694  072E  0849               	movf	??_keypad_read,w
  3695  072F  0084               	movwf	4
  3696  0730  0873               	movf	?___lmul+3,w
  3697  0731  1383               	bcf	3,7	;select IRP bank0
  3698  0732  0080               	movwf	0
  3699  0733  0384               	decf	4,f
  3700  0734  0872               	movf	?___lmul+2,w
  3701  0735  0080               	movwf	0
  3702  0736  0384               	decf	4,f
  3703  0737  0871               	movf	?___lmul+1,w
  3704  0738  0080               	movwf	0
  3705  0739  0384               	decf	4,f
  3706  073A  0870               	movf	?___lmul,w
  3707  073B  0080               	movwf	0
  3708                           
  3709                           ;Keypad.c: 117: (*input) += 9;
  3710  073C  084B               	movf	keypad_read@input,w
  3711  073D  0084               	movwf	4
  3712  073E  3009               	movlw	9
  3713  073F                     L4:	
  3714  073F  0780               	addwf	0,f
  3715  0740  0A84               	incf	4,f
  3716  0741  3000               	movlw	0
  3717  0742  1803               	skipnc
  3718  0743  3E01               	addlw	1
  3719  0744  1D03               	skipz
  3720  0745  0780               	addwf	0,f
  3721  0746  0A84               	incf	4,f
  3722  0747  3000               	movlw	0
  3723  0748  1803               	skipnc
  3724  0749  3E01               	addlw	1
  3725  074A  1D03               	skipz
  3726  074B  0780               	addwf	0,f
  3727  074C  0A84               	incf	4,f
  3728  074D  3000               	movlw	0
  3729  074E  1803               	skipnc
  3730  074F  3E01               	addlw	1
  3731  0750  0780               	addwf	0,f
  3732                           
  3733                           ;Keypad.c: 118: RE0 = 0b0;
  3734  0751  1009               	bcf	9,0	;volatile
  3735                           
  3736                           ;Keypad.c: 119: }
  3737  0752  2F6C               	goto	i1l4139
  3738  0753                     i1l260:	
  3739                           
  3740                           ;Keypad.c: 120: else if((PORTD & 0x80) == 0)
  3741  0753  1B88               	btfsc	8,7	;volatile
  3742  0754  2F6C               	goto	i1l4139
  3743                           
  3744                           ;Keypad.c: 121: {
  3745                           ;Keypad.c: 122: RE0 = 0b1;
  3746  0755  1409               	bsf	9,0	;volatile
  3747                           
  3748                           ;Keypad.c: 123: _delay((unsigned long)((150)*(4000000/4000.0)));
  3749  0756  30C3               	movlw	195
  3750  0757  00CA               	movwf	??_keypad_read+1
  3751  0758  30CD               	movlw	205
  3752  0759  00C9               	movwf	??_keypad_read
  3753  075A                     u320_27:	
  3754  075A  0BC9               	decfsz	??_keypad_read,f
  3755  075B  2F5A               	goto	u320_27
  3756  075C  0BCA               	decfsz	??_keypad_read+1,f
  3757  075D  2F5A               	goto	u320_27
  3758                           
  3759                           ;Keypad.c: 124: _delay((unsigned long)((150)*(4000000/4000.0)));
  3760  075E  30C3               	movlw	195
  3761  075F  1283               	bcf	3,5	;RP0=0, select bank0
  3762  0760  1303               	bcf	3,6	;RP1=0, select bank0
  3763  0761  00CA               	movwf	??_keypad_read+1
  3764  0762  30CD               	movlw	205
  3765  0763  00C9               	movwf	??_keypad_read
  3766  0764                     u321_27:	
  3767  0764  0BC9               	decfsz	??_keypad_read,f
  3768  0765  2F64               	goto	u321_27
  3769  0766  0BCA               	decfsz	??_keypad_read+1,f
  3770  0767  2F64               	goto	u321_27
  3771                           
  3772                           ;Keypad.c: 125: RE0 = 0b0;
  3773  0768  1283               	bcf	3,5	;RP0=0, select bank0
  3774  0769  1303               	bcf	3,6	;RP1=0, select bank0
  3775  076A  1009               	bcf	9,0	;volatile
  3776                           
  3777                           ;Keypad.c: 126: return '#';
  3778                           ;	Return value of _keypad_read is never used
  3779  076B  0008               	return
  3780  076C                     i1l4139:	
  3781                           
  3782                           ;Keypad.c: 127: }
  3783                           ;Keypad.c: 128: PORTD = 0xF7;
  3784  076C  30F7               	movlw	247
  3785  076D  0088               	movwf	8	;volatile
  3786                           
  3787                           ;Keypad.c: 129: if((PORTD & 0x10) == 0)
  3788  076E  1A08               	btfsc	8,4	;volatile
  3789  076F  2F8B               	goto	i1l263
  3790                           
  3791                           ;Keypad.c: 130: {
  3792                           ;Keypad.c: 131: RE0 = 0b1;
  3793  0770  1409               	bsf	9,0	;volatile
  3794                           
  3795                           ;Keypad.c: 132: _delay((unsigned long)((150)*(4000000/4000.0)));
  3796  0771  30C3               	movlw	195
  3797  0772  00CA               	movwf	??_keypad_read+1
  3798  0773  30CD               	movlw	205
  3799  0774  00C9               	movwf	??_keypad_read
  3800  0775                     u322_27:	
  3801  0775  0BC9               	decfsz	??_keypad_read,f
  3802  0776  2F75               	goto	u322_27
  3803  0777  0BCA               	decfsz	??_keypad_read+1,f
  3804  0778  2F75               	goto	u322_27
  3805                           
  3806                           ;Keypad.c: 133: _delay((unsigned long)((150)*(4000000/4000.0)));
  3807  0779  30C3               	movlw	195
  3808  077A  1283               	bcf	3,5	;RP0=0, select bank0
  3809  077B  1303               	bcf	3,6	;RP1=0, select bank0
  3810  077C  00CA               	movwf	??_keypad_read+1
  3811  077D  30CD               	movlw	205
  3812  077E  00C9               	movwf	??_keypad_read
  3813  077F                     u323_27:	
  3814  077F  0BC9               	decfsz	??_keypad_read,f
  3815  0780  2F7F               	goto	u323_27
  3816  0781  0BCA               	decfsz	??_keypad_read+1,f
  3817  0782  2F7F               	goto	u323_27
  3818                           
  3819                           ;Keypad.c: 134: RE0 = 0b0;
  3820  0783  1283               	bcf	3,5	;RP0=0, select bank0
  3821  0784  1303               	bcf	3,6	;RP1=0, select bank0
  3822  0785  1009               	bcf	9,0	;volatile
  3823                           
  3824                           ;Keypad.c: 135: return spec_func1(input);
  3825                           ;	Return value of _keypad_read is never used
  3826  0786  084B               	movf	keypad_read@input,w
  3827  0787  160A  118A  263C   	fcall	_spec_func1
  3828  078A  0008               	return
  3829  078B                     i1l263:	
  3830                           ;Keypad.c: 136: }
  3831                           
  3832                           
  3833                           ;Keypad.c: 137: else if((PORTD & 0x20) == 0)
  3834  078B  1A88               	btfsc	8,5	;volatile
  3835  078C  2FA8               	goto	i1l265
  3836                           
  3837                           ;Keypad.c: 138: {
  3838                           ;Keypad.c: 139: RE0 = 0b1;
  3839  078D  1409               	bsf	9,0	;volatile
  3840                           
  3841                           ;Keypad.c: 140: _delay((unsigned long)((150)*(4000000/4000.0)));
  3842  078E  30C3               	movlw	195
  3843  078F  00CA               	movwf	??_keypad_read+1
  3844  0790  30CD               	movlw	205
  3845  0791  00C9               	movwf	??_keypad_read
  3846  0792                     u324_27:	
  3847  0792  0BC9               	decfsz	??_keypad_read,f
  3848  0793  2F92               	goto	u324_27
  3849  0794  0BCA               	decfsz	??_keypad_read+1,f
  3850  0795  2F92               	goto	u324_27
  3851                           
  3852                           ;Keypad.c: 141: _delay((unsigned long)((150)*(4000000/4000.0)));
  3853  0796  30C3               	movlw	195
  3854  0797  1283               	bcf	3,5	;RP0=0, select bank0
  3855  0798  1303               	bcf	3,6	;RP1=0, select bank0
  3856  0799  00CA               	movwf	??_keypad_read+1
  3857  079A  30CD               	movlw	205
  3858  079B  00C9               	movwf	??_keypad_read
  3859  079C                     u325_27:	
  3860  079C  0BC9               	decfsz	??_keypad_read,f
  3861  079D  2F9C               	goto	u325_27
  3862  079E  0BCA               	decfsz	??_keypad_read+1,f
  3863  079F  2F9C               	goto	u325_27
  3864                           
  3865                           ;Keypad.c: 142: RE0 = 0b0;
  3866  07A0  1283               	bcf	3,5	;RP0=0, select bank0
  3867  07A1  1303               	bcf	3,6	;RP1=0, select bank0
  3868  07A2  1009               	bcf	9,0	;volatile
  3869                           
  3870                           ;Keypad.c: 143: return spec_func2(input);
  3871                           ;	Return value of _keypad_read is never used
  3872  07A3  084B               	movf	keypad_read@input,w
  3873  07A4  120A  158A  218D   	fcall	_spec_func2
  3874  07A7  0008               	return
  3875  07A8                     i1l265:	
  3876                           ;Keypad.c: 144: }
  3877                           
  3878                           
  3879                           ;Keypad.c: 145: else if((PORTD & 0x40) == 0)
  3880  07A8  1B08               	btfsc	8,6	;volatile
  3881  07A9  2FC5               	goto	i1l267
  3882                           
  3883                           ;Keypad.c: 146: {
  3884                           ;Keypad.c: 147: RE0 = 0b1;
  3885  07AA  1409               	bsf	9,0	;volatile
  3886                           
  3887                           ;Keypad.c: 148: _delay((unsigned long)((150)*(4000000/4000.0)));
  3888  07AB  30C3               	movlw	195
  3889  07AC  00CA               	movwf	??_keypad_read+1
  3890  07AD  30CD               	movlw	205
  3891  07AE  00C9               	movwf	??_keypad_read
  3892  07AF                     u326_27:	
  3893  07AF  0BC9               	decfsz	??_keypad_read,f
  3894  07B0  2FAF               	goto	u326_27
  3895  07B1  0BCA               	decfsz	??_keypad_read+1,f
  3896  07B2  2FAF               	goto	u326_27
  3897                           
  3898                           ;Keypad.c: 149: _delay((unsigned long)((150)*(4000000/4000.0)));
  3899  07B3  30C3               	movlw	195
  3900  07B4  1283               	bcf	3,5	;RP0=0, select bank0
  3901  07B5  1303               	bcf	3,6	;RP1=0, select bank0
  3902  07B6  00CA               	movwf	??_keypad_read+1
  3903  07B7  30CD               	movlw	205
  3904  07B8  00C9               	movwf	??_keypad_read
  3905  07B9                     u327_27:	
  3906  07B9  0BC9               	decfsz	??_keypad_read,f
  3907  07BA  2FB9               	goto	u327_27
  3908  07BB  0BCA               	decfsz	??_keypad_read+1,f
  3909  07BC  2FB9               	goto	u327_27
  3910                           
  3911                           ;Keypad.c: 150: RE0 = 0b0;
  3912  07BD  1283               	bcf	3,5	;RP0=0, select bank0
  3913  07BE  1303               	bcf	3,6	;RP1=0, select bank0
  3914  07BF  1009               	bcf	9,0	;volatile
  3915                           
  3916                           ;Keypad.c: 151: return spec_func3(input);
  3917                           ;	Return value of _keypad_read is never used
  3918  07C0  084B               	movf	keypad_read@input,w
  3919  07C1  160A  118A  2737   	fcall	_spec_func3
  3920  07C4  0008               	return
  3921  07C5                     i1l267:	
  3922                           ;Keypad.c: 152: }
  3923                           
  3924                           
  3925                           ;Keypad.c: 153: else if((PORTD & 0x80) == 0)
  3926  07C5  1B88               	btfsc	8,7	;volatile
  3927  07C6  2C2D               	goto	i1l4013
  3928                           
  3929                           ;Keypad.c: 154: {
  3930                           ;Keypad.c: 155: RE0 = 0b1;
  3931  07C7  1409               	bsf	9,0	;volatile
  3932                           
  3933                           ;Keypad.c: 156: _delay((unsigned long)((150)*(4000000/4000.0)));
  3934  07C8  30C3               	movlw	195
  3935  07C9  00CA               	movwf	??_keypad_read+1
  3936  07CA  30CD               	movlw	205
  3937  07CB  00C9               	movwf	??_keypad_read
  3938  07CC                     u328_27:	
  3939  07CC  0BC9               	decfsz	??_keypad_read,f
  3940  07CD  2FCC               	goto	u328_27
  3941  07CE  0BCA               	decfsz	??_keypad_read+1,f
  3942  07CF  2FCC               	goto	u328_27
  3943                           
  3944                           ;Keypad.c: 157: _delay((unsigned long)((150)*(4000000/4000.0)));
  3945  07D0  30C3               	movlw	195
  3946  07D1  1283               	bcf	3,5	;RP0=0, select bank0
  3947  07D2  1303               	bcf	3,6	;RP1=0, select bank0
  3948  07D3  00CA               	movwf	??_keypad_read+1
  3949  07D4  30CD               	movlw	205
  3950  07D5  00C9               	movwf	??_keypad_read
  3951  07D6                     u329_27:	
  3952  07D6  0BC9               	decfsz	??_keypad_read,f
  3953  07D7  2FD6               	goto	u329_27
  3954  07D8  0BCA               	decfsz	??_keypad_read+1,f
  3955  07D9  2FD6               	goto	u329_27
  3956                           
  3957                           ;Keypad.c: 158: RE0 = 0b0;
  3958  07DA  1283               	bcf	3,5	;RP0=0, select bank0
  3959  07DB  1303               	bcf	3,6	;RP1=0, select bank0
  3960  07DC  1009               	bcf	9,0	;volatile
  3961                           
  3962                           ;Keypad.c: 159: return spec_func4(input);
  3963                           ;	Return value of _keypad_read is never used
  3964  07DD  084B               	movf	keypad_read@input,w
  3965  07DE  120A  158A  2000   	fcall	_spec_func4
  3966  07E1  0008               	return
  3967  07E2                     __end_of_keypad_read:	
  3968                           ;Keypad.c: 160: }
  3969                           ;Keypad.c: 161: }
  3970                           ;Keypad.c: 162: return '\0';
  3971                           ;	Return value of _keypad_read is never used
  3972                           
  3973                           
  3974                           	psect	text6
  3975  1737                     __ptext6:	
  3976 ;; *************** function _spec_func3 *****************
  3977 ;; Defined at:
  3978 ;;		line 242 in file "CarPassword.c"
  3979 ;; Parameters:    Size  Location     Type
  3980 ;;  input           1    wreg     PTR volatile unsigned lo
  3981 ;;		 -> isr@input(4), 
  3982 ;; Auto vars:     Size  Location     Type
  3983 ;;  input           1    0[COMMON] PTR volatile unsigned lo
  3984 ;;		 -> isr@input(4), 
  3985 ;; Return value:  Size  Location     Type
  3986 ;;                  1    wreg      unsigned char 
  3987 ;; Registers used:
  3988 ;;		wreg, status,2, status,0, pclath, cstack
  3989 ;; Tracked objects:
  3990 ;;		On entry : 0/0
  3991 ;;		On exit  : 0/0
  3992 ;;		Unchanged: 0/0
  3993 ;; Data sizes:     COMMON   BANK0   BANK1   BANK3   BANK2
  3994 ;;      Params:         0       0       0       0       0
  3995 ;;      Locals:         0       0       0       0       0
  3996 ;;      Temps:          2       0       0       0       0
  3997 ;;      Totals:         2       0       0       0       0
  3998 ;;Total ram usage:        2 bytes
  3999 ;; Hardware stack levels used:    1
  4000 ;; Hardware stack levels required when called:    2
  4001 ;; This function calls:
  4002 ;;		i1_init
  4003 ;; This function is called by:
  4004 ;;		_keypad_read
  4005 ;; This function uses a non-reentrant model
  4006 ;;
  4007                           
  4008                           
  4009                           ;psect for function _spec_func3
  4010  1737                     _spec_func3:	
  4011                           
  4012                           ;CarPassword.c: 243: RA2 = 0b0;
  4013                           
  4014                           ;incstack = 0
  4015                           ; Regs used in _spec_func3: [wreg+status,2+status,0+pclath+cstack]
  4016  1737  1283               	bcf	3,5	;RP0=0, select bank0
  4017  1738  1303               	bcf	3,6	;RP1=0, select bank0
  4018  1739  1105               	bcf	5,2	;volatile
  4019                           
  4020                           ;CarPassword.c: 244: _delay((unsigned long)((197)*(4000000/4000.0)));
  4021  173A  3000               	movlw	0
  4022  173B  00F6               	movwf	??_spec_func3+1
  4023  173C  30D7               	movlw	215
  4024  173D  00F5               	movwf	??_spec_func3
  4025  173E                     u330_27:	
  4026  173E  0BF5               	decfsz	??_spec_func3,f
  4027  173F  2F3E               	goto	u330_27
  4028  1740  0BF6               	decfsz	??_spec_func3+1,f
  4029  1741  2F3E               	goto	u330_27
  4030                           
  4031                           ;CarPassword.c: 245: _delay((unsigned long)((197)*(4000000/4000.0)));
  4032  1742  3000               	movlw	0
  4033  1743  00F6               	movwf	??_spec_func3+1
  4034  1744  30D7               	movlw	215
  4035  1745  00F5               	movwf	??_spec_func3
  4036  1746                     u331_27:	
  4037  1746  0BF5               	decfsz	??_spec_func3,f
  4038  1747  2F46               	goto	u331_27
  4039  1748  0BF6               	decfsz	??_spec_func3+1,f
  4040  1749  2F46               	goto	u331_27
  4041                           
  4042                           ;CarPassword.c: 246: _delay((unsigned long)((197)*(4000000/4000.0)));
  4043  174A  3000               	movlw	0
  4044  174B  00F6               	movwf	??_spec_func3+1
  4045  174C  30D7               	movlw	215
  4046  174D  00F5               	movwf	??_spec_func3
  4047  174E                     u332_27:	
  4048  174E  0BF5               	decfsz	??_spec_func3,f
  4049  174F  2F4E               	goto	u332_27
  4050  1750  0BF6               	decfsz	??_spec_func3+1,f
  4051  1751  2F4E               	goto	u332_27
  4052                           
  4053                           ;CarPassword.c: 247: _delay((unsigned long)((197)*(4000000/4000.0)));
  4054  1752  3000               	movlw	0
  4055  1753  00F6               	movwf	??_spec_func3+1
  4056  1754  30D7               	movlw	215
  4057  1755  00F5               	movwf	??_spec_func3
  4058  1756                     u333_27:	
  4059  1756  0BF5               	decfsz	??_spec_func3,f
  4060  1757  2F56               	goto	u333_27
  4061  1758  0BF6               	decfsz	??_spec_func3+1,f
  4062  1759  2F56               	goto	u333_27
  4063                           
  4064                           ;CarPassword.c: 248: _delay((unsigned long)((197)*(4000000/4000.0)));
  4065  175A  3000               	movlw	0
  4066  175B  00F6               	movwf	??_spec_func3+1
  4067  175C  30D7               	movlw	215
  4068  175D  00F5               	movwf	??_spec_func3
  4069  175E                     u334_27:	
  4070  175E  0BF5               	decfsz	??_spec_func3,f
  4071  175F  2F5E               	goto	u334_27
  4072  1760  0BF6               	decfsz	??_spec_func3+1,f
  4073  1761  2F5E               	goto	u334_27
  4074                           
  4075                           ;CarPassword.c: 249: RA2 = 0b1;
  4076  1762  1283               	bcf	3,5	;RP0=0, select bank0
  4077  1763  1303               	bcf	3,6	;RP1=0, select bank0
  4078  1764  1505               	bsf	5,2	;volatile
  4079                           
  4080                           ;CarPassword.c: 250: if(init() == 0)
  4081  1765  120A  158A  2039   	fcall	i1_init
      +       160A  118A         
  4082  176A  3800               	iorlw	0
  4083  176B  1D03               	skipz
  4084  176C  2F71               	goto	i1l184
  4085                           
  4086                           ;CarPassword.c: 251: RA5 = 0b0;
  4087  176D  1283               	bcf	3,5	;RP0=0, select bank0
  4088  176E  1303               	bcf	3,6	;RP1=0, select bank0
  4089  176F  1285               	bcf	5,5	;volatile
  4090  1770  2F74               	goto	i1l3939
  4091  1771                     i1l184:	
  4092                           
  4093                           ;CarPassword.c: 252: else
  4094                           ;CarPassword.c: 253: RA5 = 0b1;
  4095  1771  1283               	bcf	3,5	;RP0=0, select bank0
  4096  1772  1303               	bcf	3,6	;RP1=0, select bank0
  4097  1773  1685               	bsf	5,5	;volatile
  4098  1774                     i1l3939:	
  4099                           
  4100                           ;CarPassword.c: 254: return '\0';
  4101  1774  3000               	movlw	0
  4102  1775  0008               	return
  4103  1776                     __end_of_spec_func3:	
  4104                           
  4105                           	psect	text7
  4106  098D                     __ptext7:	
  4107 ;; *************** function _spec_func2 *****************
  4108 ;; Defined at:
  4109 ;;		line 187 in file "CarPassword.c"
  4110 ;; Parameters:    Size  Location     Type
  4111 ;;  inp             1    wreg     PTR volatile unsigned lo
  4112 ;;		 -> isr@input(4), 
  4113 ;; Auto vars:     Size  Location     Type
  4114 ;;  inp             1    6[BANK0 ] PTR volatile unsigned lo
  4115 ;;		 -> isr@input(4), 
  4116 ;;  temp            4    7[BANK0 ] volatile unsigned long 
  4117 ;; Return value:  Size  Location     Type
  4118 ;;                  1    wreg      unsigned char 
  4119 ;; Registers used:
  4120 ;;		wreg, fsr0l, fsr0h, status,2, status,0, pclath, cstack
  4121 ;; Tracked objects:
  4122 ;;		On entry : 0/0
  4123 ;;		On exit  : 0/0
  4124 ;;		Unchanged: 0/0
  4125 ;; Data sizes:     COMMON   BANK0   BANK1   BANK3   BANK2
  4126 ;;      Params:         0       0       0       0       0
  4127 ;;      Locals:         0       5       0       0       0
  4128 ;;      Temps:          0       4       0       0       0
  4129 ;;      Totals:         0       9       0       0       0
  4130 ;;Total ram usage:        9 bytes
  4131 ;; Hardware stack levels used:    1
  4132 ;; Hardware stack levels required when called:    3
  4133 ;; This function calls:
  4134 ;;		_read
  4135 ;;		_disp
  4136 ;;		_eeprom_write
  4137 ;; This function is called by:
  4138 ;;		_keypad_read
  4139 ;; This function uses a non-reentrant model
  4140 ;;
  4141                           
  4142                           
  4143                           ;psect for function _spec_func2
  4144  098D                     _spec_func2:	
  4145                           
  4146                           ;incstack = 0
  4147                           ; Regs used in _spec_func2: [wreg-fsr0h+status,2+status,0+pclath+cstack]
  4148                           ;spec_func2@inp stored from wreg
  4149  098D  1283               	bcf	3,5	;RP0=0, select bank0
  4150  098E  1303               	bcf	3,6	;RP1=0, select bank0
  4151  098F  00C4               	movwf	spec_func2@inp
  4152                           
  4153                           ;CarPassword.c: 188: volatile unsigned long int temp;
  4154                           ;CarPassword.c: 189: if(disp(old,14,0) == 0b0)
  4155  0990  300E               	movlw	14
  4156  0991  00F2               	movwf	?_disp
  4157  0992  3000               	movlw	0
  4158  0993  00F3               	movwf	?_disp+1
  4159  0994  01F4               	clrf	?_disp+2
  4160  0995  30D0               	movlw	_old& (0+255)
  4161  0996  120A  158A  22E8   	fcall	_disp
      +       120A  158A         
  4162  099B  3800               	iorlw	0
  4163  099C  1D03               	skipz
  4164  099D  29A2               	goto	i1l170
  4165                           
  4166                           ;CarPassword.c: 190: RA5 = 0b1;
  4167  099E  1283               	bcf	3,5	;RP0=0, select bank0
  4168  099F  1303               	bcf	3,6	;RP1=0, select bank0
  4169  09A0  1685               	bsf	5,5	;volatile
  4170  09A1  29A5               	goto	i1l3947
  4171  09A2                     i1l170:	
  4172                           
  4173                           ;CarPassword.c: 191: else
  4174                           ;CarPassword.c: 192: RA5 = 0b0;
  4175  09A2  1283               	bcf	3,5	;RP0=0, select bank0
  4176  09A3  1303               	bcf	3,6	;RP1=0, select bank0
  4177  09A4  1285               	bcf	5,5	;volatile
  4178  09A5                     i1l3947:	
  4179                           
  4180                           ;CarPassword.c: 193: read(inp);
  4181  09A5  0844               	movf	spec_func2@inp,w
  4182  09A6  120A  118A  203E   	fcall	_read
      +       120A  158A         
  4183                           
  4184                           ;CarPassword.c: 194: if((*inp)== paswd)
  4185  09AB  1283               	bcf	3,5	;RP0=0, select bank0
  4186  09AC  1303               	bcf	3,6	;RP1=0, select bank0
  4187  09AD  0844               	movf	spec_func2@inp,w
  4188  09AE  0084               	movwf	4
  4189  09AF  1383               	bcf	3,7	;select IRP bank0
  4190  09B0  0800               	movf	0,w
  4191  09B1  00C0               	movwf	??_spec_func2
  4192  09B2  0A84               	incf	4,f
  4193  09B3  0800               	movf	0,w
  4194  09B4  00C1               	movwf	??_spec_func2+1
  4195  09B5  0A84               	incf	4,f
  4196  09B6  0800               	movf	0,w
  4197  09B7  00C2               	movwf	??_spec_func2+2
  4198  09B8  0A84               	incf	4,f
  4199  09B9  0800               	movf	0,w
  4200  09BA  00C3               	movwf	??_spec_func2+3
  4201  09BB  085A               	movf	_paswd+3,w	;volatile
  4202  09BC  0643               	xorwf	??_spec_func2+3,w
  4203  09BD  1D03               	skipz
  4204  09BE  29C9               	goto	u208_25
  4205  09BF  0859               	movf	_paswd+2,w	;volatile
  4206  09C0  0642               	xorwf	??_spec_func2+2,w
  4207  09C1  1D03               	skipz
  4208  09C2  29C9               	goto	u208_25
  4209  09C3  0858               	movf	_paswd+1,w	;volatile
  4210  09C4  0641               	xorwf	??_spec_func2+1,w
  4211  09C5  1D03               	skipz
  4212  09C6  29C9               	goto	u208_25
  4213  09C7  0857               	movf	_paswd,w	;volatile
  4214  09C8  0640               	xorwf	??_spec_func2,w
  4215  09C9                     u208_25:	
  4216  09C9  1D03               	skipz
  4217  09CA  2AE6               	goto	i1l4007
  4218                           
  4219                           ;CarPassword.c: 195: {
  4220                           ;CarPassword.c: 196: if(disp(new,14,0) == 0b0)
  4221  09CB  300E               	movlw	14
  4222  09CC  00F2               	movwf	?_disp
  4223  09CD  3000               	movlw	0
  4224  09CE  00F3               	movwf	?_disp+1
  4225  09CF  01F4               	clrf	?_disp+2
  4226  09D0  30C1               	movlw	_new& (0+255)
  4227  09D1  120A  158A  22E8   	fcall	_disp
      +       120A  158A         
  4228  09D6  3800               	iorlw	0
  4229  09D7  1D03               	skipz
  4230  09D8  29DD               	goto	i1l173
  4231                           
  4232                           ;CarPassword.c: 197: RA5 = 0b1;
  4233  09D9  1283               	bcf	3,5	;RP0=0, select bank0
  4234  09DA  1303               	bcf	3,6	;RP1=0, select bank0
  4235  09DB  1685               	bsf	5,5	;volatile
  4236  09DC  29E0               	goto	i1l3955
  4237  09DD                     i1l173:	
  4238                           
  4239                           ;CarPassword.c: 198: else
  4240                           ;CarPassword.c: 199: RA5 = 0b0;
  4241  09DD  1283               	bcf	3,5	;RP0=0, select bank0
  4242  09DE  1303               	bcf	3,6	;RP1=0, select bank0
  4243  09DF  1285               	bcf	5,5	;volatile
  4244  09E0                     i1l3955:	
  4245                           
  4246                           ;CarPassword.c: 200: read(inp);
  4247  09E0  0844               	movf	spec_func2@inp,w
  4248  09E1  120A  118A  203E   	fcall	_read
      +       120A  158A         
  4249                           
  4250                           ;CarPassword.c: 201: temp = (*inp);
  4251  09E6  1283               	bcf	3,5	;RP0=0, select bank0
  4252  09E7  1303               	bcf	3,6	;RP1=0, select bank0
  4253  09E8  0844               	movf	spec_func2@inp,w
  4254  09E9  0084               	movwf	4
  4255  09EA  1383               	bcf	3,7	;select IRP bank0
  4256  09EB  0800               	movf	0,w
  4257  09EC  00C5               	movwf	spec_func2@temp	;volatile
  4258  09ED  0A84               	incf	4,f
  4259  09EE  0800               	movf	0,w
  4260  09EF  00C6               	movwf	spec_func2@temp+1	;volatile
  4261  09F0  0A84               	incf	4,f
  4262  09F1  0800               	movf	0,w
  4263  09F2  00C7               	movwf	spec_func2@temp+2	;volatile
  4264  09F3  0A84               	incf	4,f
  4265  09F4  0800               	movf	0,w
  4266  09F5  00C8               	movwf	spec_func2@temp+3	;volatile
  4267                           
  4268                           ;CarPassword.c: 202: paswd0 = 0x00;
  4269  09F6  01DC               	clrf	_paswd0	;volatile
  4270                           
  4271                           ;CarPassword.c: 203: paswd0 = (volatile unsigned char)temp;
  4272  09F7  0845               	movf	spec_func2@temp,w	;volatile
  4273  09F8  00C0               	movwf	??_spec_func2
  4274  09F9  0840               	movf	??_spec_func2,w
  4275  09FA  00DC               	movwf	_paswd0	;volatile
  4276                           
  4277                           ;CarPassword.c: 204: temp = (*inp);
  4278  09FB  0844               	movf	spec_func2@inp,w
  4279  09FC  0084               	movwf	4
  4280  09FD  0800               	movf	0,w
  4281  09FE  00C5               	movwf	spec_func2@temp	;volatile
  4282  09FF  0A84               	incf	4,f
  4283  0A00  0800               	movf	0,w
  4284  0A01  00C6               	movwf	spec_func2@temp+1	;volatile
  4285  0A02  0A84               	incf	4,f
  4286  0A03  0800               	movf	0,w
  4287  0A04  00C7               	movwf	spec_func2@temp+2	;volatile
  4288  0A05  0A84               	incf	4,f
  4289  0A06  0800               	movf	0,w
  4290  0A07  00C8               	movwf	spec_func2@temp+3	;volatile
  4291                           
  4292                           ;CarPassword.c: 205: temp >>= 8;
  4293  0A08  3008               	movlw	8
  4294  0A09                     u210_25:	
  4295  0A09  1003               	clrc
  4296  0A0A  0CC8               	rrf	spec_func2@temp+3,f	;volatile
  4297  0A0B  0CC7               	rrf	spec_func2@temp+2,f	;volatile
  4298  0A0C  0CC6               	rrf	spec_func2@temp+1,f	;volatile
  4299  0A0D  0CC5               	rrf	spec_func2@temp,f	;volatile
  4300  0A0E  3EFF               	addlw	-1
  4301  0A0F  1D03               	skipz
  4302  0A10  2A09               	goto	u210_25
  4303                           
  4304                           ;CarPassword.c: 206: paswd1 = 0x00;
  4305  0A11  01DD               	clrf	_paswd1	;volatile
  4306                           
  4307                           ;CarPassword.c: 207: paswd1 = (volatile unsigned char)temp;
  4308  0A12  0845               	movf	spec_func2@temp,w	;volatile
  4309  0A13  00C0               	movwf	??_spec_func2
  4310  0A14  0840               	movf	??_spec_func2,w
  4311  0A15  00DD               	movwf	_paswd1	;volatile
  4312                           
  4313                           ;CarPassword.c: 208: temp = (*inp);
  4314  0A16  0844               	movf	spec_func2@inp,w
  4315  0A17  0084               	movwf	4
  4316  0A18  0800               	movf	0,w
  4317  0A19  00C5               	movwf	spec_func2@temp	;volatile
  4318  0A1A  0A84               	incf	4,f
  4319  0A1B  0800               	movf	0,w
  4320  0A1C  00C6               	movwf	spec_func2@temp+1	;volatile
  4321  0A1D  0A84               	incf	4,f
  4322  0A1E  0800               	movf	0,w
  4323  0A1F  00C7               	movwf	spec_func2@temp+2	;volatile
  4324  0A20  0A84               	incf	4,f
  4325  0A21  0800               	movf	0,w
  4326  0A22  00C8               	movwf	spec_func2@temp+3	;volatile
  4327                           
  4328                           ;CarPassword.c: 209: temp >>= 16;
  4329  0A23  3010               	movlw	16
  4330  0A24                     u211_25:	
  4331  0A24  1003               	clrc
  4332  0A25  0CC8               	rrf	spec_func2@temp+3,f	;volatile
  4333  0A26  0CC7               	rrf	spec_func2@temp+2,f	;volatile
  4334  0A27  0CC6               	rrf	spec_func2@temp+1,f	;volatile
  4335  0A28  0CC5               	rrf	spec_func2@temp,f	;volatile
  4336  0A29  3EFF               	addlw	-1
  4337  0A2A  1D03               	skipz
  4338  0A2B  2A24               	goto	u211_25
  4339                           
  4340                           ;CarPassword.c: 210: paswd2 = 0x00;
  4341  0A2C  01DE               	clrf	_paswd2	;volatile
  4342                           
  4343                           ;CarPassword.c: 211: paswd2 |= (volatile unsigned char)temp;
  4344  0A2D  0845               	movf	spec_func2@temp,w	;volatile
  4345  0A2E  00C0               	movwf	??_spec_func2
  4346  0A2F  0840               	movf	??_spec_func2,w
  4347  0A30  04DE               	iorwf	_paswd2,f	;volatile
  4348                           
  4349                           ;CarPassword.c: 212: temp = (*inp);
  4350  0A31  0844               	movf	spec_func2@inp,w
  4351  0A32  0084               	movwf	4
  4352  0A33  0800               	movf	0,w
  4353  0A34  00C5               	movwf	spec_func2@temp	;volatile
  4354  0A35  0A84               	incf	4,f
  4355  0A36  0800               	movf	0,w
  4356  0A37  00C6               	movwf	spec_func2@temp+1	;volatile
  4357  0A38  0A84               	incf	4,f
  4358  0A39  0800               	movf	0,w
  4359  0A3A  00C7               	movwf	spec_func2@temp+2	;volatile
  4360  0A3B  0A84               	incf	4,f
  4361  0A3C  0800               	movf	0,w
  4362  0A3D  00C8               	movwf	spec_func2@temp+3	;volatile
  4363                           
  4364                           ;CarPassword.c: 213: temp >>= 24;
  4365  0A3E  3018               	movlw	24
  4366  0A3F                     u212_25:	
  4367  0A3F  1003               	clrc
  4368  0A40  0CC8               	rrf	spec_func2@temp+3,f	;volatile
  4369  0A41  0CC7               	rrf	spec_func2@temp+2,f	;volatile
  4370  0A42  0CC6               	rrf	spec_func2@temp+1,f	;volatile
  4371  0A43  0CC5               	rrf	spec_func2@temp,f	;volatile
  4372  0A44  3EFF               	addlw	-1
  4373  0A45  1D03               	skipz
  4374  0A46  2A3F               	goto	u212_25
  4375                           
  4376                           ;CarPassword.c: 214: paswd3 = 0x00;
  4377  0A47  01DF               	clrf	_paswd3	;volatile
  4378                           
  4379                           ;CarPassword.c: 215: paswd3 |= (volatile unsigned char)temp;
  4380  0A48  0845               	movf	spec_func2@temp,w	;volatile
  4381  0A49  00C0               	movwf	??_spec_func2
  4382  0A4A  0840               	movf	??_spec_func2,w
  4383  0A4B  04DF               	iorwf	_paswd3,f	;volatile
  4384                           
  4385                           ;CarPassword.c: 216: eeprom_write(0x00,(paswd0));
  4386  0A4C  085C               	movf	_paswd0,w	;volatile
  4387  0A4D  00C0               	movwf	??_spec_func2
  4388  0A4E  0840               	movf	??_spec_func2,w
  4389  0A4F  00F0               	movwf	?_eeprom_write
  4390  0A50  3000               	movlw	0
  4391  0A51  160A  118A  266A   	fcall	_eeprom_write
      +       120A  158A         
  4392                           
  4393                           ;CarPassword.c: 217: eeprom_write(0x01,(paswd1));
  4394  0A56  1283               	bcf	3,5	;RP0=0, select bank0
  4395  0A57  1303               	bcf	3,6	;RP1=0, select bank0
  4396  0A58  085D               	movf	_paswd1,w	;volatile
  4397  0A59  00C0               	movwf	??_spec_func2
  4398  0A5A  0840               	movf	??_spec_func2,w
  4399  0A5B  00F0               	movwf	?_eeprom_write
  4400  0A5C  3001               	movlw	1
  4401  0A5D  160A  118A  266A   	fcall	_eeprom_write
      +       120A  158A         
  4402                           
  4403                           ;CarPassword.c: 218: eeprom_write(0x02,(paswd2));
  4404  0A62  1283               	bcf	3,5	;RP0=0, select bank0
  4405  0A63  1303               	bcf	3,6	;RP1=0, select bank0
  4406  0A64  085E               	movf	_paswd2,w	;volatile
  4407  0A65  00C0               	movwf	??_spec_func2
  4408  0A66  0840               	movf	??_spec_func2,w
  4409  0A67  00F0               	movwf	?_eeprom_write
  4410  0A68  3002               	movlw	2
  4411  0A69  160A  118A  266A   	fcall	_eeprom_write
      +       120A  158A         
  4412                           
  4413                           ;CarPassword.c: 219: eeprom_write(0x03,(paswd3));
  4414  0A6E  1283               	bcf	3,5	;RP0=0, select bank0
  4415  0A6F  1303               	bcf	3,6	;RP1=0, select bank0
  4416  0A70  085F               	movf	_paswd3,w	;volatile
  4417  0A71  00C0               	movwf	??_spec_func2
  4418  0A72  0840               	movf	??_spec_func2,w
  4419  0A73  00F0               	movwf	?_eeprom_write
  4420  0A74  3003               	movlw	3
  4421  0A75  160A  118A  266A   	fcall	_eeprom_write
      +       120A  158A         
  4422  0A7A                     i1l175:	
  4423                           ;CarPassword.c: 220: while(WR);
  4424                           
  4425  0A7A  1683               	bsf	3,5	;RP0=1, select bank3
  4426  0A7B  1703               	bsf	3,6	;RP1=1, select bank3
  4427  0A7C  188C               	btfsc	12,1	;volsfr
  4428  0A7D  2A7A               	goto	i1l175
  4429                           
  4430                           ;CarPassword.c: 221: if(disp(pschng,16,0) == 0b0)
  4431  0A7E  3010               	movlw	16
  4432  0A7F  00F2               	movwf	?_disp
  4433  0A80  3000               	movlw	0
  4434  0A81  00F3               	movwf	?_disp+1
  4435  0A82  01F4               	clrf	?_disp+2
  4436  0A83  30A0               	movlw	_pschng& (0+255)
  4437  0A84  120A  158A  22E8   	fcall	_disp
      +       120A  158A         
  4438  0A89  3800               	iorlw	0
  4439  0A8A  1D03               	skipz
  4440  0A8B  2A90               	goto	i1l178
  4441                           
  4442                           ;CarPassword.c: 222: RA5 = 0b1;
  4443  0A8C  1283               	bcf	3,5	;RP0=0, select bank0
  4444  0A8D  1303               	bcf	3,6	;RP1=0, select bank0
  4445  0A8E  1685               	bsf	5,5	;volatile
  4446  0A8F  2A93               	goto	i1l3999
  4447  0A90                     i1l178:	
  4448                           
  4449                           ;CarPassword.c: 223: else
  4450                           ;CarPassword.c: 224: RA5 = 0b0;
  4451  0A90  1283               	bcf	3,5	;RP0=0, select bank0
  4452  0A91  1303               	bcf	3,6	;RP1=0, select bank0
  4453  0A92  1285               	bcf	5,5	;volatile
  4454  0A93                     i1l3999:	
  4455                           
  4456                           ;CarPassword.c: 225: _delay((unsigned long)((197)*(4000000/4000.0)));
  4457  0A93  3000               	movlw	0
  4458  0A94  00C1               	movwf	??_spec_func2+1
  4459  0A95  30D7               	movlw	215
  4460  0A96  00C0               	movwf	??_spec_func2
  4461  0A97                     u335_27:	
  4462  0A97  0BC0               	decfsz	??_spec_func2,f
  4463  0A98  2A97               	goto	u335_27
  4464  0A99  0BC1               	decfsz	??_spec_func2+1,f
  4465  0A9A  2A97               	goto	u335_27
  4466                           
  4467                           ;CarPassword.c: 226: _delay((unsigned long)((197)*(4000000/4000.0)));
  4468  0A9B  3000               	movlw	0
  4469  0A9C  1283               	bcf	3,5	;RP0=0, select bank0
  4470  0A9D  1303               	bcf	3,6	;RP1=0, select bank0
  4471  0A9E  00C1               	movwf	??_spec_func2+1
  4472  0A9F  30D7               	movlw	215
  4473  0AA0  00C0               	movwf	??_spec_func2
  4474  0AA1                     u336_27:	
  4475  0AA1  0BC0               	decfsz	??_spec_func2,f
  4476  0AA2  2AA1               	goto	u336_27
  4477  0AA3  0BC1               	decfsz	??_spec_func2+1,f
  4478  0AA4  2AA1               	goto	u336_27
  4479                           
  4480                           ;CarPassword.c: 227: _delay((unsigned long)((197)*(4000000/4000.0)));
  4481  0AA5  3000               	movlw	0
  4482  0AA6  1283               	bcf	3,5	;RP0=0, select bank0
  4483  0AA7  1303               	bcf	3,6	;RP1=0, select bank0
  4484  0AA8  00C1               	movwf	??_spec_func2+1
  4485  0AA9  30D7               	movlw	215
  4486  0AAA  00C0               	movwf	??_spec_func2
  4487  0AAB                     u337_27:	
  4488  0AAB  0BC0               	decfsz	??_spec_func2,f
  4489  0AAC  2AAB               	goto	u337_27
  4490  0AAD  0BC1               	decfsz	??_spec_func2+1,f
  4491  0AAE  2AAB               	goto	u337_27
  4492                           
  4493                           ;CarPassword.c: 228: _delay((unsigned long)((197)*(4000000/4000.0)));
  4494  0AAF  3000               	movlw	0
  4495  0AB0  1283               	bcf	3,5	;RP0=0, select bank0
  4496  0AB1  1303               	bcf	3,6	;RP1=0, select bank0
  4497  0AB2  00C1               	movwf	??_spec_func2+1
  4498  0AB3  30D7               	movlw	215
  4499  0AB4  00C0               	movwf	??_spec_func2
  4500  0AB5                     u338_27:	
  4501  0AB5  0BC0               	decfsz	??_spec_func2,f
  4502  0AB6  2AB5               	goto	u338_27
  4503  0AB7  0BC1               	decfsz	??_spec_func2+1,f
  4504  0AB8  2AB5               	goto	u338_27
  4505                           
  4506                           ;CarPassword.c: 229: _delay((unsigned long)((197)*(4000000/4000.0)));
  4507  0AB9  3000               	movlw	0
  4508  0ABA  1283               	bcf	3,5	;RP0=0, select bank0
  4509  0ABB  1303               	bcf	3,6	;RP1=0, select bank0
  4510  0ABC  00C1               	movwf	??_spec_func2+1
  4511  0ABD  30D7               	movlw	215
  4512  0ABE  00C0               	movwf	??_spec_func2
  4513  0ABF                     u339_27:	
  4514  0ABF  0BC0               	decfsz	??_spec_func2,f
  4515  0AC0  2ABF               	goto	u339_27
  4516  0AC1  0BC1               	decfsz	??_spec_func2+1,f
  4517  0AC2  2ABF               	goto	u339_27
  4518                           
  4519                           ;CarPassword.c: 230: _delay((unsigned long)((197)*(4000000/4000.0)));
  4520  0AC3  3000               	movlw	0
  4521  0AC4  1283               	bcf	3,5	;RP0=0, select bank0
  4522  0AC5  1303               	bcf	3,6	;RP1=0, select bank0
  4523  0AC6  00C1               	movwf	??_spec_func2+1
  4524  0AC7  30D7               	movlw	215
  4525  0AC8  00C0               	movwf	??_spec_func2
  4526  0AC9                     u340_27:	
  4527  0AC9  0BC0               	decfsz	??_spec_func2,f
  4528  0ACA  2AC9               	goto	u340_27
  4529  0ACB  0BC1               	decfsz	??_spec_func2+1,f
  4530  0ACC  2AC9               	goto	u340_27
  4531                           
  4532                           ;CarPassword.c: 231: _delay((unsigned long)((197)*(4000000/4000.0)));
  4533  0ACD  3000               	movlw	0
  4534  0ACE  1283               	bcf	3,5	;RP0=0, select bank0
  4535  0ACF  1303               	bcf	3,6	;RP1=0, select bank0
  4536  0AD0  00C1               	movwf	??_spec_func2+1
  4537  0AD1  30D7               	movlw	215
  4538  0AD2  00C0               	movwf	??_spec_func2
  4539  0AD3                     u341_27:	
  4540  0AD3  0BC0               	decfsz	??_spec_func2,f
  4541  0AD4  2AD3               	goto	u341_27
  4542  0AD5  0BC1               	decfsz	??_spec_func2+1,f
  4543  0AD6  2AD3               	goto	u341_27
  4544                           
  4545                           ;CarPassword.c: 232: _delay((unsigned long)((197)*(4000000/4000.0)));
  4546  0AD7  3000               	movlw	0
  4547  0AD8  1283               	bcf	3,5	;RP0=0, select bank0
  4548  0AD9  1303               	bcf	3,6	;RP1=0, select bank0
  4549  0ADA  00C1               	movwf	??_spec_func2+1
  4550  0ADB  30D7               	movlw	215
  4551  0ADC  00C0               	movwf	??_spec_func2
  4552  0ADD                     u342_27:	
  4553  0ADD  0BC0               	decfsz	??_spec_func2,f
  4554  0ADE  2ADD               	goto	u342_27
  4555  0ADF  0BC1               	decfsz	??_spec_func2+1,f
  4556  0AE0  2ADD               	goto	u342_27
  4557                           
  4558                           ;CarPassword.c: 233: paswd_chng = 0b1;
  4559  0AE1  1283               	bcf	3,5	;RP0=0, select bank0
  4560  0AE2  1303               	bcf	3,6	;RP1=0, select bank0
  4561  0AE3  1662               	bsf	_paswd_chng/(0+8),_paswd_chng& (0+7)	;volatile
  4562                           
  4563                           ;CarPassword.c: 234: return '\0';
  4564  0AE4  3000               	movlw	0
  4565                           
  4566                           ;CarPassword.c: 235: }
  4567  0AE5  0008               	return
  4568  0AE6                     i1l4007:	
  4569                           
  4570                           ;CarPassword.c: 236: else
  4571                           ;CarPassword.c: 237: {
  4572                           ;CarPassword.c: 238: return '\0';
  4573  0AE6  3000               	movlw	0
  4574  0AE7  0008               	return
  4575  0AE8                     __end_of_spec_func2:	
  4576                           
  4577                           	psect	text8
  4578  166A                     __ptext8:	
  4579 ;; *************** function _eeprom_write *****************
  4580 ;; Defined at:
  4581 ;;		line 7 in file "/opt/microchip/xc8/v1.21/sources/pic/eewrite.c"
  4582 ;; Parameters:    Size  Location     Type
  4583 ;;  addr            1    wreg     unsigned char 
  4584 ;;  value           1    0[COMMON] unsigned char 
  4585 ;; Auto vars:     Size  Location     Type
  4586 ;;  addr            1    2[COMMON] unsigned char 
  4587 ;; Return value:  Size  Location     Type
  4588 ;;		None               void
  4589 ;; Registers used:
  4590 ;;		wreg, status,2, status,0
  4591 ;; Tracked objects:
  4592 ;;		On entry : 0/0
  4593 ;;		On exit  : 0/0
  4594 ;;		Unchanged: 0/0
  4595 ;; Data sizes:     COMMON   BANK0   BANK1   BANK3   BANK2
  4596 ;;      Params:         1       0       0       0       0
  4597 ;;      Locals:         1       0       0       0       0
  4598 ;;      Temps:          1       0       0       0       0
  4599 ;;      Totals:         3       0       0       0       0
  4600 ;;Total ram usage:        3 bytes
  4601 ;; Hardware stack levels used:    1
  4602 ;; This function calls:
  4603 ;;		Nothing
  4604 ;; This function is called by:
  4605 ;;		_spec_func2
  4606 ;; This function uses a non-reentrant model
  4607 ;;
  4608                           
  4609                           
  4610                           ;psect for function _eeprom_write
  4611  166A                     _eeprom_write:	
  4612                           
  4613                           ;incstack = 0
  4614                           ; Regs used in _eeprom_write: [wreg+status,2+status,0]
  4615                           ;eeprom_write@addr stored from wreg
  4616  166A  00F2               	movwf	eeprom_write@addr
  4617  166B                     i1l402:	
  4618  166B  1683               	bsf	3,5	;RP0=1, select bank3
  4619  166C  1703               	bsf	3,6	;RP1=1, select bank3
  4620  166D  188C               	btfsc	12,1	;volsfr
  4621  166E  2E6B               	goto	i1l402
  4622  166F  0872               	movf	eeprom_write@addr,w
  4623  1670  1283               	bcf	3,5	;RP0=0, select bank2
  4624  1671  1703               	bsf	3,6	;RP1=1, select bank2
  4625  1672  008D               	movwf	13	;volatile
  4626  1673  0870               	movf	eeprom_write@value,w
  4627  1674  008C               	movwf	12	;volatile
  4628  1675  303F               	movlw	63
  4629  1676  00F1               	movwf	??_eeprom_write
  4630  1677  0871               	movf	??_eeprom_write,w
  4631  1678  1683               	bsf	3,5	;RP0=1, select bank3
  4632  1679  1703               	bsf	3,6	;RP1=1, select bank3
  4633  167A  058C               	andwf	12,f	;volsfr
  4634  167B  1283               	bcf	3,5	;RP0=0, select bank0
  4635  167C  1303               	bcf	3,6	;RP1=0, select bank0
  4636  167D  1003               	bcf	3,0	;volatile
  4637  167E  1B8B               	btfsc	11,7	;volatile
  4638  167F  1403               	bsf	3,0	;volatile
  4639  1680  138B               	bcf	11,7	;volatile
  4640  1681  1683               	bsf	3,5	;RP0=1, select bank3
  4641  1682  1703               	bsf	3,6	;RP1=1, select bank3
  4642  1683  150C               	bsf	12,2	;volsfr
  4643  1684  3055               	movlw	85
  4644  1685  008D               	movwf	13	;volsfr
  4645  1686  30AA               	movlw	170
  4646  1687  008D               	movwf	13	;volsfr
  4647  1688  148C               	bsf	12,1	;volsfr
  4648  1689  110C               	bcf	12,2	;volsfr
  4649  168A  1283               	bcf	3,5	;RP0=0, select bank0
  4650  168B  1303               	bcf	3,6	;RP1=0, select bank0
  4651  168C  1C03               	btfss	3,0	;volatile
  4652  168D  0008               	return
  4653  168E  178B               	bsf	11,7	;volatile
  4654  168F  0008               	return
  4655  1690                     __end_of_eeprom_write:	
  4656                           
  4657                           	psect	text9
  4658  0AE8                     __ptext9:	
  4659 ;; *************** function _disp *****************
  4660 ;; Defined at:
  4661 ;;		line 176 in file "ST7066U_4bit.c"
  4662 ;; Parameters:    Size  Location     Type
  4663 ;;  line            1    wreg     PTR unsigned char 
  4664 ;;		 -> suc(14), rng(16), chk(16), pschng(17), 
  4665 ;;		 -> new(15), old(15), 
  4666 ;;  cnt             2    2[COMMON] unsigned short 
  4667 ;;  linum           1    4[COMMON] unsigned char 
  4668 ;; Auto vars:     Size  Location     Type
  4669 ;;  line            1    7[COMMON] PTR unsigned char 
  4670 ;;		 -> suc(14), rng(16), chk(16), pschng(17), 
  4671 ;;		 -> new(15), old(15), 
  4672 ;;  i               2    8[COMMON] unsigned short 
  4673 ;;  ch              1   10[COMMON] unsigned char 
  4674 ;; Return value:  Size  Location     Type
  4675 ;;                  1    wreg      unsigned char 
  4676 ;; Registers used:
  4677 ;;		wreg, fsr0l, fsr0h, status,2, status,0, pclath, cstack
  4678 ;; Tracked objects:
  4679 ;;		On entry : 0/0
  4680 ;;		On exit  : 0/0
  4681 ;;		Unchanged: 0/0
  4682 ;; Data sizes:     COMMON   BANK0   BANK1   BANK3   BANK2
  4683 ;;      Params:         3       0       0       0       0
  4684 ;;      Locals:         4       0       0       0       0
  4685 ;;      Temps:          2       0       0       0       0
  4686 ;;      Totals:         9       0       0       0       0
  4687 ;;Total ram usage:        9 bytes
  4688 ;; Hardware stack levels used:    1
  4689 ;; Hardware stack levels required when called:    1
  4690 ;; This function calls:
  4691 ;;		i1_chk_bf
  4692 ;; This function is called by:
  4693 ;;		_spec_func2
  4694 ;;		_isr
  4695 ;; This function uses a non-reentrant model
  4696 ;;
  4697                           
  4698                           
  4699                           ;psect for function _disp
  4700  0AE8                     _disp:	
  4701                           
  4702                           ;incstack = 0
  4703                           ; Regs used in _disp: [wreg-fsr0h+status,2+status,0+pclath+cstack]
  4704                           ;disp@line stored from wreg
  4705  0AE8  00F7               	movwf	disp@line
  4706                           
  4707                           ;ST7066U_4bit.c: 177: unsigned short int i;
  4708                           ;ST7066U_4bit.c: 178: char ch;
  4709                           ;ST7066U_4bit.c: 179: bf_fails = 0x00;
  4710  0AE9  1283               	bcf	3,5	;RP0=0, select bank0
  4711  0AEA  1303               	bcf	3,6	;RP1=0, select bank0
  4712  0AEB  01DB               	clrf	_bf_fails
  4713  0AEC                     i1l3325:	
  4714                           ;ST7066U_4bit.c: 180: while(chk_bf() == 1)
  4715                           
  4716  0AEC  160A  118A  2690   	fcall	i1_chk_bf
      +       120A  158A         
  4717  0AF1  3A01               	xorlw	1
  4718  0AF2  1D03               	btfss	3,2
  4719  0AF3  2B05               	goto	i1l339
  4720                           
  4721                           ;ST7066U_4bit.c: 181: {
  4722                           ;ST7066U_4bit.c: 182: _delay((unsigned long)((80)*(4000000/4000000.0)));
  4723  0AF4  301A               	movlw	26
  4724  0AF5  00F5               	movwf	??_disp
  4725  0AF6                     u343_27:	
  4726  0AF6  0BF5               	decfsz	??_disp,f
  4727  0AF7  2AF6               	goto	u343_27
  4728  0AF8  0000               	nop
  4729                           
  4730                           ;ST7066U_4bit.c: 183: ++bf_fails;
  4731  0AF9  3001               	movlw	1
  4732  0AFA  00F5               	movwf	??_disp
  4733  0AFB  0875               	movf	??_disp,w
  4734  0AFC  1283               	bcf	3,5	;RP0=0, select bank0
  4735  0AFD  1303               	bcf	3,6	;RP1=0, select bank0
  4736  0AFE  07DB               	addwf	_bf_fails,f
  4737                           
  4738                           ;ST7066U_4bit.c: 184: if(bf_fails >= 25)
  4739  0AFF  3019               	movlw	25
  4740  0B00  025B               	subwf	_bf_fails,w
  4741  0B01  1C03               	skipc
  4742  0B02  2AEC               	goto	i1l3325
  4743                           
  4744                           ;ST7066U_4bit.c: 185: {
  4745                           ;ST7066U_4bit.c: 186: return 1;
  4746  0B03  3001               	movlw	1
  4747  0B04  0008               	return
  4748  0B05                     i1l339:	
  4749                           
  4750                           ;ST7066U_4bit.c: 187: }
  4751                           ;ST7066U_4bit.c: 188: }
  4752                           ;ST7066U_4bit.c: 189: RC1 = 0b0;
  4753  0B05  1283               	bcf	3,5	;RP0=0, select bank0
  4754  0B06  1303               	bcf	3,6	;RP1=0, select bank0
  4755  0B07  1087               	bcf	7,1	;volatile
  4756                           
  4757                           ;ST7066U_4bit.c: 190: RC2 = 0b0;
  4758  0B08  1107               	bcf	7,2	;volatile
  4759                           
  4760                           ;ST7066U_4bit.c: 191: PORTC &= 0x0F;
  4761  0B09  300F               	movlw	15
  4762  0B0A  00F5               	movwf	??_disp
  4763  0B0B  0875               	movf	??_disp,w
  4764  0B0C  0587               	andwf	7,f	;volatile
  4765                           
  4766                           ;ST7066U_4bit.c: 192: RC3 = 0b1;
  4767  0B0D  1587               	bsf	7,3	;volatile
  4768                           
  4769                           ;ST7066U_4bit.c: 193: _delay((unsigned long)((4)*(4000000/4000000.0)));
  4770  0B0E  2B0F               	nop2	;2 cycle nop
  4771  0B0F  2B10               	nop2	;2 cycle nop
  4772                           
  4773                           ;ST7066U_4bit.c: 194: RC3 = 0b0;
  4774  0B10  1283               	bcf	3,5	;RP0=0, select bank0
  4775  0B11  1303               	bcf	3,6	;RP1=0, select bank0
  4776  0B12  1187               	bcf	7,3	;volatile
  4777                           
  4778                           ;ST7066U_4bit.c: 195: _delay((unsigned long)((4)*(4000000/4000000.0)));
  4779  0B13  2B14               	nop2	;2 cycle nop
  4780  0B14  2B15               	nop2	;2 cycle nop
  4781                           
  4782                           ;ST7066U_4bit.c: 196: RC3 = 0b1;
  4783  0B15  1283               	bcf	3,5	;RP0=0, select bank0
  4784  0B16  1303               	bcf	3,6	;RP1=0, select bank0
  4785  0B17  1587               	bsf	7,3	;volatile
  4786                           
  4787                           ;ST7066U_4bit.c: 197: PORTC |= 0x10;
  4788  0B18  1607               	bsf	7,4	;volatile
  4789                           
  4790                           ;ST7066U_4bit.c: 198: _delay((unsigned long)((4)*(4000000/4000000.0)));
  4791  0B19  2B1A               	nop2	;2 cycle nop
  4792  0B1A  2B1B               	nop2	;2 cycle nop
  4793                           
  4794                           ;ST7066U_4bit.c: 199: RC3 = 0b0;
  4795  0B1B  1283               	bcf	3,5	;RP0=0, select bank0
  4796  0B1C  1303               	bcf	3,6	;RP1=0, select bank0
  4797  0B1D  1187               	bcf	7,3	;volatile
  4798                           
  4799                           ;ST7066U_4bit.c: 200: _delay((unsigned long)((2)*(4000000/4000.0)));
  4800  0B1E  3003               	movlw	3
  4801  0B1F  00F6               	movwf	??_disp+1
  4802  0B20  3097               	movlw	151
  4803  0B21  00F5               	movwf	??_disp
  4804  0B22                     u344_27:	
  4805  0B22  0BF5               	decfsz	??_disp,f
  4806  0B23  2B22               	goto	u344_27
  4807  0B24  0BF6               	decfsz	??_disp+1,f
  4808  0B25  2B22               	goto	u344_27
  4809  0B26  2B27               	nop2
  4810  0B27                     i1l3357:	
  4811                           ;ST7066U_4bit.c: 201: while(chk_bf() == 1)
  4812                           
  4813  0B27  160A  118A  2690   	fcall	i1_chk_bf
      +       120A  158A         
  4814  0B2C  3A01               	xorlw	1
  4815  0B2D  1D03               	btfss	3,2
  4816  0B2E  2B40               	goto	i1l3359
  4817                           
  4818                           ;ST7066U_4bit.c: 202: {
  4819                           ;ST7066U_4bit.c: 203: _delay((unsigned long)((80)*(4000000/4000000.0)));
  4820  0B2F  301A               	movlw	26
  4821  0B30  00F5               	movwf	??_disp
  4822  0B31                     u345_27:	
  4823  0B31  0BF5               	decfsz	??_disp,f
  4824  0B32  2B31               	goto	u345_27
  4825  0B33  0000               	nop
  4826                           
  4827                           ;ST7066U_4bit.c: 204: bf_fails++;
  4828  0B34  3001               	movlw	1
  4829  0B35  00F5               	movwf	??_disp
  4830  0B36  0875               	movf	??_disp,w
  4831  0B37  1283               	bcf	3,5	;RP0=0, select bank0
  4832  0B38  1303               	bcf	3,6	;RP1=0, select bank0
  4833  0B39  07DB               	addwf	_bf_fails,f
  4834                           
  4835                           ;ST7066U_4bit.c: 205: if(bf_fails >= 25)
  4836  0B3A  3019               	movlw	25
  4837  0B3B  025B               	subwf	_bf_fails,w
  4838  0B3C  1C03               	skipc
  4839  0B3D  2B27               	goto	i1l3357
  4840                           
  4841                           ;ST7066U_4bit.c: 206: {
  4842                           ;ST7066U_4bit.c: 207: return 1;
  4843  0B3E  3001               	movlw	1
  4844  0B3F  0008               	return
  4845  0B40                     i1l3359:	
  4846                           
  4847                           ;ST7066U_4bit.c: 208: }
  4848                           ;ST7066U_4bit.c: 209: }
  4849                           ;ST7066U_4bit.c: 210: PORTC &= 0x0F;
  4850  0B40  300F               	movlw	15
  4851  0B41  00F5               	movwf	??_disp
  4852  0B42  0875               	movf	??_disp,w
  4853  0B43  1283               	bcf	3,5	;RP0=0, select bank0
  4854  0B44  1303               	bcf	3,6	;RP1=0, select bank0
  4855  0B45  0587               	andwf	7,f	;volatile
  4856                           
  4857                           ;ST7066U_4bit.c: 211: RC3 = 0b1;
  4858  0B46  1587               	bsf	7,3	;volatile
  4859                           
  4860                           ;ST7066U_4bit.c: 212: _delay((unsigned long)((4)*(4000000/4000000.0)));
  4861  0B47  2B48               	nop2	;2 cycle nop
  4862  0B48  2B49               	nop2	;2 cycle nop
  4863                           
  4864                           ;ST7066U_4bit.c: 213: RC3 = 0b0;
  4865  0B49  1283               	bcf	3,5	;RP0=0, select bank0
  4866  0B4A  1303               	bcf	3,6	;RP1=0, select bank0
  4867  0B4B  1187               	bcf	7,3	;volatile
  4868                           
  4869                           ;ST7066U_4bit.c: 214: _delay((unsigned long)((4)*(4000000/4000000.0)));
  4870  0B4C  2B4D               	nop2	;2 cycle nop
  4871  0B4D  2B4E               	nop2	;2 cycle nop
  4872                           
  4873                           ;ST7066U_4bit.c: 215: RC3 = 0b1;
  4874  0B4E  1283               	bcf	3,5	;RP0=0, select bank0
  4875  0B4F  1303               	bcf	3,6	;RP1=0, select bank0
  4876  0B50  1587               	bsf	7,3	;volatile
  4877                           
  4878                           ;ST7066U_4bit.c: 216: PORTC |= 0xC0;
  4879  0B51  30C0               	movlw	192
  4880  0B52  00F5               	movwf	??_disp
  4881  0B53  0875               	movf	??_disp,w
  4882  0B54  0487               	iorwf	7,f	;volatile
  4883                           
  4884                           ;ST7066U_4bit.c: 217: _delay((unsigned long)((4)*(4000000/4000000.0)));
  4885  0B55  2B56               	nop2	;2 cycle nop
  4886  0B56  2B57               	nop2	;2 cycle nop
  4887                           
  4888                           ;ST7066U_4bit.c: 218: RC3 = 0b0;
  4889  0B57  1283               	bcf	3,5	;RP0=0, select bank0
  4890  0B58  1303               	bcf	3,6	;RP1=0, select bank0
  4891  0B59  1187               	bcf	7,3	;volatile
  4892                           
  4893                           ;ST7066U_4bit.c: 219: _delay((unsigned long)((40)*(4000000/4000000.0)));
  4894  0B5A  300D               	movlw	13
  4895  0B5B  00F5               	movwf	??_disp
  4896  0B5C                     u346_27:	
  4897  0B5C  0BF5               	decfsz	??_disp,f
  4898  0B5D  2B5C               	goto	u346_27
  4899                           
  4900                           ;ST7066U_4bit.c: 220: if(linum == 0x01)
  4901  0B5E  0874               	movf	disp@linum,w
  4902  0B5F  3A01               	xorlw	1
  4903  0B60  1903               	btfsc	3,2
  4904  0B61  2B74               	goto	i1l3391
  4905  0B62  2BA0               	goto	i1l344
  4906  0B63                     i1l3381:	
  4907                           ;ST7066U_4bit.c: 221: {
  4908                           ;ST7066U_4bit.c: 222: while(chk_bf() == 1)
  4909                           
  4910                           
  4911                           ;ST7066U_4bit.c: 223: {
  4912                           ;ST7066U_4bit.c: 224: _delay((unsigned long)((80)*(4000000/4000000.0)));
  4913  0B63  301A               	movlw	26
  4914  0B64  00F5               	movwf	??_disp
  4915  0B65                     u347_27:	
  4916  0B65  0BF5               	decfsz	??_disp,f
  4917  0B66  2B65               	goto	u347_27
  4918  0B67  0000               	nop
  4919                           
  4920                           ;ST7066U_4bit.c: 225: bf_fails++;
  4921  0B68  3001               	movlw	1
  4922  0B69  00F5               	movwf	??_disp
  4923  0B6A  0875               	movf	??_disp,w
  4924  0B6B  1283               	bcf	3,5	;RP0=0, select bank0
  4925  0B6C  1303               	bcf	3,6	;RP1=0, select bank0
  4926  0B6D  07DB               	addwf	_bf_fails,f
  4927                           
  4928                           ;ST7066U_4bit.c: 226: if(bf_fails >= 25)
  4929  0B6E  3019               	movlw	25
  4930  0B6F  025B               	subwf	_bf_fails,w
  4931  0B70  1C03               	skipc
  4932  0B71  2B74               	goto	i1l3391
  4933                           
  4934                           ;ST7066U_4bit.c: 227: {
  4935                           ;ST7066U_4bit.c: 228: return 1;
  4936  0B72  3001               	movlw	1
  4937  0B73  0008               	return
  4938  0B74                     i1l3391:	
  4939  0B74  160A  118A  2690   	fcall	i1_chk_bf
      +       120A  158A         
  4940  0B79  3A01               	xorlw	1
  4941  0B7A  1903               	skipnz
  4942  0B7B  2B63               	goto	i1l3381
  4943                           
  4944                           ;ST7066U_4bit.c: 229: }
  4945                           ;ST7066U_4bit.c: 230: }
  4946                           ;ST7066U_4bit.c: 231: RC1 = 0b0;
  4947  0B7C  1283               	bcf	3,5	;RP0=0, select bank0
  4948  0B7D  1303               	bcf	3,6	;RP1=0, select bank0
  4949  0B7E  1087               	bcf	7,1	;volatile
  4950                           
  4951                           ;ST7066U_4bit.c: 232: RC2 = 0b0;
  4952  0B7F  1107               	bcf	7,2	;volatile
  4953                           
  4954                           ;ST7066U_4bit.c: 233: PORTC &= 0x0F;
  4955  0B80  300F               	movlw	15
  4956  0B81  00F5               	movwf	??_disp
  4957  0B82  0875               	movf	??_disp,w
  4958  0B83  0587               	andwf	7,f	;volatile
  4959                           
  4960                           ;ST7066U_4bit.c: 234: RC3 = 0b1;
  4961  0B84  1587               	bsf	7,3	;volatile
  4962                           
  4963                           ;ST7066U_4bit.c: 235: PORTC |= 0xC0;
  4964  0B85  30C0               	movlw	192
  4965  0B86  00F5               	movwf	??_disp
  4966  0B87  0875               	movf	??_disp,w
  4967  0B88  0487               	iorwf	7,f	;volatile
  4968                           
  4969                           ;ST7066U_4bit.c: 236: _delay((unsigned long)((4)*(4000000/4000000.0)));
  4970  0B89  2B8A               	nop2	;2 cycle nop
  4971  0B8A  2B8B               	nop2	;2 cycle nop
  4972                           
  4973                           ;ST7066U_4bit.c: 237: RC3 = 0b0;
  4974  0B8B  1283               	bcf	3,5	;RP0=0, select bank0
  4975  0B8C  1303               	bcf	3,6	;RP1=0, select bank0
  4976  0B8D  1187               	bcf	7,3	;volatile
  4977                           
  4978                           ;ST7066U_4bit.c: 238: _delay((unsigned long)((4)*(4000000/4000000.0)));
  4979  0B8E  2B8F               	nop2	;2 cycle nop
  4980  0B8F  2B90               	nop2	;2 cycle nop
  4981                           
  4982                           ;ST7066U_4bit.c: 239: PORTC &= 0x0F;
  4983  0B90  300F               	movlw	15
  4984  0B91  00F5               	movwf	??_disp
  4985  0B92  0875               	movf	??_disp,w
  4986  0B93  1283               	bcf	3,5	;RP0=0, select bank0
  4987  0B94  1303               	bcf	3,6	;RP1=0, select bank0
  4988  0B95  0587               	andwf	7,f	;volatile
  4989                           
  4990                           ;ST7066U_4bit.c: 240: RC3 = 0b1;
  4991  0B96  1587               	bsf	7,3	;volatile
  4992                           
  4993                           ;ST7066U_4bit.c: 241: _delay((unsigned long)((4)*(4000000/4000000.0)));
  4994  0B97  2B98               	nop2	;2 cycle nop
  4995  0B98  2B99               	nop2	;2 cycle nop
  4996                           
  4997                           ;ST7066U_4bit.c: 242: RC3 = 0b0;
  4998  0B99  1283               	bcf	3,5	;RP0=0, select bank0
  4999  0B9A  1303               	bcf	3,6	;RP1=0, select bank0
  5000  0B9B  1187               	bcf	7,3	;volatile
  5001                           
  5002                           ;ST7066U_4bit.c: 243: _delay((unsigned long)((40)*(4000000/4000000.0)));
  5003  0B9C  300D               	movlw	13
  5004  0B9D  00F5               	movwf	??_disp
  5005  0B9E                     u348_27:	
  5006  0B9E  0BF5               	decfsz	??_disp,f
  5007  0B9F  2B9E               	goto	u348_27
  5008  0BA0                     i1l344:	
  5009                           
  5010                           ;ST7066U_4bit.c: 244: }
  5011                           ;ST7066U_4bit.c: 245: if(linum == 0x00)
  5012  0BA0  08F4               	movf	disp@linum,f
  5013  0BA1  1903               	btfsc	3,2
  5014  0BA2  2BB5               	goto	i1l3423
  5015  0BA3  2BDF               	goto	i1l3445
  5016  0BA4                     i1l3413:	
  5017                           ;ST7066U_4bit.c: 246: {
  5018                           ;ST7066U_4bit.c: 247: while(chk_bf() == 0b1)
  5019                           
  5020                           
  5021                           ;ST7066U_4bit.c: 248: {
  5022                           ;ST7066U_4bit.c: 249: _delay((unsigned long)((80)*(4000000/4000000.0)));
  5023  0BA4  301A               	movlw	26
  5024  0BA5  00F5               	movwf	??_disp
  5025  0BA6                     u349_27:	
  5026  0BA6  0BF5               	decfsz	??_disp,f
  5027  0BA7  2BA6               	goto	u349_27
  5028  0BA8  0000               	nop
  5029                           
  5030                           ;ST7066U_4bit.c: 250: ++bf_fails;
  5031  0BA9  3001               	movlw	1
  5032  0BAA  00F5               	movwf	??_disp
  5033  0BAB  0875               	movf	??_disp,w
  5034  0BAC  1283               	bcf	3,5	;RP0=0, select bank0
  5035  0BAD  1303               	bcf	3,6	;RP1=0, select bank0
  5036  0BAE  07DB               	addwf	_bf_fails,f
  5037                           
  5038                           ;ST7066U_4bit.c: 251: if(bf_fails >= 25)
  5039  0BAF  3019               	movlw	25
  5040  0BB0  025B               	subwf	_bf_fails,w
  5041  0BB1  1C03               	skipc
  5042  0BB2  2BB5               	goto	i1l3423
  5043                           
  5044                           ;ST7066U_4bit.c: 252: {
  5045                           ;ST7066U_4bit.c: 253: return 1;
  5046  0BB3  3001               	movlw	1
  5047  0BB4  0008               	return
  5048  0BB5                     i1l3423:	
  5049  0BB5  160A  118A  2690   	fcall	i1_chk_bf
      +       120A  158A         
  5050  0BBA  3A01               	xorlw	1
  5051  0BBB  1903               	skipnz
  5052  0BBC  2BA4               	goto	i1l3413
  5053                           
  5054                           ;ST7066U_4bit.c: 254: }
  5055                           ;ST7066U_4bit.c: 255: }
  5056                           ;ST7066U_4bit.c: 256: RC3 = 0b0;
  5057  0BBD  1283               	bcf	3,5	;RP0=0, select bank0
  5058  0BBE  1303               	bcf	3,6	;RP1=0, select bank0
  5059  0BBF  1187               	bcf	7,3	;volatile
  5060                           
  5061                           ;ST7066U_4bit.c: 257: RC1 = 0b0;
  5062  0BC0  1087               	bcf	7,1	;volatile
  5063                           
  5064                           ;ST7066U_4bit.c: 258: RC2 = 0b0;
  5065  0BC1  1107               	bcf	7,2	;volatile
  5066                           
  5067                           ;ST7066U_4bit.c: 259: PORTC &= 0x0F;
  5068  0BC2  300F               	movlw	15
  5069  0BC3  00F5               	movwf	??_disp
  5070  0BC4  0875               	movf	??_disp,w
  5071  0BC5  0587               	andwf	7,f	;volatile
  5072                           
  5073                           ;ST7066U_4bit.c: 260: RC3 = 0b1;
  5074  0BC6  1587               	bsf	7,3	;volatile
  5075                           
  5076                           ;ST7066U_4bit.c: 261: PORTC |= 0x80;
  5077  0BC7  1787               	bsf	7,7	;volatile
  5078                           
  5079                           ;ST7066U_4bit.c: 262: _delay((unsigned long)((4)*(4000000/4000000.0)));
  5080  0BC8  2BC9               	nop2	;2 cycle nop
  5081  0BC9  2BCA               	nop2	;2 cycle nop
  5082                           
  5083                           ;ST7066U_4bit.c: 263: RC3 = 0b0;
  5084  0BCA  1283               	bcf	3,5	;RP0=0, select bank0
  5085  0BCB  1303               	bcf	3,6	;RP1=0, select bank0
  5086  0BCC  1187               	bcf	7,3	;volatile
  5087                           
  5088                           ;ST7066U_4bit.c: 264: _delay((unsigned long)((4)*(4000000/4000000.0)));
  5089  0BCD  2BCE               	nop2	;2 cycle nop
  5090  0BCE  2BCF               	nop2	;2 cycle nop
  5091                           
  5092                           ;ST7066U_4bit.c: 265: PORTC &= 0x0F;
  5093  0BCF  300F               	movlw	15
  5094  0BD0  00F5               	movwf	??_disp
  5095  0BD1  0875               	movf	??_disp,w
  5096  0BD2  1283               	bcf	3,5	;RP0=0, select bank0
  5097  0BD3  1303               	bcf	3,6	;RP1=0, select bank0
  5098  0BD4  0587               	andwf	7,f	;volatile
  5099                           
  5100                           ;ST7066U_4bit.c: 266: RC3 = 0b1;
  5101  0BD5  1587               	bsf	7,3	;volatile
  5102                           
  5103                           ;ST7066U_4bit.c: 267: _delay((unsigned long)((4)*(4000000/4000000.0)));
  5104  0BD6  2BD7               	nop2	;2 cycle nop
  5105  0BD7  2BD8               	nop2	;2 cycle nop
  5106                           
  5107                           ;ST7066U_4bit.c: 268: RC3 = 0b0;
  5108  0BD8  1283               	bcf	3,5	;RP0=0, select bank0
  5109  0BD9  1303               	bcf	3,6	;RP1=0, select bank0
  5110  0BDA  1187               	bcf	7,3	;volatile
  5111                           
  5112                           ;ST7066U_4bit.c: 269: _delay((unsigned long)((40)*(4000000/4000000.0)));
  5113  0BDB  300D               	movlw	13
  5114  0BDC  00F5               	movwf	??_disp
  5115  0BDD                     u350_27:	
  5116  0BDD  0BF5               	decfsz	??_disp,f
  5117  0BDE  2BDD               	goto	u350_27
  5118  0BDF                     i1l3445:	
  5119                           
  5120                           ;ST7066U_4bit.c: 270: }
  5121                           ;ST7066U_4bit.c: 271: for(i = 0; i<cnt; i++)
  5122  0BDF  01F8               	clrf	disp@i
  5123  0BE0  01F9               	clrf	disp@i+1
  5124  0BE1                     i1l354:	
  5125  0BE1  0873               	movf	disp@cnt+1,w
  5126  0BE2  0279               	subwf	disp@i+1,w
  5127  0BE3  1D03               	skipz
  5128  0BE4  2BE7               	goto	u172_25
  5129  0BE5  0872               	movf	disp@cnt,w
  5130  0BE6  0278               	subwf	disp@i,w
  5131  0BE7                     u172_25:	
  5132  0BE7  1803               	btfsc	3,0
  5133  0BE8  2C4D               	goto	i1l360
  5134                           
  5135                           ;ST7066U_4bit.c: 272: {
  5136                           ;ST7066U_4bit.c: 273: bf_fails = 0x00;
  5137  0BE9  1283               	bcf	3,5	;RP0=0, select bank0
  5138  0BEA  1303               	bcf	3,6	;RP1=0, select bank0
  5139  0BEB  01DB               	clrf	_bf_fails
  5140  0BEC                     i1l3459:	
  5141                           ;ST7066U_4bit.c: 274: while(chk_bf() == 1)
  5142                           
  5143  0BEC  160A  118A  2690   	fcall	i1_chk_bf
      +       120A  158A         
  5144  0BF1  3A01               	xorlw	1
  5145  0BF2  1D03               	btfss	3,2
  5146  0BF3  2C05               	goto	i1l3461
  5147                           
  5148                           ;ST7066U_4bit.c: 275: {
  5149                           ;ST7066U_4bit.c: 276: _delay((unsigned long)((80)*(4000000/4000000.0)));
  5150  0BF4  301A               	movlw	26
  5151  0BF5  00F5               	movwf	??_disp
  5152  0BF6                     u351_27:	
  5153  0BF6  0BF5               	decfsz	??_disp,f
  5154  0BF7  2BF6               	goto	u351_27
  5155  0BF8  0000               	nop
  5156                           
  5157                           ;ST7066U_4bit.c: 277: ++bf_fails;
  5158  0BF9  3001               	movlw	1
  5159  0BFA  00F5               	movwf	??_disp
  5160  0BFB  0875               	movf	??_disp,w
  5161  0BFC  1283               	bcf	3,5	;RP0=0, select bank0
  5162  0BFD  1303               	bcf	3,6	;RP1=0, select bank0
  5163  0BFE  07DB               	addwf	_bf_fails,f
  5164                           
  5165                           ;ST7066U_4bit.c: 278: if(bf_fails >= 25)
  5166  0BFF  3019               	movlw	25
  5167  0C00  025B               	subwf	_bf_fails,w
  5168  0C01  1C03               	skipc
  5169  0C02  2BEC               	goto	i1l3459
  5170                           
  5171                           ;ST7066U_4bit.c: 279: {
  5172                           ;ST7066U_4bit.c: 280: return 1;
  5173  0C03  3001               	movlw	1
  5174  0C04  0008               	return
  5175  0C05                     i1l3461:	
  5176                           
  5177                           ;ST7066U_4bit.c: 281: }
  5178                           ;ST7066U_4bit.c: 282: }
  5179                           ;ST7066U_4bit.c: 283: ch = line[i];
  5180  0C05  0878               	movf	disp@i,w
  5181  0C06  0777               	addwf	disp@line,w
  5182  0C07  00F5               	movwf	??_disp
  5183  0C08  0875               	movf	??_disp,w
  5184  0C09  0084               	movwf	4
  5185  0C0A  1383               	bcf	3,7	;select IRP bank0
  5186  0C0B  0800               	movf	0,w
  5187  0C0C  00F6               	movwf	??_disp+1
  5188  0C0D  0876               	movf	??_disp+1,w
  5189  0C0E  00FA               	movwf	disp@ch
  5190                           
  5191                           ;ST7066U_4bit.c: 284: ch &= 0xF0;
  5192  0C0F  30F0               	movlw	240
  5193  0C10  00F5               	movwf	??_disp
  5194  0C11  0875               	movf	??_disp,w
  5195  0C12  05FA               	andwf	disp@ch,f
  5196                           
  5197                           ;ST7066U_4bit.c: 285: RC1 = 0b1;
  5198  0C13  1283               	bcf	3,5	;RP0=0, select bank0
  5199  0C14  1303               	bcf	3,6	;RP1=0, select bank0
  5200  0C15  1487               	bsf	7,1	;volatile
  5201                           
  5202                           ;ST7066U_4bit.c: 286: RC2 = 0b0;
  5203  0C16  1107               	bcf	7,2	;volatile
  5204                           
  5205                           ;ST7066U_4bit.c: 287: PORTC &= 0x0F;
  5206  0C17  300F               	movlw	15
  5207  0C18  00F5               	movwf	??_disp
  5208  0C19  0875               	movf	??_disp,w
  5209  0C1A  0587               	andwf	7,f	;volatile
  5210                           
  5211                           ;ST7066U_4bit.c: 288: RC3 = 0b1;
  5212  0C1B  1587               	bsf	7,3	;volatile
  5213                           
  5214                           ;ST7066U_4bit.c: 289: PORTC |= ch;
  5215  0C1C  087A               	movf	disp@ch,w
  5216  0C1D  00F5               	movwf	??_disp
  5217  0C1E  0875               	movf	??_disp,w
  5218  0C1F  0487               	iorwf	7,f	;volatile
  5219                           
  5220                           ;ST7066U_4bit.c: 290: _delay((unsigned long)((2)*(4000000/4000000.0)));
  5221  0C20  2C21               	nop2	;2 cycle nop
  5222                           
  5223                           ;ST7066U_4bit.c: 291: RC3 = 0b0;
  5224  0C21  1283               	bcf	3,5	;RP0=0, select bank0
  5225  0C22  1303               	bcf	3,6	;RP1=0, select bank0
  5226  0C23  1187               	bcf	7,3	;volatile
  5227                           
  5228                           ;ST7066U_4bit.c: 292: ch = line[i];
  5229  0C24  0878               	movf	disp@i,w
  5230  0C25  0777               	addwf	disp@line,w
  5231  0C26  00F5               	movwf	??_disp
  5232  0C27  0875               	movf	??_disp,w
  5233  0C28  0084               	movwf	4
  5234  0C29  1383               	bcf	3,7	;select IRP bank0
  5235  0C2A  0800               	movf	0,w
  5236  0C2B  00F6               	movwf	??_disp+1
  5237  0C2C  0876               	movf	??_disp+1,w
  5238  0C2D  00FA               	movwf	disp@ch
  5239                           
  5240                           ;ST7066U_4bit.c: 293: ch <<= 4;
  5241  0C2E  0EFA               	swapf	disp@ch,f
  5242  0C2F  30F0               	movlw	240
  5243  0C30  05FA               	andwf	disp@ch,f
  5244                           
  5245                           ;ST7066U_4bit.c: 294: ch &= 0xF0;
  5246  0C31  30F0               	movlw	240
  5247  0C32  00F5               	movwf	??_disp
  5248  0C33  0875               	movf	??_disp,w
  5249  0C34  05FA               	andwf	disp@ch,f
  5250                           
  5251                           ;ST7066U_4bit.c: 295: PORTC &= 0x0F;
  5252  0C35  300F               	movlw	15
  5253  0C36  00F5               	movwf	??_disp
  5254  0C37  0875               	movf	??_disp,w
  5255  0C38  0587               	andwf	7,f	;volatile
  5256                           
  5257                           ;ST7066U_4bit.c: 296: RC3 = 0b1;
  5258  0C39  1587               	bsf	7,3	;volatile
  5259                           
  5260                           ;ST7066U_4bit.c: 297: PORTC |= ch;
  5261  0C3A  087A               	movf	disp@ch,w
  5262  0C3B  00F5               	movwf	??_disp
  5263  0C3C  0875               	movf	??_disp,w
  5264  0C3D  0487               	iorwf	7,f	;volatile
  5265                           
  5266                           ;ST7066U_4bit.c: 298: _delay((unsigned long)((2)*(4000000/4000000.0)));
  5267  0C3E  2C3F               	nop2	;2 cycle nop
  5268                           
  5269                           ;ST7066U_4bit.c: 299: RC3 = 0b0;
  5270  0C3F  1283               	bcf	3,5	;RP0=0, select bank0
  5271  0C40  1303               	bcf	3,6	;RP1=0, select bank0
  5272  0C41  1187               	bcf	7,3	;volatile
  5273                           
  5274                           ;ST7066U_4bit.c: 300: _delay((unsigned long)((250)*(4000000/4000000.0)));
  5275  0C42  3053               	movlw	83
  5276  0C43  00F5               	movwf	??_disp
  5277  0C44                     u352_27:	
  5278  0C44  0BF5               	decfsz	??_disp,f
  5279  0C45  2C44               	goto	u352_27
  5280  0C46  3001               	movlw	1
  5281  0C47  07F8               	addwf	disp@i,f
  5282  0C48  1803               	skipnc
  5283  0C49  0AF9               	incf	disp@i+1,f
  5284  0C4A  3000               	movlw	0
  5285  0C4B  07F9               	addwf	disp@i+1,f
  5286  0C4C  2BE1               	goto	i1l354
  5287  0C4D                     i1l360:	
  5288                           
  5289                           ;ST7066U_4bit.c: 301: }
  5290                           ;ST7066U_4bit.c: 302: RA0 = 0b1;
  5291  0C4D  1283               	bcf	3,5	;RP0=0, select bank0
  5292  0C4E  1303               	bcf	3,6	;RP1=0, select bank0
  5293  0C4F  1405               	bsf	5,0	;volatile
  5294                           
  5295                           ;ST7066U_4bit.c: 303: return 0;
  5296  0C50  3000               	movlw	0
  5297  0C51  0008               	return
  5298  0C52                     __end_of_disp:	
  5299                           
  5300                           	psect	text10
  5301  003E                     __ptext10:	
  5302 ;; *************** function _read *****************
  5303 ;; Defined at:
  5304 ;;		line 35 in file "CarPassword.c"
  5305 ;; Parameters:    Size  Location     Type
  5306 ;;  inp             1    wreg     PTR volatile unsigned lo
  5307 ;;		 -> isr@input(4), 
  5308 ;; Auto vars:     Size  Location     Type
  5309 ;;  inp             1   13[COMMON] PTR volatile unsigned lo
  5310 ;;		 -> isr@input(4), 
  5311 ;; Return value:  Size  Location     Type
  5312 ;;                  1    wreg      unsigned char 
  5313 ;; Registers used:
  5314 ;;		wreg, fsr0l, fsr0h, status,2, status,0, pclath, cstack
  5315 ;; Tracked objects:
  5316 ;;		On entry : 0/0
  5317 ;;		On exit  : 0/0
  5318 ;;		Unchanged: 0/0
  5319 ;; Data sizes:     COMMON   BANK0   BANK1   BANK3   BANK2
  5320 ;;      Params:         0       0       0       0       0
  5321 ;;      Locals:         1       0       0       0       0
  5322 ;;      Temps:          0       2       0       0       0
  5323 ;;      Totals:         1       2       0       0       0
  5324 ;;Total ram usage:        3 bytes
  5325 ;; Hardware stack levels used:    1
  5326 ;; Hardware stack levels required when called:    2
  5327 ;; This function calls:
  5328 ;;		_spec_func1
  5329 ;;		_spec_func4
  5330 ;;		___lmul
  5331 ;;		i1_init
  5332 ;; This function is called by:
  5333 ;;		_spec_func2
  5334 ;; This function uses a non-reentrant model
  5335 ;;
  5336                           
  5337                           
  5338                           ;psect for function _read
  5339  003E                     _read:	
  5340                           
  5341                           ;incstack = 0
  5342                           ; Regs used in _read: [wreg-fsr0h+status,2+status,0+pclath+cstack]
  5343                           ;read@inp stored from wreg
  5344  003E  00FD               	movwf	read@inp
  5345                           
  5346                           ;CarPassword.c: 36: (*inp)=0;
  5347  003F  087D               	movf	read@inp,w
  5348  0040  0084               	movwf	4
  5349  0041  1383               	bcf	3,7	;select IRP bank0
  5350  0042  0180               	clrf	0
  5351  0043  0A84               	incf	4,f
  5352  0044  0180               	clrf	0
  5353  0045  0A84               	incf	4,f
  5354  0046  0180               	clrf	0
  5355  0047  0A84               	incf	4,f
  5356  0048  0180               	clrf	0
  5357  0049                     i1l3761:	
  5358                           ;CarPassword.c: 37: while(1)
  5359                           
  5360                           
  5361                           ;CarPassword.c: 38: {
  5362                           ;CarPassword.c: 39: PORTD = 0xFE;
  5363  0049  30FE               	movlw	254
  5364  004A  1283               	bcf	3,5	;RP0=0, select bank0
  5365  004B  1303               	bcf	3,6	;RP1=0, select bank0
  5366  004C  0088               	movwf	8	;volatile
  5367                           
  5368                           ;CarPassword.c: 40: if((PORTD & 0x10) == 0)
  5369  004D  1A08               	btfsc	8,4	;volatile
  5370  004E  2895               	goto	i1l137
  5371                           
  5372                           ;CarPassword.c: 41: {
  5373                           ;CarPassword.c: 42: RE0 = 0b1;
  5374  004F  1409               	bsf	9,0	;volatile
  5375                           
  5376                           ;CarPassword.c: 43: _delay((unsigned long)((150)*(4000000/4000.0)));
  5377  0050  30C3               	movlw	195
  5378  0051  00BF               	movwf	??_read+1
  5379  0052  30CD               	movlw	205
  5380  0053  00BE               	movwf	??_read
  5381  0054                     u353_27:	
  5382  0054  0BBE               	decfsz	??_read,f
  5383  0055  2854               	goto	u353_27
  5384  0056  0BBF               	decfsz	??_read+1,f
  5385  0057  2854               	goto	u353_27
  5386                           
  5387                           ;CarPassword.c: 44: _delay((unsigned long)((150)*(4000000/4000.0)));
  5388  0058  30C3               	movlw	195
  5389  0059  1283               	bcf	3,5	;RP0=0, select bank0
  5390  005A  1303               	bcf	3,6	;RP1=0, select bank0
  5391  005B  00BF               	movwf	??_read+1
  5392  005C  30CD               	movlw	205
  5393  005D  00BE               	movwf	??_read
  5394  005E                     u354_27:	
  5395  005E  0BBE               	decfsz	??_read,f
  5396  005F  285E               	goto	u354_27
  5397  0060  0BBF               	decfsz	??_read+1,f
  5398  0061  285E               	goto	u354_27
  5399                           
  5400                           ;CarPassword.c: 45: (*inp) *= (unsigned long int)10;
  5401  0062  3000               	movlw	0
  5402  0063  00F3               	movwf	?___lmul+3
  5403  0064  3000               	movlw	0
  5404  0065  00F2               	movwf	?___lmul+2
  5405  0066  3000               	movlw	0
  5406  0067  00F1               	movwf	?___lmul+1
  5407  0068  300A               	movlw	10
  5408  0069  00F0               	movwf	?___lmul
  5409  006A  087D               	movf	read@inp,w
  5410  006B  0084               	movwf	4
  5411  006C  1383               	bcf	3,7	;select IRP bank0
  5412  006D  0800               	movf	0,w
  5413  006E  00F4               	movwf	?___lmul+4
  5414  006F  0A84               	incf	4,f
  5415  0070  0800               	movf	0,w
  5416  0071  00F5               	movwf	?___lmul+5
  5417  0072  0A84               	incf	4,f
  5418  0073  0800               	movf	0,w
  5419  0074  00F6               	movwf	?___lmul+6
  5420  0075  0A84               	incf	4,f
  5421  0076  0800               	movf	0,w
  5422  0077  00F7               	movwf	?___lmul+7
  5423  0078  0804               	movf	4,w
  5424  0079  1283               	bcf	3,5	;RP0=0, select bank0
  5425  007A  1303               	bcf	3,6	;RP1=0, select bank0
  5426  007B  00BE               	movwf	??_read
  5427  007C  160A  118A  26F8   	fcall	___lmul
      +       120A  118A         
  5428  0081  1283               	bcf	3,5	;RP0=0, select bank0
  5429  0082  1303               	bcf	3,6	;RP1=0, select bank0
  5430  0083  083E               	movf	??_read,w
  5431  0084  0084               	movwf	4
  5432  0085  0873               	movf	?___lmul+3,w
  5433  0086  1383               	bcf	3,7	;select IRP bank0
  5434  0087  0080               	movwf	0
  5435  0088  0384               	decf	4,f
  5436  0089  0872               	movf	?___lmul+2,w
  5437  008A  0080               	movwf	0
  5438  008B  0384               	decf	4,f
  5439  008C  0871               	movf	?___lmul+1,w
  5440  008D  0080               	movwf	0
  5441  008E  0384               	decf	4,f
  5442  008F  0870               	movf	?___lmul,w
  5443  0090  0080               	movwf	0
  5444                           
  5445                           ;CarPassword.c: 46: (*inp) += 1;
  5446  0091  087D               	movf	read@inp,w
  5447  0092  0084               	movwf	4
  5448  0093  3001               	movlw	1
  5449  0094  2924               	goto	L6
  5450  0095                     i1l137:	
  5451                           ;CarPassword.c: 48: }
  5452                           
  5453                           ;CarPassword.c: 47: RE0 = 0b0;
  5454                           
  5455                           
  5456                           ;CarPassword.c: 49: else if((PORTD & 0x20) == 0)
  5457  0095  1A88               	btfsc	8,5	;volatile
  5458  0096  28DD               	goto	i1l139
  5459                           
  5460                           ;CarPassword.c: 50: {
  5461                           ;CarPassword.c: 51: RE0 = 0b1;
  5462  0097  1409               	bsf	9,0	;volatile
  5463                           
  5464                           ;CarPassword.c: 52: _delay((unsigned long)((150)*(4000000/4000.0)));
  5465  0098  30C3               	movlw	195
  5466  0099  00BF               	movwf	??_read+1
  5467  009A  30CD               	movlw	205
  5468  009B  00BE               	movwf	??_read
  5469  009C                     u355_27:	
  5470  009C  0BBE               	decfsz	??_read,f
  5471  009D  289C               	goto	u355_27
  5472  009E  0BBF               	decfsz	??_read+1,f
  5473  009F  289C               	goto	u355_27
  5474                           
  5475                           ;CarPassword.c: 53: _delay((unsigned long)((150)*(4000000/4000.0)));
  5476  00A0  30C3               	movlw	195
  5477  00A1  1283               	bcf	3,5	;RP0=0, select bank0
  5478  00A2  1303               	bcf	3,6	;RP1=0, select bank0
  5479  00A3  00BF               	movwf	??_read+1
  5480  00A4  30CD               	movlw	205
  5481  00A5  00BE               	movwf	??_read
  5482  00A6                     u356_27:	
  5483  00A6  0BBE               	decfsz	??_read,f
  5484  00A7  28A6               	goto	u356_27
  5485  00A8  0BBF               	decfsz	??_read+1,f
  5486  00A9  28A6               	goto	u356_27
  5487                           
  5488                           ;CarPassword.c: 54: (*inp) *= (unsigned long int)10;
  5489  00AA  3000               	movlw	0
  5490  00AB  00F3               	movwf	?___lmul+3
  5491  00AC  3000               	movlw	0
  5492  00AD  00F2               	movwf	?___lmul+2
  5493  00AE  3000               	movlw	0
  5494  00AF  00F1               	movwf	?___lmul+1
  5495  00B0  300A               	movlw	10
  5496  00B1  00F0               	movwf	?___lmul
  5497  00B2  087D               	movf	read@inp,w
  5498  00B3  0084               	movwf	4
  5499  00B4  1383               	bcf	3,7	;select IRP bank0
  5500  00B5  0800               	movf	0,w
  5501  00B6  00F4               	movwf	?___lmul+4
  5502  00B7  0A84               	incf	4,f
  5503  00B8  0800               	movf	0,w
  5504  00B9  00F5               	movwf	?___lmul+5
  5505  00BA  0A84               	incf	4,f
  5506  00BB  0800               	movf	0,w
  5507  00BC  00F6               	movwf	?___lmul+6
  5508  00BD  0A84               	incf	4,f
  5509  00BE  0800               	movf	0,w
  5510  00BF  00F7               	movwf	?___lmul+7
  5511  00C0  0804               	movf	4,w
  5512  00C1  1283               	bcf	3,5	;RP0=0, select bank0
  5513  00C2  1303               	bcf	3,6	;RP1=0, select bank0
  5514  00C3  00BE               	movwf	??_read
  5515  00C4  160A  118A  26F8   	fcall	___lmul
      +       120A  118A         
  5516  00C9  1283               	bcf	3,5	;RP0=0, select bank0
  5517  00CA  1303               	bcf	3,6	;RP1=0, select bank0
  5518  00CB  083E               	movf	??_read,w
  5519  00CC  0084               	movwf	4
  5520  00CD  0873               	movf	?___lmul+3,w
  5521  00CE  1383               	bcf	3,7	;select IRP bank0
  5522  00CF  0080               	movwf	0
  5523  00D0  0384               	decf	4,f
  5524  00D1  0872               	movf	?___lmul+2,w
  5525  00D2  0080               	movwf	0
  5526  00D3  0384               	decf	4,f
  5527  00D4  0871               	movf	?___lmul+1,w
  5528  00D5  0080               	movwf	0
  5529  00D6  0384               	decf	4,f
  5530  00D7  0870               	movf	?___lmul,w
  5531  00D8  0080               	movwf	0
  5532                           
  5533                           ;CarPassword.c: 55: (*inp) += 4;
  5534  00D9  087D               	movf	read@inp,w
  5535  00DA  0084               	movwf	4
  5536  00DB  3004               	movlw	4
  5537  00DC  2924               	goto	L6
  5538  00DD                     i1l139:	
  5539                           ;CarPassword.c: 57: }
  5540                           
  5541                           ;CarPassword.c: 56: RE0 = 0b0;
  5542                           
  5543                           
  5544                           ;CarPassword.c: 58: else if((PORTD & 0x40) == 0)
  5545  00DD  1B08               	btfsc	8,6	;volatile
  5546  00DE  2938               	goto	i1l141
  5547                           
  5548                           ;CarPassword.c: 59: {
  5549                           ;CarPassword.c: 60: RE0 = 0b1;
  5550  00DF  1409               	bsf	9,0	;volatile
  5551                           
  5552                           ;CarPassword.c: 61: _delay((unsigned long)((150)*(4000000/4000.0)));
  5553  00E0  30C3               	movlw	195
  5554  00E1  00BF               	movwf	??_read+1
  5555  00E2  30CD               	movlw	205
  5556  00E3  00BE               	movwf	??_read
  5557  00E4                     u357_27:	
  5558  00E4  0BBE               	decfsz	??_read,f
  5559  00E5  28E4               	goto	u357_27
  5560  00E6  0BBF               	decfsz	??_read+1,f
  5561  00E7  28E4               	goto	u357_27
  5562                           
  5563                           ;CarPassword.c: 62: _delay((unsigned long)((150)*(4000000/4000.0)));
  5564  00E8  30C3               	movlw	195
  5565  00E9  1283               	bcf	3,5	;RP0=0, select bank0
  5566  00EA  1303               	bcf	3,6	;RP1=0, select bank0
  5567  00EB  00BF               	movwf	??_read+1
  5568  00EC  30CD               	movlw	205
  5569  00ED  00BE               	movwf	??_read
  5570  00EE                     u358_27:	
  5571  00EE  0BBE               	decfsz	??_read,f
  5572  00EF  28EE               	goto	u358_27
  5573  00F0  0BBF               	decfsz	??_read+1,f
  5574  00F1  28EE               	goto	u358_27
  5575                           
  5576                           ;CarPassword.c: 63: (*inp) *= (unsigned long int)10;
  5577  00F2  3000               	movlw	0
  5578  00F3  00F3               	movwf	?___lmul+3
  5579  00F4  3000               	movlw	0
  5580  00F5  00F2               	movwf	?___lmul+2
  5581  00F6  3000               	movlw	0
  5582  00F7  00F1               	movwf	?___lmul+1
  5583  00F8  300A               	movlw	10
  5584  00F9  00F0               	movwf	?___lmul
  5585  00FA  087D               	movf	read@inp,w
  5586  00FB  0084               	movwf	4
  5587  00FC  1383               	bcf	3,7	;select IRP bank0
  5588  00FD  0800               	movf	0,w
  5589  00FE  00F4               	movwf	?___lmul+4
  5590  00FF  0A84               	incf	4,f
  5591  0100  0800               	movf	0,w
  5592  0101  00F5               	movwf	?___lmul+5
  5593  0102  0A84               	incf	4,f
  5594  0103  0800               	movf	0,w
  5595  0104  00F6               	movwf	?___lmul+6
  5596  0105  0A84               	incf	4,f
  5597  0106  0800               	movf	0,w
  5598  0107  00F7               	movwf	?___lmul+7
  5599  0108  0804               	movf	4,w
  5600  0109  1283               	bcf	3,5	;RP0=0, select bank0
  5601  010A  1303               	bcf	3,6	;RP1=0, select bank0
  5602  010B  00BE               	movwf	??_read
  5603  010C  160A  118A  26F8   	fcall	___lmul
      +       120A  118A         
  5604  0111  1283               	bcf	3,5	;RP0=0, select bank0
  5605  0112  1303               	bcf	3,6	;RP1=0, select bank0
  5606  0113  083E               	movf	??_read,w
  5607  0114  0084               	movwf	4
  5608  0115  0873               	movf	?___lmul+3,w
  5609  0116  1383               	bcf	3,7	;select IRP bank0
  5610  0117  0080               	movwf	0
  5611  0118  0384               	decf	4,f
  5612  0119  0872               	movf	?___lmul+2,w
  5613  011A  0080               	movwf	0
  5614  011B  0384               	decf	4,f
  5615  011C  0871               	movf	?___lmul+1,w
  5616  011D  0080               	movwf	0
  5617  011E  0384               	decf	4,f
  5618  011F  0870               	movf	?___lmul,w
  5619  0120  0080               	movwf	0
  5620                           
  5621                           ;CarPassword.c: 64: (*inp) += 7;
  5622  0121  087D               	movf	read@inp,w
  5623  0122  0084               	movwf	4
  5624  0123  3007               	movlw	7
  5625  0124                     L6:	
  5626  0124  0780               	addwf	0,f
  5627  0125  0A84               	incf	4,f
  5628  0126  3000               	movlw	0
  5629  0127  1803               	skipnc
  5630  0128  3E01               	addlw	1
  5631  0129  1D03               	skipz
  5632  012A  0780               	addwf	0,f
  5633  012B  0A84               	incf	4,f
  5634  012C  3000               	movlw	0
  5635  012D  1803               	skipnc
  5636  012E  3E01               	addlw	1
  5637  012F  1D03               	skipz
  5638  0130  0780               	addwf	0,f
  5639  0131  0A84               	incf	4,f
  5640  0132  3000               	movlw	0
  5641  0133  1803               	skipnc
  5642  0134  3E01               	addlw	1
  5643  0135  0780               	addwf	0,f
  5644                           
  5645                           ;CarPassword.c: 65: RE0 = 0b0;
  5646  0136  1009               	bcf	9,0	;volatile
  5647                           
  5648                           ;CarPassword.c: 66: }
  5649  0137  2951               	goto	i1l3803
  5650  0138                     i1l141:	
  5651                           
  5652                           ;CarPassword.c: 67: else if((PORTD & 0x80) == 0)
  5653  0138  1B88               	btfsc	8,7	;volatile
  5654  0139  2951               	goto	i1l3803
  5655                           
  5656                           ;CarPassword.c: 68: {
  5657                           ;CarPassword.c: 69: RE0 = 0b1;
  5658  013A  1409               	bsf	9,0	;volatile
  5659                           
  5660                           ;CarPassword.c: 70: _delay((unsigned long)((150)*(4000000/4000.0)));
  5661  013B  30C3               	movlw	195
  5662  013C  00BF               	movwf	??_read+1
  5663  013D  30CD               	movlw	205
  5664  013E  00BE               	movwf	??_read
  5665  013F                     u359_27:	
  5666  013F  0BBE               	decfsz	??_read,f
  5667  0140  293F               	goto	u359_27
  5668  0141  0BBF               	decfsz	??_read+1,f
  5669  0142  293F               	goto	u359_27
  5670                           
  5671                           ;CarPassword.c: 71: _delay((unsigned long)((150)*(4000000/4000.0)));
  5672  0143  30C3               	movlw	195
  5673  0144  1283               	bcf	3,5	;RP0=0, select bank0
  5674  0145  1303               	bcf	3,6	;RP1=0, select bank0
  5675  0146  00BF               	movwf	??_read+1
  5676  0147  30CD               	movlw	205
  5677  0148  00BE               	movwf	??_read
  5678  0149                     u360_27:	
  5679  0149  0BBE               	decfsz	??_read,f
  5680  014A  2949               	goto	u360_27
  5681  014B  0BBF               	decfsz	??_read+1,f
  5682  014C  2949               	goto	u360_27
  5683                           
  5684                           ;CarPassword.c: 72: RE0 = 0b0;
  5685  014D  1283               	bcf	3,5	;RP0=0, select bank0
  5686  014E  1303               	bcf	3,6	;RP1=0, select bank0
  5687  014F  1009               	bcf	9,0	;volatile
  5688                           
  5689                           ;CarPassword.c: 73: return '*';
  5690                           ;	Return value of _read is never used
  5691  0150  0008               	return
  5692  0151                     i1l3803:	
  5693                           
  5694                           ;CarPassword.c: 74: }
  5695                           ;CarPassword.c: 75: PORTD = 0xFD;
  5696  0151  30FD               	movlw	253
  5697  0152  0088               	movwf	8	;volatile
  5698                           
  5699                           ;CarPassword.c: 76: if((PORTD & 0x10) == 0)
  5700  0153  1A08               	btfsc	8,4	;volatile
  5701  0154  299B               	goto	i1l145
  5702                           
  5703                           ;CarPassword.c: 77: {
  5704                           ;CarPassword.c: 78: RE0 = 0b1;
  5705  0155  1409               	bsf	9,0	;volatile
  5706                           
  5707                           ;CarPassword.c: 79: _delay((unsigned long)((150)*(4000000/4000.0)));
  5708  0156  30C3               	movlw	195
  5709  0157  00BF               	movwf	??_read+1
  5710  0158  30CD               	movlw	205
  5711  0159  00BE               	movwf	??_read
  5712  015A                     u361_27:	
  5713  015A  0BBE               	decfsz	??_read,f
  5714  015B  295A               	goto	u361_27
  5715  015C  0BBF               	decfsz	??_read+1,f
  5716  015D  295A               	goto	u361_27
  5717                           
  5718                           ;CarPassword.c: 80: _delay((unsigned long)((150)*(4000000/4000.0)));
  5719  015E  30C3               	movlw	195
  5720  015F  1283               	bcf	3,5	;RP0=0, select bank0
  5721  0160  1303               	bcf	3,6	;RP1=0, select bank0
  5722  0161  00BF               	movwf	??_read+1
  5723  0162  30CD               	movlw	205
  5724  0163  00BE               	movwf	??_read
  5725  0164                     u362_27:	
  5726  0164  0BBE               	decfsz	??_read,f
  5727  0165  2964               	goto	u362_27
  5728  0166  0BBF               	decfsz	??_read+1,f
  5729  0167  2964               	goto	u362_27
  5730                           
  5731                           ;CarPassword.c: 81: (*inp) *= (unsigned long int)10;
  5732  0168  3000               	movlw	0
  5733  0169  00F3               	movwf	?___lmul+3
  5734  016A  3000               	movlw	0
  5735  016B  00F2               	movwf	?___lmul+2
  5736  016C  3000               	movlw	0
  5737  016D  00F1               	movwf	?___lmul+1
  5738  016E  300A               	movlw	10
  5739  016F  00F0               	movwf	?___lmul
  5740  0170  087D               	movf	read@inp,w
  5741  0171  0084               	movwf	4
  5742  0172  1383               	bcf	3,7	;select IRP bank0
  5743  0173  0800               	movf	0,w
  5744  0174  00F4               	movwf	?___lmul+4
  5745  0175  0A84               	incf	4,f
  5746  0176  0800               	movf	0,w
  5747  0177  00F5               	movwf	?___lmul+5
  5748  0178  0A84               	incf	4,f
  5749  0179  0800               	movf	0,w
  5750  017A  00F6               	movwf	?___lmul+6
  5751  017B  0A84               	incf	4,f
  5752  017C  0800               	movf	0,w
  5753  017D  00F7               	movwf	?___lmul+7
  5754  017E  0804               	movf	4,w
  5755  017F  1283               	bcf	3,5	;RP0=0, select bank0
  5756  0180  1303               	bcf	3,6	;RP1=0, select bank0
  5757  0181  00BE               	movwf	??_read
  5758  0182  160A  118A  26F8   	fcall	___lmul
      +       120A  118A         
  5759  0187  1283               	bcf	3,5	;RP0=0, select bank0
  5760  0188  1303               	bcf	3,6	;RP1=0, select bank0
  5761  0189  083E               	movf	??_read,w
  5762  018A  0084               	movwf	4
  5763  018B  0873               	movf	?___lmul+3,w
  5764  018C  1383               	bcf	3,7	;select IRP bank0
  5765  018D  0080               	movwf	0
  5766  018E  0384               	decf	4,f
  5767  018F  0872               	movf	?___lmul+2,w
  5768  0190  0080               	movwf	0
  5769  0191  0384               	decf	4,f
  5770  0192  0871               	movf	?___lmul+1,w
  5771  0193  0080               	movwf	0
  5772  0194  0384               	decf	4,f
  5773  0195  0870               	movf	?___lmul,w
  5774  0196  0080               	movwf	0
  5775                           
  5776                           ;CarPassword.c: 82: (*inp) += 2;
  5777  0197  087D               	movf	read@inp,w
  5778  0198  0084               	movwf	4
  5779  0199  3002               	movlw	2
  5780  019A  2A2A               	goto	L8
  5781  019B                     i1l145:	
  5782                           ;CarPassword.c: 84: }
  5783                           
  5784                           ;CarPassword.c: 83: RE0 = 0b0;
  5785                           
  5786                           
  5787                           ;CarPassword.c: 85: else if((PORTD & 0x20) == 0)
  5788  019B  1A88               	btfsc	8,5	;volatile
  5789  019C  29E3               	goto	i1l147
  5790                           
  5791                           ;CarPassword.c: 86: {
  5792                           ;CarPassword.c: 87: RE0 = 0b1;
  5793  019D  1409               	bsf	9,0	;volatile
  5794                           
  5795                           ;CarPassword.c: 88: _delay((unsigned long)((150)*(4000000/4000.0)));
  5796  019E  30C3               	movlw	195
  5797  019F  00BF               	movwf	??_read+1
  5798  01A0  30CD               	movlw	205
  5799  01A1  00BE               	movwf	??_read
  5800  01A2                     u363_27:	
  5801  01A2  0BBE               	decfsz	??_read,f
  5802  01A3  29A2               	goto	u363_27
  5803  01A4  0BBF               	decfsz	??_read+1,f
  5804  01A5  29A2               	goto	u363_27
  5805                           
  5806                           ;CarPassword.c: 89: _delay((unsigned long)((150)*(4000000/4000.0)));
  5807  01A6  30C3               	movlw	195
  5808  01A7  1283               	bcf	3,5	;RP0=0, select bank0
  5809  01A8  1303               	bcf	3,6	;RP1=0, select bank0
  5810  01A9  00BF               	movwf	??_read+1
  5811  01AA  30CD               	movlw	205
  5812  01AB  00BE               	movwf	??_read
  5813  01AC                     u364_27:	
  5814  01AC  0BBE               	decfsz	??_read,f
  5815  01AD  29AC               	goto	u364_27
  5816  01AE  0BBF               	decfsz	??_read+1,f
  5817  01AF  29AC               	goto	u364_27
  5818                           
  5819                           ;CarPassword.c: 90: (*inp) *= (unsigned long int)10;
  5820  01B0  3000               	movlw	0
  5821  01B1  00F3               	movwf	?___lmul+3
  5822  01B2  3000               	movlw	0
  5823  01B3  00F2               	movwf	?___lmul+2
  5824  01B4  3000               	movlw	0
  5825  01B5  00F1               	movwf	?___lmul+1
  5826  01B6  300A               	movlw	10
  5827  01B7  00F0               	movwf	?___lmul
  5828  01B8  087D               	movf	read@inp,w
  5829  01B9  0084               	movwf	4
  5830  01BA  1383               	bcf	3,7	;select IRP bank0
  5831  01BB  0800               	movf	0,w
  5832  01BC  00F4               	movwf	?___lmul+4
  5833  01BD  0A84               	incf	4,f
  5834  01BE  0800               	movf	0,w
  5835  01BF  00F5               	movwf	?___lmul+5
  5836  01C0  0A84               	incf	4,f
  5837  01C1  0800               	movf	0,w
  5838  01C2  00F6               	movwf	?___lmul+6
  5839  01C3  0A84               	incf	4,f
  5840  01C4  0800               	movf	0,w
  5841  01C5  00F7               	movwf	?___lmul+7
  5842  01C6  0804               	movf	4,w
  5843  01C7  1283               	bcf	3,5	;RP0=0, select bank0
  5844  01C8  1303               	bcf	3,6	;RP1=0, select bank0
  5845  01C9  00BE               	movwf	??_read
  5846  01CA  160A  118A  26F8   	fcall	___lmul
      +       120A  118A         
  5847  01CF  1283               	bcf	3,5	;RP0=0, select bank0
  5848  01D0  1303               	bcf	3,6	;RP1=0, select bank0
  5849  01D1  083E               	movf	??_read,w
  5850  01D2  0084               	movwf	4
  5851  01D3  0873               	movf	?___lmul+3,w
  5852  01D4  1383               	bcf	3,7	;select IRP bank0
  5853  01D5  0080               	movwf	0
  5854  01D6  0384               	decf	4,f
  5855  01D7  0872               	movf	?___lmul+2,w
  5856  01D8  0080               	movwf	0
  5857  01D9  0384               	decf	4,f
  5858  01DA  0871               	movf	?___lmul+1,w
  5859  01DB  0080               	movwf	0
  5860  01DC  0384               	decf	4,f
  5861  01DD  0870               	movf	?___lmul,w
  5862  01DE  0080               	movwf	0
  5863                           
  5864                           ;CarPassword.c: 91: (*inp) += 5;
  5865  01DF  087D               	movf	read@inp,w
  5866  01E0  0084               	movwf	4
  5867  01E1  3005               	movlw	5
  5868  01E2  2A2A               	goto	L8
  5869  01E3                     i1l147:	
  5870                           ;CarPassword.c: 93: }
  5871                           
  5872                           ;CarPassword.c: 92: RE0 = 0b0;
  5873                           
  5874                           
  5875                           ;CarPassword.c: 94: else if((PORTD & 0x40) == 0)
  5876  01E3  1B08               	btfsc	8,6	;volatile
  5877  01E4  2A3D               	goto	i1l149
  5878                           
  5879                           ;CarPassword.c: 95: {
  5880                           ;CarPassword.c: 96: RE0 = 0b1;
  5881  01E5  1409               	bsf	9,0	;volatile
  5882                           
  5883                           ;CarPassword.c: 97: _delay((unsigned long)((150)*(4000000/4000.0)));
  5884  01E6  30C3               	movlw	195
  5885  01E7  00BF               	movwf	??_read+1
  5886  01E8  30CD               	movlw	205
  5887  01E9  00BE               	movwf	??_read
  5888  01EA                     u365_27:	
  5889  01EA  0BBE               	decfsz	??_read,f
  5890  01EB  29EA               	goto	u365_27
  5891  01EC  0BBF               	decfsz	??_read+1,f
  5892  01ED  29EA               	goto	u365_27
  5893                           
  5894                           ;CarPassword.c: 98: _delay((unsigned long)((150)*(4000000/4000.0)));
  5895  01EE  30C3               	movlw	195
  5896  01EF  1283               	bcf	3,5	;RP0=0, select bank0
  5897  01F0  1303               	bcf	3,6	;RP1=0, select bank0
  5898  01F1  00BF               	movwf	??_read+1
  5899  01F2  30CD               	movlw	205
  5900  01F3  00BE               	movwf	??_read
  5901  01F4                     u366_27:	
  5902  01F4  0BBE               	decfsz	??_read,f
  5903  01F5  29F4               	goto	u366_27
  5904  01F6  0BBF               	decfsz	??_read+1,f
  5905  01F7  29F4               	goto	u366_27
  5906                           
  5907                           ;CarPassword.c: 99: (*inp) *= (unsigned long int)10;
  5908  01F8  3000               	movlw	0
  5909  01F9  00F3               	movwf	?___lmul+3
  5910  01FA  3000               	movlw	0
  5911  01FB  00F2               	movwf	?___lmul+2
  5912  01FC  3000               	movlw	0
  5913  01FD  00F1               	movwf	?___lmul+1
  5914  01FE  300A               	movlw	10
  5915  01FF  00F0               	movwf	?___lmul
  5916  0200  087D               	movf	read@inp,w
  5917  0201  0084               	movwf	4
  5918  0202  1383               	bcf	3,7	;select IRP bank0
  5919  0203  0800               	movf	0,w
  5920  0204  00F4               	movwf	?___lmul+4
  5921  0205  0A84               	incf	4,f
  5922  0206  0800               	movf	0,w
  5923  0207  00F5               	movwf	?___lmul+5
  5924  0208  0A84               	incf	4,f
  5925  0209  0800               	movf	0,w
  5926  020A  00F6               	movwf	?___lmul+6
  5927  020B  0A84               	incf	4,f
  5928  020C  0800               	movf	0,w
  5929  020D  00F7               	movwf	?___lmul+7
  5930  020E  0804               	movf	4,w
  5931  020F  1283               	bcf	3,5	;RP0=0, select bank0
  5932  0210  1303               	bcf	3,6	;RP1=0, select bank0
  5933  0211  00BE               	movwf	??_read
  5934  0212  160A  118A  26F8   	fcall	___lmul
      +       120A  118A         
  5935  0217  1283               	bcf	3,5	;RP0=0, select bank0
  5936  0218  1303               	bcf	3,6	;RP1=0, select bank0
  5937  0219  083E               	movf	??_read,w
  5938  021A  0084               	movwf	4
  5939  021B  0873               	movf	?___lmul+3,w
  5940  021C  1383               	bcf	3,7	;select IRP bank0
  5941  021D  0080               	movwf	0
  5942  021E  0384               	decf	4,f
  5943  021F  0872               	movf	?___lmul+2,w
  5944  0220  0080               	movwf	0
  5945  0221  0384               	decf	4,f
  5946  0222  0871               	movf	?___lmul+1,w
  5947  0223  0080               	movwf	0
  5948  0224  0384               	decf	4,f
  5949  0225  0870               	movf	?___lmul,w
  5950  0226  0080               	movwf	0
  5951                           
  5952                           ;CarPassword.c: 100: (*inp) += 8;
  5953  0227  087D               	movf	read@inp,w
  5954  0228  0084               	movwf	4
  5955  0229  3008               	movlw	8
  5956  022A                     L8:	
  5957  022A  0780               	addwf	0,f
  5958  022B  0A84               	incf	4,f
  5959  022C  3000               	movlw	0
  5960  022D  1803               	skipnc
  5961  022E  3E01               	addlw	1
  5962  022F  1D03               	skipz
  5963  0230  0780               	addwf	0,f
  5964  0231  0A84               	incf	4,f
  5965  0232  3000               	movlw	0
  5966  0233  1803               	skipnc
  5967  0234  3E01               	addlw	1
  5968  0235  1D03               	skipz
  5969  0236  0780               	addwf	0,f
  5970  0237  0A84               	incf	4,f
  5971  0238  3000               	movlw	0
  5972  0239  1803               	skipnc
  5973  023A  3E01               	addlw	1
  5974  023B  0780               	addwf	0,f
  5975  023C  2A81               	goto	i1l3843
  5976  023D                     i1l149:	
  5977                           ;CarPassword.c: 102: }
  5978                           
  5979                           ;CarPassword.c: 101: RE0 = 0b0;
  5980                           
  5981                           
  5982                           ;CarPassword.c: 103: else if((PORTD & 0x80) == 0)
  5983  023D  1B88               	btfsc	8,7	;volatile
  5984  023E  2A82               	goto	i1l3845
  5985                           
  5986                           ;CarPassword.c: 104: {
  5987                           ;CarPassword.c: 105: RE0 = 0b1;
  5988  023F  1409               	bsf	9,0	;volatile
  5989                           
  5990                           ;CarPassword.c: 106: _delay((unsigned long)((150)*(4000000/4000.0)));
  5991  0240  30C3               	movlw	195
  5992  0241  00BF               	movwf	??_read+1
  5993  0242  30CD               	movlw	205
  5994  0243  00BE               	movwf	??_read
  5995  0244                     u367_27:	
  5996  0244  0BBE               	decfsz	??_read,f
  5997  0245  2A44               	goto	u367_27
  5998  0246  0BBF               	decfsz	??_read+1,f
  5999  0247  2A44               	goto	u367_27
  6000                           
  6001                           ;CarPassword.c: 107: _delay((unsigned long)((150)*(4000000/4000.0)));
  6002  0248  30C3               	movlw	195
  6003  0249  1283               	bcf	3,5	;RP0=0, select bank0
  6004  024A  1303               	bcf	3,6	;RP1=0, select bank0
  6005  024B  00BF               	movwf	??_read+1
  6006  024C  30CD               	movlw	205
  6007  024D  00BE               	movwf	??_read
  6008  024E                     u368_27:	
  6009  024E  0BBE               	decfsz	??_read,f
  6010  024F  2A4E               	goto	u368_27
  6011  0250  0BBF               	decfsz	??_read+1,f
  6012  0251  2A4E               	goto	u368_27
  6013                           
  6014                           ;CarPassword.c: 108: (*inp) *= (unsigned long int)10;
  6015  0252  3000               	movlw	0
  6016  0253  00F3               	movwf	?___lmul+3
  6017  0254  3000               	movlw	0
  6018  0255  00F2               	movwf	?___lmul+2
  6019  0256  3000               	movlw	0
  6020  0257  00F1               	movwf	?___lmul+1
  6021  0258  300A               	movlw	10
  6022  0259  00F0               	movwf	?___lmul
  6023  025A  087D               	movf	read@inp,w
  6024  025B  0084               	movwf	4
  6025  025C  1383               	bcf	3,7	;select IRP bank0
  6026  025D  0800               	movf	0,w
  6027  025E  00F4               	movwf	?___lmul+4
  6028  025F  0A84               	incf	4,f
  6029  0260  0800               	movf	0,w
  6030  0261  00F5               	movwf	?___lmul+5
  6031  0262  0A84               	incf	4,f
  6032  0263  0800               	movf	0,w
  6033  0264  00F6               	movwf	?___lmul+6
  6034  0265  0A84               	incf	4,f
  6035  0266  0800               	movf	0,w
  6036  0267  00F7               	movwf	?___lmul+7
  6037  0268  0804               	movf	4,w
  6038  0269  1283               	bcf	3,5	;RP0=0, select bank0
  6039  026A  1303               	bcf	3,6	;RP1=0, select bank0
  6040  026B  00BE               	movwf	??_read
  6041  026C  160A  118A  26F8   	fcall	___lmul
      +       120A  118A         
  6042  0271  1283               	bcf	3,5	;RP0=0, select bank0
  6043  0272  1303               	bcf	3,6	;RP1=0, select bank0
  6044  0273  083E               	movf	??_read,w
  6045  0274  0084               	movwf	4
  6046  0275  0873               	movf	?___lmul+3,w
  6047  0276  1383               	bcf	3,7	;select IRP bank0
  6048  0277  0080               	movwf	0
  6049  0278  0384               	decf	4,f
  6050  0279  0872               	movf	?___lmul+2,w
  6051  027A  0080               	movwf	0
  6052  027B  0384               	decf	4,f
  6053  027C  0871               	movf	?___lmul+1,w
  6054  027D  0080               	movwf	0
  6055  027E  0384               	decf	4,f
  6056  027F  0870               	movf	?___lmul,w
  6057  0280  0080               	movwf	0
  6058  0281                     i1l3843:	
  6059                           
  6060                           ;CarPassword.c: 109: RE0 = 0b0;
  6061  0281  1009               	bcf	9,0	;volatile
  6062  0282                     i1l3845:	
  6063                           
  6064                           ;CarPassword.c: 110: }
  6065                           ;CarPassword.c: 111: PORTD = 0xFB;
  6066  0282  30FB               	movlw	251
  6067  0283  0088               	movwf	8	;volatile
  6068                           
  6069                           ;CarPassword.c: 112: if((PORTD & 0x10) == 0)
  6070  0284  1A08               	btfsc	8,4	;volatile
  6071  0285  2ACC               	goto	i1l152
  6072                           
  6073                           ;CarPassword.c: 113: {
  6074                           ;CarPassword.c: 114: RE0 = 0b1;
  6075  0286  1409               	bsf	9,0	;volatile
  6076                           
  6077                           ;CarPassword.c: 115: _delay((unsigned long)((150)*(4000000/4000.0)));
  6078  0287  30C3               	movlw	195
  6079  0288  00BF               	movwf	??_read+1
  6080  0289  30CD               	movlw	205
  6081  028A  00BE               	movwf	??_read
  6082  028B                     u369_27:	
  6083  028B  0BBE               	decfsz	??_read,f
  6084  028C  2A8B               	goto	u369_27
  6085  028D  0BBF               	decfsz	??_read+1,f
  6086  028E  2A8B               	goto	u369_27
  6087                           
  6088                           ;CarPassword.c: 116: _delay((unsigned long)((150)*(4000000/4000.0)));
  6089  028F  30C3               	movlw	195
  6090  0290  1283               	bcf	3,5	;RP0=0, select bank0
  6091  0291  1303               	bcf	3,6	;RP1=0, select bank0
  6092  0292  00BF               	movwf	??_read+1
  6093  0293  30CD               	movlw	205
  6094  0294  00BE               	movwf	??_read
  6095  0295                     u370_27:	
  6096  0295  0BBE               	decfsz	??_read,f
  6097  0296  2A95               	goto	u370_27
  6098  0297  0BBF               	decfsz	??_read+1,f
  6099  0298  2A95               	goto	u370_27
  6100                           
  6101                           ;CarPassword.c: 117: (*inp) *= (unsigned long int)10;
  6102  0299  3000               	movlw	0
  6103  029A  00F3               	movwf	?___lmul+3
  6104  029B  3000               	movlw	0
  6105  029C  00F2               	movwf	?___lmul+2
  6106  029D  3000               	movlw	0
  6107  029E  00F1               	movwf	?___lmul+1
  6108  029F  300A               	movlw	10
  6109  02A0  00F0               	movwf	?___lmul
  6110  02A1  087D               	movf	read@inp,w
  6111  02A2  0084               	movwf	4
  6112  02A3  1383               	bcf	3,7	;select IRP bank0
  6113  02A4  0800               	movf	0,w
  6114  02A5  00F4               	movwf	?___lmul+4
  6115  02A6  0A84               	incf	4,f
  6116  02A7  0800               	movf	0,w
  6117  02A8  00F5               	movwf	?___lmul+5
  6118  02A9  0A84               	incf	4,f
  6119  02AA  0800               	movf	0,w
  6120  02AB  00F6               	movwf	?___lmul+6
  6121  02AC  0A84               	incf	4,f
  6122  02AD  0800               	movf	0,w
  6123  02AE  00F7               	movwf	?___lmul+7
  6124  02AF  0804               	movf	4,w
  6125  02B0  1283               	bcf	3,5	;RP0=0, select bank0
  6126  02B1  1303               	bcf	3,6	;RP1=0, select bank0
  6127  02B2  00BE               	movwf	??_read
  6128  02B3  160A  118A  26F8   	fcall	___lmul
      +       120A  118A         
  6129  02B8  1283               	bcf	3,5	;RP0=0, select bank0
  6130  02B9  1303               	bcf	3,6	;RP1=0, select bank0
  6131  02BA  083E               	movf	??_read,w
  6132  02BB  0084               	movwf	4
  6133  02BC  0873               	movf	?___lmul+3,w
  6134  02BD  1383               	bcf	3,7	;select IRP bank0
  6135  02BE  0080               	movwf	0
  6136  02BF  0384               	decf	4,f
  6137  02C0  0872               	movf	?___lmul+2,w
  6138  02C1  0080               	movwf	0
  6139  02C2  0384               	decf	4,f
  6140  02C3  0871               	movf	?___lmul+1,w
  6141  02C4  0080               	movwf	0
  6142  02C5  0384               	decf	4,f
  6143  02C6  0870               	movf	?___lmul,w
  6144  02C7  0080               	movwf	0
  6145                           
  6146                           ;CarPassword.c: 118: (*inp) += 3;
  6147  02C8  087D               	movf	read@inp,w
  6148  02C9  0084               	movwf	4
  6149  02CA  3003               	movlw	3
  6150  02CB  2B5B               	goto	L7
  6151  02CC                     i1l152:	
  6152                           ;CarPassword.c: 120: }
  6153                           
  6154                           ;CarPassword.c: 119: RE0 = 0b0;
  6155                           
  6156                           
  6157                           ;CarPassword.c: 121: else if((PORTD & 0x20) == 0)
  6158  02CC  1A88               	btfsc	8,5	;volatile
  6159  02CD  2B14               	goto	i1l154
  6160                           
  6161                           ;CarPassword.c: 122: {
  6162                           ;CarPassword.c: 123: RE0 = 0b1;
  6163  02CE  1409               	bsf	9,0	;volatile
  6164                           
  6165                           ;CarPassword.c: 124: _delay((unsigned long)((150)*(4000000/4000.0)));
  6166  02CF  30C3               	movlw	195
  6167  02D0  00BF               	movwf	??_read+1
  6168  02D1  30CD               	movlw	205
  6169  02D2  00BE               	movwf	??_read
  6170  02D3                     u371_27:	
  6171  02D3  0BBE               	decfsz	??_read,f
  6172  02D4  2AD3               	goto	u371_27
  6173  02D5  0BBF               	decfsz	??_read+1,f
  6174  02D6  2AD3               	goto	u371_27
  6175                           
  6176                           ;CarPassword.c: 125: _delay((unsigned long)((150)*(4000000/4000.0)));
  6177  02D7  30C3               	movlw	195
  6178  02D8  1283               	bcf	3,5	;RP0=0, select bank0
  6179  02D9  1303               	bcf	3,6	;RP1=0, select bank0
  6180  02DA  00BF               	movwf	??_read+1
  6181  02DB  30CD               	movlw	205
  6182  02DC  00BE               	movwf	??_read
  6183  02DD                     u372_27:	
  6184  02DD  0BBE               	decfsz	??_read,f
  6185  02DE  2ADD               	goto	u372_27
  6186  02DF  0BBF               	decfsz	??_read+1,f
  6187  02E0  2ADD               	goto	u372_27
  6188                           
  6189                           ;CarPassword.c: 126: (*inp) *= (unsigned long int)10;
  6190  02E1  3000               	movlw	0
  6191  02E2  00F3               	movwf	?___lmul+3
  6192  02E3  3000               	movlw	0
  6193  02E4  00F2               	movwf	?___lmul+2
  6194  02E5  3000               	movlw	0
  6195  02E6  00F1               	movwf	?___lmul+1
  6196  02E7  300A               	movlw	10
  6197  02E8  00F0               	movwf	?___lmul
  6198  02E9  087D               	movf	read@inp,w
  6199  02EA  0084               	movwf	4
  6200  02EB  1383               	bcf	3,7	;select IRP bank0
  6201  02EC  0800               	movf	0,w
  6202  02ED  00F4               	movwf	?___lmul+4
  6203  02EE  0A84               	incf	4,f
  6204  02EF  0800               	movf	0,w
  6205  02F0  00F5               	movwf	?___lmul+5
  6206  02F1  0A84               	incf	4,f
  6207  02F2  0800               	movf	0,w
  6208  02F3  00F6               	movwf	?___lmul+6
  6209  02F4  0A84               	incf	4,f
  6210  02F5  0800               	movf	0,w
  6211  02F6  00F7               	movwf	?___lmul+7
  6212  02F7  0804               	movf	4,w
  6213  02F8  1283               	bcf	3,5	;RP0=0, select bank0
  6214  02F9  1303               	bcf	3,6	;RP1=0, select bank0
  6215  02FA  00BE               	movwf	??_read
  6216  02FB  160A  118A  26F8   	fcall	___lmul
      +       120A  118A         
  6217  0300  1283               	bcf	3,5	;RP0=0, select bank0
  6218  0301  1303               	bcf	3,6	;RP1=0, select bank0
  6219  0302  083E               	movf	??_read,w
  6220  0303  0084               	movwf	4
  6221  0304  0873               	movf	?___lmul+3,w
  6222  0305  1383               	bcf	3,7	;select IRP bank0
  6223  0306  0080               	movwf	0
  6224  0307  0384               	decf	4,f
  6225  0308  0872               	movf	?___lmul+2,w
  6226  0309  0080               	movwf	0
  6227  030A  0384               	decf	4,f
  6228  030B  0871               	movf	?___lmul+1,w
  6229  030C  0080               	movwf	0
  6230  030D  0384               	decf	4,f
  6231  030E  0870               	movf	?___lmul,w
  6232  030F  0080               	movwf	0
  6233                           
  6234                           ;CarPassword.c: 127: (*inp) += 6;
  6235  0310  087D               	movf	read@inp,w
  6236  0311  0084               	movwf	4
  6237  0312  3006               	movlw	6
  6238  0313  2B5B               	goto	L7
  6239  0314                     i1l154:	
  6240                           ;CarPassword.c: 129: }
  6241                           
  6242                           ;CarPassword.c: 128: RE0 = 0b0;
  6243                           
  6244                           
  6245                           ;CarPassword.c: 130: else if((PORTD & 0x40) == 0)
  6246  0314  1B08               	btfsc	8,6	;volatile
  6247  0315  2B6F               	goto	i1l156
  6248                           
  6249                           ;CarPassword.c: 131: {
  6250                           ;CarPassword.c: 132: RE0 = 0b1;
  6251  0316  1409               	bsf	9,0	;volatile
  6252                           
  6253                           ;CarPassword.c: 133: _delay((unsigned long)((150)*(4000000/4000.0)));
  6254  0317  30C3               	movlw	195
  6255  0318  00BF               	movwf	??_read+1
  6256  0319  30CD               	movlw	205
  6257  031A  00BE               	movwf	??_read
  6258  031B                     u373_27:	
  6259  031B  0BBE               	decfsz	??_read,f
  6260  031C  2B1B               	goto	u373_27
  6261  031D  0BBF               	decfsz	??_read+1,f
  6262  031E  2B1B               	goto	u373_27
  6263                           
  6264                           ;CarPassword.c: 134: _delay((unsigned long)((150)*(4000000/4000.0)));
  6265  031F  30C3               	movlw	195
  6266  0320  1283               	bcf	3,5	;RP0=0, select bank0
  6267  0321  1303               	bcf	3,6	;RP1=0, select bank0
  6268  0322  00BF               	movwf	??_read+1
  6269  0323  30CD               	movlw	205
  6270  0324  00BE               	movwf	??_read
  6271  0325                     u374_27:	
  6272  0325  0BBE               	decfsz	??_read,f
  6273  0326  2B25               	goto	u374_27
  6274  0327  0BBF               	decfsz	??_read+1,f
  6275  0328  2B25               	goto	u374_27
  6276                           
  6277                           ;CarPassword.c: 135: (*inp) *= (unsigned long int)10;
  6278  0329  3000               	movlw	0
  6279  032A  00F3               	movwf	?___lmul+3
  6280  032B  3000               	movlw	0
  6281  032C  00F2               	movwf	?___lmul+2
  6282  032D  3000               	movlw	0
  6283  032E  00F1               	movwf	?___lmul+1
  6284  032F  300A               	movlw	10
  6285  0330  00F0               	movwf	?___lmul
  6286  0331  087D               	movf	read@inp,w
  6287  0332  0084               	movwf	4
  6288  0333  1383               	bcf	3,7	;select IRP bank0
  6289  0334  0800               	movf	0,w
  6290  0335  00F4               	movwf	?___lmul+4
  6291  0336  0A84               	incf	4,f
  6292  0337  0800               	movf	0,w
  6293  0338  00F5               	movwf	?___lmul+5
  6294  0339  0A84               	incf	4,f
  6295  033A  0800               	movf	0,w
  6296  033B  00F6               	movwf	?___lmul+6
  6297  033C  0A84               	incf	4,f
  6298  033D  0800               	movf	0,w
  6299  033E  00F7               	movwf	?___lmul+7
  6300  033F  0804               	movf	4,w
  6301  0340  1283               	bcf	3,5	;RP0=0, select bank0
  6302  0341  1303               	bcf	3,6	;RP1=0, select bank0
  6303  0342  00BE               	movwf	??_read
  6304  0343  160A  118A  26F8   	fcall	___lmul
      +       120A  118A         
  6305  0348  1283               	bcf	3,5	;RP0=0, select bank0
  6306  0349  1303               	bcf	3,6	;RP1=0, select bank0
  6307  034A  083E               	movf	??_read,w
  6308  034B  0084               	movwf	4
  6309  034C  0873               	movf	?___lmul+3,w
  6310  034D  1383               	bcf	3,7	;select IRP bank0
  6311  034E  0080               	movwf	0
  6312  034F  0384               	decf	4,f
  6313  0350  0872               	movf	?___lmul+2,w
  6314  0351  0080               	movwf	0
  6315  0352  0384               	decf	4,f
  6316  0353  0871               	movf	?___lmul+1,w
  6317  0354  0080               	movwf	0
  6318  0355  0384               	decf	4,f
  6319  0356  0870               	movf	?___lmul,w
  6320  0357  0080               	movwf	0
  6321                           
  6322                           ;CarPassword.c: 136: (*inp) += 9;
  6323  0358  087D               	movf	read@inp,w
  6324  0359  0084               	movwf	4
  6325  035A  3009               	movlw	9
  6326  035B                     L7:	
  6327  035B  0780               	addwf	0,f
  6328  035C  0A84               	incf	4,f
  6329  035D  3000               	movlw	0
  6330  035E  1803               	skipnc
  6331  035F  3E01               	addlw	1
  6332  0360  1D03               	skipz
  6333  0361  0780               	addwf	0,f
  6334  0362  0A84               	incf	4,f
  6335  0363  3000               	movlw	0
  6336  0364  1803               	skipnc
  6337  0365  3E01               	addlw	1
  6338  0366  1D03               	skipz
  6339  0367  0780               	addwf	0,f
  6340  0368  0A84               	incf	4,f
  6341  0369  3000               	movlw	0
  6342  036A  1803               	skipnc
  6343  036B  3E01               	addlw	1
  6344  036C  0780               	addwf	0,f
  6345                           
  6346                           ;CarPassword.c: 137: RE0 = 0b0;
  6347  036D  1009               	bcf	9,0	;volatile
  6348                           
  6349                           ;CarPassword.c: 138: }
  6350  036E  2B88               	goto	i1l3887
  6351  036F                     i1l156:	
  6352                           
  6353                           ;CarPassword.c: 139: else if((PORTD & 0x80) == 0)
  6354  036F  1B88               	btfsc	8,7	;volatile
  6355  0370  2B88               	goto	i1l3887
  6356                           
  6357                           ;CarPassword.c: 140: {
  6358                           ;CarPassword.c: 141: RE0 = 0b1;
  6359  0371  1409               	bsf	9,0	;volatile
  6360                           
  6361                           ;CarPassword.c: 142: _delay((unsigned long)((150)*(4000000/4000.0)));
  6362  0372  30C3               	movlw	195
  6363  0373  00BF               	movwf	??_read+1
  6364  0374  30CD               	movlw	205
  6365  0375  00BE               	movwf	??_read
  6366  0376                     u375_27:	
  6367  0376  0BBE               	decfsz	??_read,f
  6368  0377  2B76               	goto	u375_27
  6369  0378  0BBF               	decfsz	??_read+1,f
  6370  0379  2B76               	goto	u375_27
  6371                           
  6372                           ;CarPassword.c: 143: _delay((unsigned long)((150)*(4000000/4000.0)));
  6373  037A  30C3               	movlw	195
  6374  037B  1283               	bcf	3,5	;RP0=0, select bank0
  6375  037C  1303               	bcf	3,6	;RP1=0, select bank0
  6376  037D  00BF               	movwf	??_read+1
  6377  037E  30CD               	movlw	205
  6378  037F  00BE               	movwf	??_read
  6379  0380                     u376_27:	
  6380  0380  0BBE               	decfsz	??_read,f
  6381  0381  2B80               	goto	u376_27
  6382  0382  0BBF               	decfsz	??_read+1,f
  6383  0383  2B80               	goto	u376_27
  6384                           
  6385                           ;CarPassword.c: 144: RE0 = 0b0;
  6386  0384  1283               	bcf	3,5	;RP0=0, select bank0
  6387  0385  1303               	bcf	3,6	;RP1=0, select bank0
  6388  0386  1009               	bcf	9,0	;volatile
  6389                           
  6390                           ;CarPassword.c: 145: return '#';
  6391                           ;	Return value of _read is never used
  6392  0387  0008               	return
  6393  0388                     i1l3887:	
  6394                           
  6395                           ;CarPassword.c: 146: }
  6396                           ;CarPassword.c: 147: PORTD = 0xF7;
  6397  0388  30F7               	movlw	247
  6398  0389  0088               	movwf	8	;volatile
  6399                           
  6400                           ;CarPassword.c: 148: if((PORTD & 0x10) == 0)
  6401  038A  1A08               	btfsc	8,4	;volatile
  6402  038B  2BA7               	goto	i1l159
  6403                           
  6404                           ;CarPassword.c: 149: {
  6405                           ;CarPassword.c: 150: RE0 = 0b1;
  6406  038C  1409               	bsf	9,0	;volatile
  6407                           
  6408                           ;CarPassword.c: 151: _delay((unsigned long)((150)*(4000000/4000.0)));
  6409  038D  30C3               	movlw	195
  6410  038E  00BF               	movwf	??_read+1
  6411  038F  30CD               	movlw	205
  6412  0390  00BE               	movwf	??_read
  6413  0391                     u377_27:	
  6414  0391  0BBE               	decfsz	??_read,f
  6415  0392  2B91               	goto	u377_27
  6416  0393  0BBF               	decfsz	??_read+1,f
  6417  0394  2B91               	goto	u377_27
  6418                           
  6419                           ;CarPassword.c: 152: _delay((unsigned long)((150)*(4000000/4000.0)));
  6420  0395  30C3               	movlw	195
  6421  0396  1283               	bcf	3,5	;RP0=0, select bank0
  6422  0397  1303               	bcf	3,6	;RP1=0, select bank0
  6423  0398  00BF               	movwf	??_read+1
  6424  0399  30CD               	movlw	205
  6425  039A  00BE               	movwf	??_read
  6426  039B                     u378_27:	
  6427  039B  0BBE               	decfsz	??_read,f
  6428  039C  2B9B               	goto	u378_27
  6429  039D  0BBF               	decfsz	??_read+1,f
  6430  039E  2B9B               	goto	u378_27
  6431                           
  6432                           ;CarPassword.c: 153: RE0 = 0b0;
  6433  039F  1283               	bcf	3,5	;RP0=0, select bank0
  6434  03A0  1303               	bcf	3,6	;RP1=0, select bank0
  6435  03A1  1009               	bcf	9,0	;volatile
  6436                           
  6437                           ;CarPassword.c: 154: return spec_func1(inp);
  6438                           ;	Return value of _read is never used
  6439  03A2  087D               	movf	read@inp,w
  6440  03A3  160A  118A  263C   	fcall	_spec_func1
  6441  03A6  0008               	return
  6442  03A7                     i1l159:	
  6443                           ;CarPassword.c: 155: }
  6444                           
  6445                           
  6446                           ;CarPassword.c: 156: else if((PORTD & 0x40) == 0)
  6447  03A7  1B08               	btfsc	8,6	;volatile
  6448  03A8  2C03               	goto	i1l161
  6449                           
  6450                           ;CarPassword.c: 157: {
  6451                           ;CarPassword.c: 158: RE0 = 0b1;
  6452  03A9  1409               	bsf	9,0	;volatile
  6453                           
  6454                           ;CarPassword.c: 159: _delay((unsigned long)((150)*(4000000/4000.0)));
  6455  03AA  30C3               	movlw	195
  6456  03AB  00BF               	movwf	??_read+1
  6457  03AC  30CD               	movlw	205
  6458  03AD  00BE               	movwf	??_read
  6459  03AE                     u379_27:	
  6460  03AE  0BBE               	decfsz	??_read,f
  6461  03AF  2BAE               	goto	u379_27
  6462  03B0  0BBF               	decfsz	??_read+1,f
  6463  03B1  2BAE               	goto	u379_27
  6464                           
  6465                           ;CarPassword.c: 160: _delay((unsigned long)((150)*(4000000/4000.0)));
  6466  03B2  30C3               	movlw	195
  6467  03B3  1283               	bcf	3,5	;RP0=0, select bank0
  6468  03B4  1303               	bcf	3,6	;RP1=0, select bank0
  6469  03B5  00BF               	movwf	??_read+1
  6470  03B6  30CD               	movlw	205
  6471  03B7  00BE               	movwf	??_read
  6472  03B8                     u380_27:	
  6473  03B8  0BBE               	decfsz	??_read,f
  6474  03B9  2BB8               	goto	u380_27
  6475  03BA  0BBF               	decfsz	??_read+1,f
  6476  03BB  2BB8               	goto	u380_27
  6477                           
  6478                           ;CarPassword.c: 161: RE0 = 0b0;
  6479  03BC  1283               	bcf	3,5	;RP0=0, select bank0
  6480  03BD  1303               	bcf	3,6	;RP1=0, select bank0
  6481  03BE  1009               	bcf	9,0	;volatile
  6482                           
  6483                           ;CarPassword.c: 162: RA2 = 0b0;
  6484  03BF  1105               	bcf	5,2	;volatile
  6485                           
  6486                           ;CarPassword.c: 163: _delay((unsigned long)((197)*(4000000/4000.0)));
  6487  03C0  3000               	movlw	0
  6488  03C1  00BF               	movwf	??_read+1
  6489  03C2  30D7               	movlw	215
  6490  03C3  00BE               	movwf	??_read
  6491  03C4                     u381_27:	
  6492  03C4  0BBE               	decfsz	??_read,f
  6493  03C5  2BC4               	goto	u381_27
  6494  03C6  0BBF               	decfsz	??_read+1,f
  6495  03C7  2BC4               	goto	u381_27
  6496                           
  6497                           ;CarPassword.c: 164: _delay((unsigned long)((197)*(4000000/4000.0)));
  6498  03C8  3000               	movlw	0
  6499  03C9  1283               	bcf	3,5	;RP0=0, select bank0
  6500  03CA  1303               	bcf	3,6	;RP1=0, select bank0
  6501  03CB  00BF               	movwf	??_read+1
  6502  03CC  30D7               	movlw	215
  6503  03CD  00BE               	movwf	??_read
  6504  03CE                     u382_27:	
  6505  03CE  0BBE               	decfsz	??_read,f
  6506  03CF  2BCE               	goto	u382_27
  6507  03D0  0BBF               	decfsz	??_read+1,f
  6508  03D1  2BCE               	goto	u382_27
  6509                           
  6510                           ;CarPassword.c: 165: _delay((unsigned long)((197)*(4000000/4000.0)));
  6511  03D2  3000               	movlw	0
  6512  03D3  1283               	bcf	3,5	;RP0=0, select bank0
  6513  03D4  1303               	bcf	3,6	;RP1=0, select bank0
  6514  03D5  00BF               	movwf	??_read+1
  6515  03D6  30D7               	movlw	215
  6516  03D7  00BE               	movwf	??_read
  6517  03D8                     u383_27:	
  6518  03D8  0BBE               	decfsz	??_read,f
  6519  03D9  2BD8               	goto	u383_27
  6520  03DA  0BBF               	decfsz	??_read+1,f
  6521  03DB  2BD8               	goto	u383_27
  6522                           
  6523                           ;CarPassword.c: 166: _delay((unsigned long)((197)*(4000000/4000.0)));
  6524  03DC  3000               	movlw	0
  6525  03DD  1283               	bcf	3,5	;RP0=0, select bank0
  6526  03DE  1303               	bcf	3,6	;RP1=0, select bank0
  6527  03DF  00BF               	movwf	??_read+1
  6528  03E0  30D7               	movlw	215
  6529  03E1  00BE               	movwf	??_read
  6530  03E2                     u384_27:	
  6531  03E2  0BBE               	decfsz	??_read,f
  6532  03E3  2BE2               	goto	u384_27
  6533  03E4  0BBF               	decfsz	??_read+1,f
  6534  03E5  2BE2               	goto	u384_27
  6535                           
  6536                           ;CarPassword.c: 167: _delay((unsigned long)((197)*(4000000/4000.0)));
  6537  03E6  3000               	movlw	0
  6538  03E7  1283               	bcf	3,5	;RP0=0, select bank0
  6539  03E8  1303               	bcf	3,6	;RP1=0, select bank0
  6540  03E9  00BF               	movwf	??_read+1
  6541  03EA  30D7               	movlw	215
  6542  03EB  00BE               	movwf	??_read
  6543  03EC                     u385_27:	
  6544  03EC  0BBE               	decfsz	??_read,f
  6545  03ED  2BEC               	goto	u385_27
  6546  03EE  0BBF               	decfsz	??_read+1,f
  6547  03EF  2BEC               	goto	u385_27
  6548                           
  6549                           ;CarPassword.c: 168: RA2 = 0b1;
  6550  03F0  1283               	bcf	3,5	;RP0=0, select bank0
  6551  03F1  1303               	bcf	3,6	;RP1=0, select bank0
  6552  03F2  1505               	bsf	5,2	;volatile
  6553                           
  6554                           ;CarPassword.c: 169: if(init() == 0)
  6555  03F3  120A  158A  2039   	fcall	i1_init
      +       120A  118A         
  6556  03F8  3800               	iorlw	0
  6557  03F9  1D03               	skipz
  6558  03FA  2BFF               	goto	i1l162
  6559                           
  6560                           ;CarPassword.c: 170: RA5 = 0b0;
  6561  03FB  1283               	bcf	3,5	;RP0=0, select bank0
  6562  03FC  1303               	bcf	3,6	;RP1=0, select bank0
  6563  03FD  1285               	bcf	5,5	;volatile
  6564  03FE  0008               	return
  6565  03FF                     i1l162:	
  6566                           
  6567                           ;CarPassword.c: 171: else
  6568                           ;CarPassword.c: 172: RA5 = 0b1;
  6569  03FF  1283               	bcf	3,5	;RP0=0, select bank0
  6570  0400  1303               	bcf	3,6	;RP1=0, select bank0
  6571  0401  1685               	bsf	5,5	;volatile
  6572                           
  6573                           ;CarPassword.c: 173: return '\0';
  6574                           ;	Return value of _read is never used
  6575  0402  0008               	return
  6576  0403                     i1l161:	
  6577                           ;CarPassword.c: 174: }
  6578                           
  6579                           
  6580                           ;CarPassword.c: 175: else if((PORTD & 0x80) == 0)
  6581  0403  1B88               	btfsc	8,7	;volatile
  6582  0404  2849               	goto	i1l3761
  6583                           
  6584                           ;CarPassword.c: 176: {
  6585                           ;CarPassword.c: 177: RE0 = 0b1;
  6586  0405  1409               	bsf	9,0	;volatile
  6587                           
  6588                           ;CarPassword.c: 178: _delay((unsigned long)((150)*(4000000/4000.0)));
  6589  0406  30C3               	movlw	195
  6590  0407  00BF               	movwf	??_read+1
  6591  0408  30CD               	movlw	205
  6592  0409  00BE               	movwf	??_read
  6593  040A                     u386_27:	
  6594  040A  0BBE               	decfsz	??_read,f
  6595  040B  2C0A               	goto	u386_27
  6596  040C  0BBF               	decfsz	??_read+1,f
  6597  040D  2C0A               	goto	u386_27
  6598                           
  6599                           ;CarPassword.c: 179: _delay((unsigned long)((150)*(4000000/4000.0)));
  6600  040E  30C3               	movlw	195
  6601  040F  1283               	bcf	3,5	;RP0=0, select bank0
  6602  0410  1303               	bcf	3,6	;RP1=0, select bank0
  6603  0411  00BF               	movwf	??_read+1
  6604  0412  30CD               	movlw	205
  6605  0413  00BE               	movwf	??_read
  6606  0414                     u387_27:	
  6607  0414  0BBE               	decfsz	??_read,f
  6608  0415  2C14               	goto	u387_27
  6609  0416  0BBF               	decfsz	??_read+1,f
  6610  0417  2C14               	goto	u387_27
  6611                           
  6612                           ;CarPassword.c: 180: RE0 = 0b0;
  6613  0418  1283               	bcf	3,5	;RP0=0, select bank0
  6614  0419  1303               	bcf	3,6	;RP1=0, select bank0
  6615  041A  1009               	bcf	9,0	;volatile
  6616                           
  6617                           ;CarPassword.c: 181: return spec_func4(inp);
  6618                           ;	Return value of _read is never used
  6619  041B  087D               	movf	read@inp,w
  6620  041C  120A  158A  2000   	fcall	_spec_func4
  6621  041F  0008               	return
  6622  0420                     __end_of_read:	
  6623                           ;CarPassword.c: 182: }
  6624                           ;CarPassword.c: 183: }
  6625                           ;CarPassword.c: 184: return '\0';
  6626                           ;	Return value of _read is never used
  6627                           
  6628                           
  6629                           	psect	text11
  6630  0839                     __ptext11:	
  6631 ;; *************** function i1_init *****************
  6632 ;; Defined at:
  6633 ;;		line 44 in file "ST7066U_4bit.c"
  6634 ;; Parameters:    Size  Location     Type
  6635 ;;		None
  6636 ;; Auto vars:     Size  Location     Type
  6637 ;;  init            1    4[COMMON] volatile unsigned char 
  6638 ;; Return value:  Size  Location     Type
  6639 ;;                  1    wreg      unsigned char 
  6640 ;; Registers used:
  6641 ;;		wreg, status,2, status,0, pclath, cstack
  6642 ;; Tracked objects:
  6643 ;;		On entry : 0/0
  6644 ;;		On exit  : 0/0
  6645 ;;		Unchanged: 0/0
  6646 ;; Data sizes:     COMMON   BANK0   BANK1   BANK3   BANK2
  6647 ;;      Params:         0       0       0       0       0
  6648 ;;      Locals:         1       0       0       0       0
  6649 ;;      Temps:          2       0       0       0       0
  6650 ;;      Totals:         3       0       0       0       0
  6651 ;;Total ram usage:        3 bytes
  6652 ;; Hardware stack levels used:    1
  6653 ;; Hardware stack levels required when called:    1
  6654 ;; This function calls:
  6655 ;;		i1_chk_bf
  6656 ;; This function is called by:
  6657 ;;		_read
  6658 ;;		_spec_func3
  6659 ;; This function uses a non-reentrant model
  6660 ;;
  6661                           
  6662                           
  6663                           ;psect for function i1_init
  6664  0839                     i1_init:	
  6665                           
  6666                           ;ST7066U_4bit.c: 45: volatile unsigned char temp;
  6667                           ;ST7066U_4bit.c: 46: _delay((unsigned long)((50)*(4000000/4000.0)));
  6668                           
  6669                           ;incstack = 0
  6670                           ; Regs used in i1_init: [wreg+status,2+status,0+pclath+cstack]
  6671  0839  3041               	movlw	65
  6672  083A  00F3               	movwf	??i1_init+1
  6673  083B  30EE               	movlw	238
  6674  083C  00F2               	movwf	??i1_init
  6675  083D                     u388_27:	
  6676  083D  0BF2               	decfsz	??i1_init,f
  6677  083E  283D               	goto	u388_27
  6678  083F  0BF3               	decfsz	??i1_init+1,f
  6679  0840  283D               	goto	u388_27
  6680  0841  0000               	nop
  6681                           
  6682                           ;ST7066U_4bit.c: 47: RC3=0b0;
  6683  0842  1283               	bcf	3,5	;RP0=0, select bank0
  6684  0843  1303               	bcf	3,6	;RP1=0, select bank0
  6685  0844  1187               	bcf	7,3	;volatile
  6686                           
  6687                           ;ST7066U_4bit.c: 48: temp = 0x30;
  6688  0845  3030               	movlw	48
  6689  0846  00F2               	movwf	??i1_init
  6690  0847  0872               	movf	??i1_init,w
  6691  0848  00F4               	movwf	i1init@temp	;volatile
  6692                           
  6693                           ;ST7066U_4bit.c: 49: RC1 = 0b0;
  6694  0849  1087               	bcf	7,1	;volatile
  6695                           
  6696                           ;ST7066U_4bit.c: 50: RC2 = 0b0;
  6697  084A  1107               	bcf	7,2	;volatile
  6698                           
  6699                           ;ST7066U_4bit.c: 51: PORTC &= 0x0F;
  6700  084B  300F               	movlw	15
  6701  084C  00F2               	movwf	??i1_init
  6702  084D  0872               	movf	??i1_init,w
  6703  084E  0587               	andwf	7,f	;volatile
  6704                           
  6705                           ;ST7066U_4bit.c: 52: RC3 = 0b1;
  6706  084F  1587               	bsf	7,3	;volatile
  6707                           
  6708                           ;ST7066U_4bit.c: 53: PORTC |= temp;
  6709  0850  0874               	movf	i1init@temp,w	;volatile
  6710  0851  00F2               	movwf	??i1_init
  6711  0852  0872               	movf	??i1_init,w
  6712  0853  0487               	iorwf	7,f	;volatile
  6713                           
  6714                           ;ST7066U_4bit.c: 54: _delay((unsigned long)((4)*(4000000/4000000.0)));
  6715  0854  2855               	nop2	;2 cycle nop
  6716  0855  2856               	nop2	;2 cycle nop
  6717                           
  6718                           ;ST7066U_4bit.c: 55: RC3 = 0b0;
  6719  0856  1283               	bcf	3,5	;RP0=0, select bank0
  6720  0857  1303               	bcf	3,6	;RP1=0, select bank0
  6721  0858  1187               	bcf	7,3	;volatile
  6722                           
  6723                           ;ST7066U_4bit.c: 56: _delay((unsigned long)((40)*(4000000/4000000.0)));
  6724  0859  300D               	movlw	13
  6725  085A  00F2               	movwf	??i1_init
  6726  085B                     u389_27:	
  6727  085B  0BF2               	decfsz	??i1_init,f
  6728  085C  285B               	goto	u389_27
  6729                           
  6730                           ;ST7066U_4bit.c: 57: temp = 0x20;
  6731  085D  3020               	movlw	32
  6732  085E  00F2               	movwf	??i1_init
  6733  085F  0872               	movf	??i1_init,w
  6734  0860  00F4               	movwf	i1init@temp	;volatile
  6735                           
  6736                           ;ST7066U_4bit.c: 58: PORTC &= 0x0F;
  6737  0861  300F               	movlw	15
  6738  0862  00F2               	movwf	??i1_init
  6739  0863  0872               	movf	??i1_init,w
  6740  0864  1283               	bcf	3,5	;RP0=0, select bank0
  6741  0865  1303               	bcf	3,6	;RP1=0, select bank0
  6742  0866  0587               	andwf	7,f	;volatile
  6743                           
  6744                           ;ST7066U_4bit.c: 59: RC3 = 0b1;
  6745  0867  1587               	bsf	7,3	;volatile
  6746                           
  6747                           ;ST7066U_4bit.c: 60: PORTC |= temp;
  6748  0868  0874               	movf	i1init@temp,w	;volatile
  6749  0869  00F2               	movwf	??i1_init
  6750  086A  0872               	movf	??i1_init,w
  6751  086B  0487               	iorwf	7,f	;volatile
  6752                           
  6753                           ;ST7066U_4bit.c: 61: _delay((unsigned long)((4)*(4000000/4000000.0)));
  6754  086C  286D               	nop2	;2 cycle nop
  6755  086D  286E               	nop2	;2 cycle nop
  6756                           
  6757                           ;ST7066U_4bit.c: 62: RC3 = 0b0;
  6758  086E  1283               	bcf	3,5	;RP0=0, select bank0
  6759  086F  1303               	bcf	3,6	;RP1=0, select bank0
  6760  0870  1187               	bcf	7,3	;volatile
  6761                           
  6762                           ;ST7066U_4bit.c: 63: temp = 0x00;
  6763  0871  01F4               	clrf	i1init@temp	;volatile
  6764                           
  6765                           ;ST7066U_4bit.c: 64: if(N == 0b1)
  6766  0872  1963               	btfsc	_N/(0+8),_N& (0+7)	;volatile
  6767                           
  6768                           ;ST7066U_4bit.c: 65: temp |= 0x01;
  6769  0873  1474               	bsf	i1init@temp,0	;volatile
  6770                           
  6771                           ;ST7066U_4bit.c: 66: temp <<= 1;
  6772  0874  1003               	clrc
  6773  0875  0DF4               	rlf	i1init@temp,f	;volatile
  6774                           
  6775                           ;ST7066U_4bit.c: 67: if(F == 0b1)
  6776  0876  1962               	btfsc	_F/(0+8),_F& (0+7)	;volatile
  6777                           
  6778                           ;ST7066U_4bit.c: 68: temp |= 0x01;
  6779  0877  1474               	bsf	i1init@temp,0	;volatile
  6780                           
  6781                           ;ST7066U_4bit.c: 69: temp <<= 6;
  6782  0878  0EF4               	swapf	i1init@temp,f	;volatile
  6783  0879  0DF4               	rlf	i1init@temp,f	;volatile
  6784  087A  0DF4               	rlf	i1init@temp,f	;volatile
  6785  087B  30C0               	movlw	192
  6786  087C  05F4               	andwf	i1init@temp,f	;volatile
  6787                           
  6788                           ;ST7066U_4bit.c: 70: PORTC &= 0x0F;
  6789  087D  300F               	movlw	15
  6790  087E  00F2               	movwf	??i1_init
  6791  087F  0872               	movf	??i1_init,w
  6792  0880  0587               	andwf	7,f	;volatile
  6793                           
  6794                           ;ST7066U_4bit.c: 71: RC3 = 0b1;
  6795  0881  1587               	bsf	7,3	;volatile
  6796                           
  6797                           ;ST7066U_4bit.c: 72: PORTC |= temp;
  6798  0882  0874               	movf	i1init@temp,w	;volatile
  6799  0883  00F2               	movwf	??i1_init
  6800  0884  0872               	movf	??i1_init,w
  6801  0885  0487               	iorwf	7,f	;volatile
  6802                           
  6803                           ;ST7066U_4bit.c: 73: _delay((unsigned long)((4)*(4000000/4000000.0)));
  6804  0886  2887               	nop2	;2 cycle nop
  6805  0887  2888               	nop2	;2 cycle nop
  6806                           
  6807                           ;ST7066U_4bit.c: 74: RC3 = 0b0;
  6808  0888  1283               	bcf	3,5	;RP0=0, select bank0
  6809  0889  1303               	bcf	3,6	;RP1=0, select bank0
  6810  088A  1187               	bcf	7,3	;volatile
  6811                           
  6812                           ;ST7066U_4bit.c: 75: _delay((unsigned long)((40)*(4000000/4000000.0)));
  6813  088B  300D               	movlw	13
  6814  088C  00F2               	movwf	??i1_init
  6815  088D                     u390_27:	
  6816  088D  0BF2               	decfsz	??i1_init,f
  6817  088E  288D               	goto	u390_27
  6818                           
  6819                           ;ST7066U_4bit.c: 76: temp = 0x20;
  6820  088F  3020               	movlw	32
  6821  0890  00F2               	movwf	??i1_init
  6822  0891  0872               	movf	??i1_init,w
  6823  0892  00F4               	movwf	i1init@temp	;volatile
  6824                           
  6825                           ;ST7066U_4bit.c: 77: PORTC &= 0x0F;
  6826  0893  300F               	movlw	15
  6827  0894  00F2               	movwf	??i1_init
  6828  0895  0872               	movf	??i1_init,w
  6829  0896  1283               	bcf	3,5	;RP0=0, select bank0
  6830  0897  1303               	bcf	3,6	;RP1=0, select bank0
  6831  0898  0587               	andwf	7,f	;volatile
  6832                           
  6833                           ;ST7066U_4bit.c: 78: RC3 = 0b1;
  6834  0899  1587               	bsf	7,3	;volatile
  6835                           
  6836                           ;ST7066U_4bit.c: 79: PORTC |= temp;
  6837  089A  0874               	movf	i1init@temp,w	;volatile
  6838  089B  00F2               	movwf	??i1_init
  6839  089C  0872               	movf	??i1_init,w
  6840  089D  0487               	iorwf	7,f	;volatile
  6841                           
  6842                           ;ST7066U_4bit.c: 80: _delay((unsigned long)((4)*(4000000/4000000.0)));
  6843  089E  289F               	nop2	;2 cycle nop
  6844  089F  28A0               	nop2	;2 cycle nop
  6845                           
  6846                           ;ST7066U_4bit.c: 81: RC3 = 0b0;
  6847  08A0  1283               	bcf	3,5	;RP0=0, select bank0
  6848  08A1  1303               	bcf	3,6	;RP1=0, select bank0
  6849  08A2  1187               	bcf	7,3	;volatile
  6850                           
  6851                           ;ST7066U_4bit.c: 82: temp = 0x00;
  6852  08A3  01F4               	clrf	i1init@temp	;volatile
  6853                           
  6854                           ;ST7066U_4bit.c: 83: if(N == 0b1)
  6855  08A4  1963               	btfsc	_N/(0+8),_N& (0+7)	;volatile
  6856                           
  6857                           ;ST7066U_4bit.c: 84: temp |= 0x01;
  6858  08A5  1474               	bsf	i1init@temp,0	;volatile
  6859                           
  6860                           ;ST7066U_4bit.c: 85: temp <<= 1;
  6861  08A6  1003               	clrc
  6862  08A7  0DF4               	rlf	i1init@temp,f	;volatile
  6863                           
  6864                           ;ST7066U_4bit.c: 86: if(F == 0b1)
  6865  08A8  1962               	btfsc	_F/(0+8),_F& (0+7)	;volatile
  6866                           
  6867                           ;ST7066U_4bit.c: 87: temp |= 0x01;
  6868  08A9  1474               	bsf	i1init@temp,0	;volatile
  6869                           
  6870                           ;ST7066U_4bit.c: 88: temp <<= 6;
  6871  08AA  0EF4               	swapf	i1init@temp,f	;volatile
  6872  08AB  0DF4               	rlf	i1init@temp,f	;volatile
  6873  08AC  0DF4               	rlf	i1init@temp,f	;volatile
  6874  08AD  30C0               	movlw	192
  6875  08AE  05F4               	andwf	i1init@temp,f	;volatile
  6876                           
  6877                           ;ST7066U_4bit.c: 89: PORTC &= 0x0F;
  6878  08AF  300F               	movlw	15
  6879  08B0  00F2               	movwf	??i1_init
  6880  08B1  0872               	movf	??i1_init,w
  6881  08B2  0587               	andwf	7,f	;volatile
  6882                           
  6883                           ;ST7066U_4bit.c: 90: RC3 = 0b1;
  6884  08B3  1587               	bsf	7,3	;volatile
  6885                           
  6886                           ;ST7066U_4bit.c: 91: PORTC |= temp;
  6887  08B4  0874               	movf	i1init@temp,w	;volatile
  6888  08B5  00F2               	movwf	??i1_init
  6889  08B6  0872               	movf	??i1_init,w
  6890  08B7  0487               	iorwf	7,f	;volatile
  6891                           
  6892                           ;ST7066U_4bit.c: 92: _delay((unsigned long)((4)*(4000000/4000000.0)));
  6893  08B8  28B9               	nop2	;2 cycle nop
  6894  08B9  28BA               	nop2	;2 cycle nop
  6895                           
  6896                           ;ST7066U_4bit.c: 93: RC3 = 0b0;
  6897  08BA  1283               	bcf	3,5	;RP0=0, select bank0
  6898  08BB  1303               	bcf	3,6	;RP1=0, select bank0
  6899  08BC  1187               	bcf	7,3	;volatile
  6900                           
  6901                           ;ST7066U_4bit.c: 94: _delay((unsigned long)((40)*(4000000/4000000.0)));
  6902  08BD  300D               	movlw	13
  6903  08BE  00F2               	movwf	??i1_init
  6904  08BF                     u391_27:	
  6905  08BF  0BF2               	decfsz	??i1_init,f
  6906  08C0  28BF               	goto	u391_27
  6907                           
  6908                           ;ST7066U_4bit.c: 95: bf_fails = 0x00;
  6909  08C1  1283               	bcf	3,5	;RP0=0, select bank0
  6910  08C2  1303               	bcf	3,6	;RP1=0, select bank0
  6911  08C3  01DB               	clrf	_bf_fails
  6912  08C4                     i1l3631:	
  6913                           ;ST7066U_4bit.c: 96: while(chk_bf() == 1)
  6914                           
  6915  08C4  160A  118A  2690   	fcall	i1_chk_bf
      +       120A  158A         
  6916  08C9  3A01               	xorlw	1
  6917  08CA  1D03               	btfss	3,2
  6918  08CB  28DD               	goto	i1l3633
  6919                           
  6920                           ;ST7066U_4bit.c: 97: {
  6921                           ;ST7066U_4bit.c: 98: _delay((unsigned long)((80)*(4000000/4000000.0)));
  6922  08CC  301A               	movlw	26
  6923  08CD  00F2               	movwf	??i1_init
  6924  08CE                     u392_27:	
  6925  08CE  0BF2               	decfsz	??i1_init,f
  6926  08CF  28CE               	goto	u392_27
  6927  08D0  0000               	nop
  6928                           
  6929                           ;ST7066U_4bit.c: 99: bf_fails++;
  6930  08D1  3001               	movlw	1
  6931  08D2  00F2               	movwf	??i1_init
  6932  08D3  0872               	movf	??i1_init,w
  6933  08D4  1283               	bcf	3,5	;RP0=0, select bank0
  6934  08D5  1303               	bcf	3,6	;RP1=0, select bank0
  6935  08D6  07DB               	addwf	_bf_fails,f
  6936                           
  6937                           ;ST7066U_4bit.c: 100: if(bf_fails >= 25)
  6938  08D7  3019               	movlw	25
  6939  08D8  025B               	subwf	_bf_fails,w
  6940  08D9  1C03               	skipc
  6941  08DA  28C4               	goto	i1l3631
  6942                           
  6943                           ;ST7066U_4bit.c: 101: {
  6944                           ;ST7066U_4bit.c: 102: return 1;
  6945  08DB  3001               	movlw	1
  6946  08DC  0008               	return
  6947  08DD                     i1l3633:	
  6948                           
  6949                           ;ST7066U_4bit.c: 103: }
  6950                           ;ST7066U_4bit.c: 104: }
  6951                           ;ST7066U_4bit.c: 105: PORTC &= 0x0F;
  6952  08DD  300F               	movlw	15
  6953  08DE  00F2               	movwf	??i1_init
  6954  08DF  0872               	movf	??i1_init,w
  6955  08E0  1283               	bcf	3,5	;RP0=0, select bank0
  6956  08E1  1303               	bcf	3,6	;RP1=0, select bank0
  6957  08E2  0587               	andwf	7,f	;volatile
  6958                           
  6959                           ;ST7066U_4bit.c: 106: RC3 = 0b1;
  6960  08E3  1587               	bsf	7,3	;volatile
  6961                           
  6962                           ;ST7066U_4bit.c: 107: _delay((unsigned long)((4)*(4000000/4000000.0)));
  6963  08E4  28E5               	nop2	;2 cycle nop
  6964  08E5  28E6               	nop2	;2 cycle nop
  6965                           
  6966                           ;ST7066U_4bit.c: 108: RC3 = 0b0;
  6967  08E6  1283               	bcf	3,5	;RP0=0, select bank0
  6968  08E7  1303               	bcf	3,6	;RP1=0, select bank0
  6969  08E8  1187               	bcf	7,3	;volatile
  6970                           
  6971                           ;ST7066U_4bit.c: 109: temp = 0x01;
  6972  08E9  3001               	movlw	1
  6973  08EA  00F2               	movwf	??i1_init
  6974  08EB  0872               	movf	??i1_init,w
  6975  08EC  00F4               	movwf	i1init@temp	;volatile
  6976                           
  6977                           ;ST7066U_4bit.c: 110: temp <<= 1;
  6978  08ED  1003               	clrc
  6979  08EE  0DF4               	rlf	i1init@temp,f	;volatile
  6980                           
  6981                           ;ST7066U_4bit.c: 111: if(D == 0b1)
  6982  08EF  1863               	btfsc	_D/(0+8),_D& (0+7)	;volatile
  6983                           
  6984                           ;ST7066U_4bit.c: 112: temp |= 0x01;
  6985  08F0  1474               	bsf	i1init@temp,0	;volatile
  6986                           
  6987                           ;ST7066U_4bit.c: 113: temp <<= 1;
  6988  08F1  1003               	clrc
  6989  08F2  0DF4               	rlf	i1init@temp,f	;volatile
  6990                           
  6991                           ;ST7066U_4bit.c: 114: if(C == 0b1)
  6992  08F3  18E2               	btfsc	_C/(0+8),_C& (0+7)	;volatile
  6993                           
  6994                           ;ST7066U_4bit.c: 115: temp |= 0x01;
  6995  08F4  1474               	bsf	i1init@temp,0	;volatile
  6996                           
  6997                           ;ST7066U_4bit.c: 116: temp <<= 1;
  6998  08F5  1003               	clrc
  6999  08F6  0DF4               	rlf	i1init@temp,f	;volatile
  7000                           
  7001                           ;ST7066U_4bit.c: 117: if(B == 0b1)
  7002  08F7  1862               	btfsc	_B/(0+8),_B& (0+7)	;volatile
  7003                           
  7004                           ;ST7066U_4bit.c: 118: temp |= 0x01;
  7005  08F8  1474               	bsf	i1init@temp,0	;volatile
  7006                           
  7007                           ;ST7066U_4bit.c: 119: temp <<= 4;
  7008  08F9  0EF4               	swapf	i1init@temp,f	;volatile
  7009  08FA  30F0               	movlw	240
  7010  08FB  05F4               	andwf	i1init@temp,f	;volatile
  7011                           
  7012                           ;ST7066U_4bit.c: 120: RC3 = 0b1;
  7013  08FC  1587               	bsf	7,3	;volatile
  7014                           
  7015                           ;ST7066U_4bit.c: 121: PORTC |= temp;
  7016  08FD  0874               	movf	i1init@temp,w	;volatile
  7017  08FE  00F2               	movwf	??i1_init
  7018  08FF  0872               	movf	??i1_init,w
  7019  0900  0487               	iorwf	7,f	;volatile
  7020                           
  7021                           ;ST7066U_4bit.c: 122: _delay((unsigned long)((4)*(4000000/4000000.0)));
  7022  0901  2902               	nop2	;2 cycle nop
  7023  0902  2903               	nop2	;2 cycle nop
  7024                           
  7025                           ;ST7066U_4bit.c: 123: RC3 = 0b0;
  7026  0903  1283               	bcf	3,5	;RP0=0, select bank0
  7027  0904  1303               	bcf	3,6	;RP1=0, select bank0
  7028  0905  1187               	bcf	7,3	;volatile
  7029                           
  7030                           ;ST7066U_4bit.c: 124: _delay((unsigned long)((40)*(4000000/4000000.0)));
  7031  0906  300D               	movlw	13
  7032  0907  00F2               	movwf	??i1_init
  7033  0908                     u393_27:	
  7034  0908  0BF2               	decfsz	??i1_init,f
  7035  0909  2908               	goto	u393_27
  7036                           
  7037                           ;ST7066U_4bit.c: 125: bf_fails = 0x00;
  7038  090A  1283               	bcf	3,5	;RP0=0, select bank0
  7039  090B  1303               	bcf	3,6	;RP1=0, select bank0
  7040  090C  01DB               	clrf	_bf_fails
  7041  090D                     i1l3685:	
  7042                           ;ST7066U_4bit.c: 126: while(chk_bf() == 1)
  7043                           
  7044  090D  160A  118A  2690   	fcall	i1_chk_bf
      +       120A  158A         
  7045  0912  3A01               	xorlw	1
  7046  0913  1D03               	btfss	3,2
  7047  0914  2926               	goto	i1l3687
  7048                           
  7049                           ;ST7066U_4bit.c: 127: {
  7050                           ;ST7066U_4bit.c: 128: _delay((unsigned long)((80)*(4000000/4000000.0)));
  7051  0915  301A               	movlw	26
  7052  0916  00F2               	movwf	??i1_init
  7053  0917                     u394_27:	
  7054  0917  0BF2               	decfsz	??i1_init,f
  7055  0918  2917               	goto	u394_27
  7056  0919  0000               	nop
  7057                           
  7058                           ;ST7066U_4bit.c: 129: bf_fails++;
  7059  091A  3001               	movlw	1
  7060  091B  00F2               	movwf	??i1_init
  7061  091C  0872               	movf	??i1_init,w
  7062  091D  1283               	bcf	3,5	;RP0=0, select bank0
  7063  091E  1303               	bcf	3,6	;RP1=0, select bank0
  7064  091F  07DB               	addwf	_bf_fails,f
  7065                           
  7066                           ;ST7066U_4bit.c: 130: if(bf_fails >= 25)
  7067  0920  3019               	movlw	25
  7068  0921  025B               	subwf	_bf_fails,w
  7069  0922  1C03               	skipc
  7070  0923  290D               	goto	i1l3685
  7071                           
  7072                           ;ST7066U_4bit.c: 131: {
  7073                           ;ST7066U_4bit.c: 132: return 1;
  7074  0924  3001               	movlw	1
  7075  0925  0008               	return
  7076  0926                     i1l3687:	
  7077                           
  7078                           ;ST7066U_4bit.c: 133: }
  7079                           ;ST7066U_4bit.c: 134: }
  7080                           ;ST7066U_4bit.c: 135: PORTC &= 0x0F;
  7081  0926  300F               	movlw	15
  7082  0927  00F2               	movwf	??i1_init
  7083  0928  0872               	movf	??i1_init,w
  7084  0929  1283               	bcf	3,5	;RP0=0, select bank0
  7085  092A  1303               	bcf	3,6	;RP1=0, select bank0
  7086  092B  0587               	andwf	7,f	;volatile
  7087                           
  7088                           ;ST7066U_4bit.c: 136: RC3 = 0b1;
  7089  092C  1587               	bsf	7,3	;volatile
  7090                           
  7091                           ;ST7066U_4bit.c: 137: _delay((unsigned long)((4)*(4000000/4000000.0)));
  7092  092D  292E               	nop2	;2 cycle nop
  7093  092E  292F               	nop2	;2 cycle nop
  7094                           
  7095                           ;ST7066U_4bit.c: 138: RC3 = 0b0;
  7096  092F  1283               	bcf	3,5	;RP0=0, select bank0
  7097  0930  1303               	bcf	3,6	;RP1=0, select bank0
  7098  0931  1187               	bcf	7,3	;volatile
  7099                           
  7100                           ;ST7066U_4bit.c: 139: _delay((unsigned long)((4)*(4000000/4000000.0)));
  7101  0932  2933               	nop2	;2 cycle nop
  7102  0933  2934               	nop2	;2 cycle nop
  7103                           
  7104                           ;ST7066U_4bit.c: 140: RC3 = 0b1;
  7105  0934  1283               	bcf	3,5	;RP0=0, select bank0
  7106  0935  1303               	bcf	3,6	;RP1=0, select bank0
  7107  0936  1587               	bsf	7,3	;volatile
  7108                           
  7109                           ;ST7066U_4bit.c: 141: PORTC |= 0x10;
  7110  0937  1607               	bsf	7,4	;volatile
  7111                           
  7112                           ;ST7066U_4bit.c: 142: _delay((unsigned long)((4)*(4000000/4000000.0)));
  7113  0938  2939               	nop2	;2 cycle nop
  7114  0939  293A               	nop2	;2 cycle nop
  7115                           
  7116                           ;ST7066U_4bit.c: 143: RC3 = 0b0;
  7117  093A  1283               	bcf	3,5	;RP0=0, select bank0
  7118  093B  1303               	bcf	3,6	;RP1=0, select bank0
  7119  093C  1187               	bcf	7,3	;volatile
  7120                           
  7121                           ;ST7066U_4bit.c: 144: _delay((unsigned long)((2)*(4000000/4000.0)));
  7122  093D  3003               	movlw	3
  7123  093E  00F3               	movwf	??i1_init+1
  7124  093F  3097               	movlw	151
  7125  0940  00F2               	movwf	??i1_init
  7126  0941                     u395_27:	
  7127  0941  0BF2               	decfsz	??i1_init,f
  7128  0942  2941               	goto	u395_27
  7129  0943  0BF3               	decfsz	??i1_init+1,f
  7130  0944  2941               	goto	u395_27
  7131  0945  2946               	nop2
  7132                           
  7133                           ;ST7066U_4bit.c: 145: bf_fails = 0x00;
  7134  0946  1283               	bcf	3,5	;RP0=0, select bank0
  7135  0947  1303               	bcf	3,6	;RP1=0, select bank0
  7136  0948  01DB               	clrf	_bf_fails
  7137  0949                     i1l3719:	
  7138                           ;ST7066U_4bit.c: 146: while(chk_bf() == 1)
  7139                           
  7140  0949  160A  118A  2690   	fcall	i1_chk_bf
      +       120A  158A         
  7141  094E  3A01               	xorlw	1
  7142  094F  1D03               	btfss	3,2
  7143  0950  2962               	goto	i1l3721
  7144                           
  7145                           ;ST7066U_4bit.c: 147: {
  7146                           ;ST7066U_4bit.c: 148: _delay((unsigned long)((80)*(4000000/4000000.0)));
  7147  0951  301A               	movlw	26
  7148  0952  00F2               	movwf	??i1_init
  7149  0953                     u396_27:	
  7150  0953  0BF2               	decfsz	??i1_init,f
  7151  0954  2953               	goto	u396_27
  7152  0955  0000               	nop
  7153                           
  7154                           ;ST7066U_4bit.c: 149: bf_fails++;
  7155  0956  3001               	movlw	1
  7156  0957  00F2               	movwf	??i1_init
  7157  0958  0872               	movf	??i1_init,w
  7158  0959  1283               	bcf	3,5	;RP0=0, select bank0
  7159  095A  1303               	bcf	3,6	;RP1=0, select bank0
  7160  095B  07DB               	addwf	_bf_fails,f
  7161                           
  7162                           ;ST7066U_4bit.c: 150: if(bf_fails >= 25)
  7163  095C  3019               	movlw	25
  7164  095D  025B               	subwf	_bf_fails,w
  7165  095E  1C03               	skipc
  7166  095F  2949               	goto	i1l3719
  7167                           
  7168                           ;ST7066U_4bit.c: 151: {
  7169                           ;ST7066U_4bit.c: 152: return 1;
  7170  0960  3001               	movlw	1
  7171  0961  0008               	return
  7172  0962                     i1l3721:	
  7173                           
  7174                           ;ST7066U_4bit.c: 153: }
  7175                           ;ST7066U_4bit.c: 154: }
  7176                           ;ST7066U_4bit.c: 155: PORTC &= 0x0F;
  7177  0962  300F               	movlw	15
  7178  0963  00F2               	movwf	??i1_init
  7179  0964  0872               	movf	??i1_init,w
  7180  0965  1283               	bcf	3,5	;RP0=0, select bank0
  7181  0966  1303               	bcf	3,6	;RP1=0, select bank0
  7182  0967  0587               	andwf	7,f	;volatile
  7183                           
  7184                           ;ST7066U_4bit.c: 156: RC3 = 0b1;
  7185  0968  1587               	bsf	7,3	;volatile
  7186                           
  7187                           ;ST7066U_4bit.c: 157: _delay((unsigned long)((4)*(4000000/4000000.0)));
  7188  0969  296A               	nop2	;2 cycle nop
  7189  096A  296B               	nop2	;2 cycle nop
  7190                           
  7191                           ;ST7066U_4bit.c: 158: RC3 = 0b0;
  7192  096B  1283               	bcf	3,5	;RP0=0, select bank0
  7193  096C  1303               	bcf	3,6	;RP1=0, select bank0
  7194  096D  1187               	bcf	7,3	;volatile
  7195                           
  7196                           ;ST7066U_4bit.c: 159: temp = 0x01;
  7197  096E  3001               	movlw	1
  7198  096F  00F2               	movwf	??i1_init
  7199  0970  0872               	movf	??i1_init,w
  7200  0971  00F4               	movwf	i1init@temp	;volatile
  7201                           
  7202                           ;ST7066U_4bit.c: 160: temp <<= 1;
  7203  0972  1003               	clrc
  7204  0973  0DF4               	rlf	i1init@temp,f	;volatile
  7205                           
  7206                           ;ST7066U_4bit.c: 161: if(I_D == 0b1)
  7207  0974  18E3               	btfsc	_I_D/(0+8),_I_D& (0+7)	;volatile
  7208                           
  7209                           ;ST7066U_4bit.c: 162: temp |= 0x01;
  7210  0975  1474               	bsf	i1init@temp,0	;volatile
  7211                           
  7212                           ;ST7066U_4bit.c: 163: temp <<= 1;
  7213  0976  1003               	clrc
  7214  0977  0DF4               	rlf	i1init@temp,f	;volatile
  7215                           
  7216                           ;ST7066U_4bit.c: 164: if(S == 0b1)
  7217  0978  19E2               	btfsc	_S/(0+8),_S& (0+7)	;volatile
  7218                           
  7219                           ;ST7066U_4bit.c: 165: temp |= 0x01;
  7220  0979  1474               	bsf	i1init@temp,0	;volatile
  7221                           
  7222                           ;ST7066U_4bit.c: 166: temp <<= 4;
  7223  097A  0EF4               	swapf	i1init@temp,f	;volatile
  7224  097B  30F0               	movlw	240
  7225  097C  05F4               	andwf	i1init@temp,f	;volatile
  7226                           
  7227                           ;ST7066U_4bit.c: 167: RC3 = 0b1;
  7228  097D  1587               	bsf	7,3	;volatile
  7229                           
  7230                           ;ST7066U_4bit.c: 168: PORTC |= temp;
  7231  097E  0874               	movf	i1init@temp,w	;volatile
  7232  097F  00F2               	movwf	??i1_init
  7233  0980  0872               	movf	??i1_init,w
  7234  0981  0487               	iorwf	7,f	;volatile
  7235                           
  7236                           ;ST7066U_4bit.c: 169: _delay((unsigned long)((4)*(4000000/4000000.0)));
  7237  0982  2983               	nop2	;2 cycle nop
  7238  0983  2984               	nop2	;2 cycle nop
  7239                           
  7240                           ;ST7066U_4bit.c: 170: RC3 =0b0;
  7241  0984  1283               	bcf	3,5	;RP0=0, select bank0
  7242  0985  1303               	bcf	3,6	;RP1=0, select bank0
  7243  0986  1187               	bcf	7,3	;volatile
  7244                           
  7245                           ;ST7066U_4bit.c: 171: _delay((unsigned long)((40)*(4000000/4000000.0)));
  7246  0987  300D               	movlw	13
  7247  0988  00F2               	movwf	??i1_init
  7248  0989                     u397_27:	
  7249  0989  0BF2               	decfsz	??i1_init,f
  7250  098A  2989               	goto	u397_27
  7251                           
  7252                           ;ST7066U_4bit.c: 172: return 0;
  7253  098B  3000               	movlw	0
  7254  098C  0008               	return
  7255  098D                     __end_ofi1_init:	
  7256                           
  7257                           	psect	text12
  7258  1690                     __ptext12:	
  7259 ;; *************** function i1_chk_bf *****************
  7260 ;; Defined at:
  7261 ;;		line 16 in file "ST7066U_4bit.c"
  7262 ;; Parameters:    Size  Location     Type
  7263 ;;		None
  7264 ;; Auto vars:     Size  Location     Type
  7265 ;;  chk_bf          1    1[COMMON] unsigned char 
  7266 ;; Return value:  Size  Location     Type
  7267 ;;                  1    wreg      unsigned char 
  7268 ;; Registers used:
  7269 ;;		wreg, status,2, status,0
  7270 ;; Tracked objects:
  7271 ;;		On entry : 0/0
  7272 ;;		On exit  : 0/0
  7273 ;;		Unchanged: 0/0
  7274 ;; Data sizes:     COMMON   BANK0   BANK1   BANK3   BANK2
  7275 ;;      Params:         0       0       0       0       0
  7276 ;;      Locals:         1       0       0       0       0
  7277 ;;      Temps:          1       0       0       0       0
  7278 ;;      Totals:         2       0       0       0       0
  7279 ;;Total ram usage:        2 bytes
  7280 ;; Hardware stack levels used:    1
  7281 ;; This function calls:
  7282 ;;		Nothing
  7283 ;; This function is called by:
  7284 ;;		_disp
  7285 ;;		_disp_off
  7286 ;;		i1_init
  7287 ;; This function uses a non-reentrant model
  7288 ;;
  7289                           
  7290                           
  7291                           ;psect for function i1_chk_bf
  7292  1690                     i1_chk_bf:	
  7293                           
  7294                           ;ST7066U_4bit.c: 17: char bf;
  7295                           ;ST7066U_4bit.c: 18: RC3 = 0b0;
  7296                           
  7297                           ;incstack = 0
  7298                           ; Regs used in i1_chk_bf: [wreg+status,2+status,0]
  7299  1690  1283               	bcf	3,5	;RP0=0, select bank0
  7300  1691  1303               	bcf	3,6	;RP1=0, select bank0
  7301  1692  1187               	bcf	7,3	;volatile
  7302                           
  7303                           ;ST7066U_4bit.c: 19: TRISC |= 0xF0;
  7304  1693  30F0               	movlw	240
  7305  1694  00F0               	movwf	??i1_chk_bf
  7306  1695  0870               	movf	??i1_chk_bf,w
  7307  1696  1683               	bsf	3,5	;RP0=1, select bank1
  7308  1697  1303               	bcf	3,6	;RP1=0, select bank1
  7309  1698  0487               	iorwf	7,f	;volatile
  7310                           
  7311                           ;ST7066U_4bit.c: 20: PORTC &= 0x0F;
  7312  1699  300F               	movlw	15
  7313  169A  00F0               	movwf	??i1_chk_bf
  7314  169B  0870               	movf	??i1_chk_bf,w
  7315  169C  1283               	bcf	3,5	;RP0=0, select bank0
  7316  169D  1303               	bcf	3,6	;RP1=0, select bank0
  7317  169E  0587               	andwf	7,f	;volatile
  7318                           
  7319                           ;ST7066U_4bit.c: 21: RC1 = 0b0;
  7320  169F  1087               	bcf	7,1	;volatile
  7321                           
  7322                           ;ST7066U_4bit.c: 22: RC2 = 0b1;
  7323  16A0  1507               	bsf	7,2	;volatile
  7324                           
  7325                           ;ST7066U_4bit.c: 23: RC3 = 0b1;
  7326  16A1  1587               	bsf	7,3	;volatile
  7327                           
  7328                           ;ST7066U_4bit.c: 24: _delay((unsigned long)((4)*(4000000/4000000.0)));
  7329  16A2  2EA3               	nop2	;2 cycle nop
  7330  16A3  2EA4               	nop2	;2 cycle nop
  7331                           
  7332                           ;ST7066U_4bit.c: 25: bf = PORTC;
  7333  16A4  1283               	bcf	3,5	;RP0=0, select bank0
  7334  16A5  1303               	bcf	3,6	;RP1=0, select bank0
  7335  16A6  0807               	movf	7,w	;volatile
  7336  16A7  00F0               	movwf	??i1_chk_bf
  7337  16A8  0870               	movf	??i1_chk_bf,w
  7338  16A9  00F1               	movwf	i1chk_bf@bf
  7339                           
  7340                           ;ST7066U_4bit.c: 26: RC3 = 0b0;
  7341  16AA  1187               	bcf	7,3	;volatile
  7342                           
  7343                           ;ST7066U_4bit.c: 27: _delay((unsigned long)((4)*(4000000/4000000.0)));
  7344  16AB  2EAC               	nop2	;2 cycle nop
  7345  16AC  2EAD               	nop2	;2 cycle nop
  7346                           
  7347                           ;ST7066U_4bit.c: 28: RC3 = 0b1;
  7348  16AD  1283               	bcf	3,5	;RP0=0, select bank0
  7349  16AE  1303               	bcf	3,6	;RP1=0, select bank0
  7350  16AF  1587               	bsf	7,3	;volatile
  7351                           
  7352                           ;ST7066U_4bit.c: 29: _delay((unsigned long)((4)*(4000000/4000000.0)));
  7353  16B0  2EB1               	nop2	;2 cycle nop
  7354  16B1  2EB2               	nop2	;2 cycle nop
  7355                           
  7356                           ;ST7066U_4bit.c: 30: RC3 = 0b0;
  7357  16B2  1283               	bcf	3,5	;RP0=0, select bank0
  7358  16B3  1303               	bcf	3,6	;RP1=0, select bank0
  7359  16B4  1187               	bcf	7,3	;volatile
  7360                           
  7361                           ;ST7066U_4bit.c: 31: RC2 = 0b0;
  7362  16B5  1107               	bcf	7,2	;volatile
  7363                           
  7364                           ;ST7066U_4bit.c: 32: TRISC &= 0x0F;
  7365  16B6  300F               	movlw	15
  7366  16B7  00F0               	movwf	??i1_chk_bf
  7367  16B8  0870               	movf	??i1_chk_bf,w
  7368  16B9  1683               	bsf	3,5	;RP0=1, select bank1
  7369  16BA  1303               	bcf	3,6	;RP1=0, select bank1
  7370  16BB  0587               	andwf	7,f	;volatile
  7371                           
  7372                           ;ST7066U_4bit.c: 33: if((bf & 0x80) == 0)
  7373  16BC  1BF1               	btfsc	i1chk_bf@bf,7
  7374  16BD  2EC0               	goto	i1l3309
  7375                           
  7376                           ;ST7066U_4bit.c: 34: {
  7377                           ;ST7066U_4bit.c: 35: return 0;
  7378  16BE  3000               	movlw	0
  7379                           
  7380                           ;ST7066U_4bit.c: 36: }
  7381  16BF  0008               	return
  7382  16C0                     i1l3309:	
  7383                           
  7384                           ;ST7066U_4bit.c: 37: else
  7385                           ;ST7066U_4bit.c: 38: {
  7386                           ;ST7066U_4bit.c: 39: return 1;
  7387  16C0  3001               	movlw	1
  7388  16C1  0008               	return
  7389  16C2                     __end_ofi1_chk_bf:	
  7390                           
  7391                           	psect	text13
  7392  16F8                     __ptext13:	
  7393 ;; *************** function ___lmul *****************
  7394 ;; Defined at:
  7395 ;;		line 3 in file "/opt/microchip/xc8/v1.21/sources/pic/lmul.c"
  7396 ;; Parameters:    Size  Location     Type
  7397 ;;  multiplier      4    0[COMMON] unsigned long 
  7398 ;;  multiplicand    4    4[COMMON] unsigned long 
  7399 ;; Auto vars:     Size  Location     Type
  7400 ;;  product         4    9[COMMON] unsigned long 
  7401 ;; Return value:  Size  Location     Type
  7402 ;;                  4    0[COMMON] unsigned long 
  7403 ;; Registers used:
  7404 ;;		wreg, status,2, status,0
  7405 ;; Tracked objects:
  7406 ;;		On entry : 0/0
  7407 ;;		On exit  : 0/0
  7408 ;;		Unchanged: 0/0
  7409 ;; Data sizes:     COMMON   BANK0   BANK1   BANK3   BANK2
  7410 ;;      Params:         8       0       0       0       0
  7411 ;;      Locals:         4       0       0       0       0
  7412 ;;      Temps:          1       0       0       0       0
  7413 ;;      Totals:        13       0       0       0       0
  7414 ;;Total ram usage:       13 bytes
  7415 ;; Hardware stack levels used:    1
  7416 ;; This function calls:
  7417 ;;		Nothing
  7418 ;; This function is called by:
  7419 ;;		_read
  7420 ;;		_keypad_read
  7421 ;; This function uses a non-reentrant model
  7422 ;;
  7423                           
  7424                           
  7425                           ;psect for function ___lmul
  7426  16F8                     ___lmul:	
  7427                           
  7428                           ;incstack = 0
  7429                           ; Regs used in ___lmul: [wreg+status,2+status,0]
  7430  16F8  3000               	movlw	0
  7431  16F9  00FC               	movwf	___lmul@product+3
  7432  16FA  3000               	movlw	0
  7433  16FB  00FB               	movwf	___lmul@product+2
  7434  16FC  3000               	movlw	0
  7435  16FD  00FA               	movwf	___lmul@product+1
  7436  16FE  3000               	movlw	0
  7437  16FF  00F9               	movwf	___lmul@product
  7438  1700                     i1l3261:	
  7439  1700  1C70               	btfss	___lmul@multiplier,0
  7440  1701  2F16               	goto	i1l3265
  7441  1702  0874               	movf	___lmul@multiplicand,w
  7442  1703  07F9               	addwf	___lmul@product,f
  7443  1704  0875               	movf	___lmul@multiplicand+1,w
  7444  1705  1103               	clrz
  7445  1706  1803               	skipnc
  7446  1707  3E01               	addlw	1
  7447  1708  1D03               	btfss	3,2
  7448  1709  07FA               	addwf	___lmul@product+1,f
  7449  170A  0876               	movf	___lmul@multiplicand+2,w
  7450  170B  1103               	clrz
  7451  170C  1803               	skipnc
  7452  170D  3E01               	addlw	1
  7453  170E  1D03               	btfss	3,2
  7454  170F  07FB               	addwf	___lmul@product+2,f
  7455  1710  0877               	movf	___lmul@multiplicand+3,w
  7456  1711  1103               	clrz
  7457  1712  1803               	skipnc
  7458  1713  3E01               	addlw	1
  7459  1714  1D03               	btfss	3,2
  7460  1715  07FC               	addwf	___lmul@product+3,f
  7461  1716                     i1l3265:	
  7462  1716  3001               	movlw	1
  7463  1717  00F8               	movwf	??___lmul
  7464  1718                     u156_25:	
  7465  1718  1003               	clrc
  7466  1719  0DF4               	rlf	___lmul@multiplicand,f
  7467  171A  0DF5               	rlf	___lmul@multiplicand+1,f
  7468  171B  0DF6               	rlf	___lmul@multiplicand+2,f
  7469  171C  0DF7               	rlf	___lmul@multiplicand+3,f
  7470  171D  0BF8               	decfsz	??___lmul,f
  7471  171E  2F18               	goto	u156_25
  7472  171F  3001               	movlw	1
  7473  1720                     u157_25:	
  7474  1720  1003               	clrc
  7475  1721  0CF3               	rrf	___lmul@multiplier+3,f
  7476  1722  0CF2               	rrf	___lmul@multiplier+2,f
  7477  1723  0CF1               	rrf	___lmul@multiplier+1,f
  7478  1724  0CF0               	rrf	___lmul@multiplier,f
  7479  1725  3EFF               	addlw	-1
  7480  1726  1D03               	skipz
  7481  1727  2F20               	goto	u157_25
  7482  1728  0873               	movf	___lmul@multiplier+3,w
  7483  1729  0472               	iorwf	___lmul@multiplier+2,w
  7484  172A  0471               	iorwf	___lmul@multiplier+1,w
  7485  172B  0470               	iorwf	___lmul@multiplier,w
  7486  172C  1D03               	skipz
  7487  172D  2F00               	goto	i1l3261
  7488  172E  087C               	movf	___lmul@product+3,w
  7489  172F  00F3               	movwf	?___lmul+3
  7490  1730  087B               	movf	___lmul@product+2,w
  7491  1731  00F2               	movwf	?___lmul+2
  7492  1732  087A               	movf	___lmul@product+1,w
  7493  1733  00F1               	movwf	?___lmul+1
  7494  1734  0879               	movf	___lmul@product,w
  7495  1735  00F0               	movwf	?___lmul
  7496  1736  0008               	return
  7497  1737                     __end_of___lmul:	
  7498                           
  7499                           	psect	text14
  7500  0800                     __ptext14:	
  7501 ;; *************** function _spec_func4 *****************
  7502 ;; Defined at:
  7503 ;;		line 257 in file "CarPassword.c"
  7504 ;; Parameters:    Size  Location     Type
  7505 ;;  input           1    wreg     PTR volatile unsigned lo
  7506 ;;		 -> isr@input(4), 
  7507 ;; Auto vars:     Size  Location     Type
  7508 ;;  input           1    0[COMMON] PTR volatile unsigned lo
  7509 ;;		 -> isr@input(4), 
  7510 ;; Return value:  Size  Location     Type
  7511 ;;                  1    wreg      unsigned char 
  7512 ;; Registers used:
  7513 ;;		wreg
  7514 ;; Tracked objects:
  7515 ;;		On entry : 0/0
  7516 ;;		On exit  : 0/0
  7517 ;;		Unchanged: 0/0
  7518 ;; Data sizes:     COMMON   BANK0   BANK1   BANK3   BANK2
  7519 ;;      Params:         0       0       0       0       0
  7520 ;;      Locals:         0       0       0       0       0
  7521 ;;      Temps:          0       0       0       0       0
  7522 ;;      Totals:         0       0       0       0       0
  7523 ;;Total ram usage:        0 bytes
  7524 ;; Hardware stack levels used:    1
  7525 ;; This function calls:
  7526 ;;		Nothing
  7527 ;; This function is called by:
  7528 ;;		_read
  7529 ;;		_keypad_read
  7530 ;; This function uses a non-reentrant model
  7531 ;;
  7532                           
  7533                           
  7534                           ;psect for function _spec_func4
  7535  0800                     _spec_func4:	
  7536                           
  7537                           ;CarPassword.c: 258: return '\0';
  7538                           
  7539                           ;incstack = 0
  7540                           ; Regs used in _spec_func4: [wreg]
  7541  0800  3000               	movlw	0
  7542  0801  0008               	return
  7543  0802                     __end_of_spec_func4:	
  7544                           
  7545                           	psect	text15
  7546  163C                     __ptext15:	
  7547 ;; *************** function _spec_func1 *****************
  7548 ;; Defined at:
  7549 ;;		line 31 in file "CarPassword.c"
  7550 ;; Parameters:    Size  Location     Type
  7551 ;;  input           1    wreg     PTR volatile unsigned lo
  7552 ;;		 -> isr@input(4), 
  7553 ;; Auto vars:     Size  Location     Type
  7554 ;;  input           1    0[COMMON] PTR volatile unsigned lo
  7555 ;;		 -> isr@input(4), 
  7556 ;; Return value:  Size  Location     Type
  7557 ;;                  1    wreg      unsigned char 
  7558 ;; Registers used:
  7559 ;;		wreg
  7560 ;; Tracked objects:
  7561 ;;		On entry : 0/0
  7562 ;;		On exit  : 0/0
  7563 ;;		Unchanged: 0/0
  7564 ;; Data sizes:     COMMON   BANK0   BANK1   BANK3   BANK2
  7565 ;;      Params:         0       0       0       0       0
  7566 ;;      Locals:         0       0       0       0       0
  7567 ;;      Temps:          0       0       0       0       0
  7568 ;;      Totals:         0       0       0       0       0
  7569 ;;Total ram usage:        0 bytes
  7570 ;; Hardware stack levels used:    1
  7571 ;; This function calls:
  7572 ;;		Nothing
  7573 ;; This function is called by:
  7574 ;;		_read
  7575 ;;		_keypad_read
  7576 ;; This function uses a non-reentrant model
  7577 ;;
  7578                           
  7579                           
  7580                           ;psect for function _spec_func1
  7581  163C                     _spec_func1:	
  7582                           
  7583                           ;CarPassword.c: 32: return '\0';
  7584                           
  7585                           ;incstack = 0
  7586                           ; Regs used in _spec_func1: [wreg]
  7587  163C  3000               	movlw	0
  7588  163D  0008               	return
  7589  163E                     __end_of_spec_func1:	
  7590                           
  7591                           	psect	text16
  7592  164F                     __ptext16:	
  7593 ;; *************** function _eeprom_read *****************
  7594 ;; Defined at:
  7595 ;;		line 7 in file "/opt/microchip/xc8/v1.21/sources/pic/eeread.c"
  7596 ;; Parameters:    Size  Location     Type
  7597 ;;  addr            1    wreg     unsigned char 
  7598 ;; Auto vars:     Size  Location     Type
  7599 ;;  addr            1    1[COMMON] unsigned char 
  7600 ;; Return value:  Size  Location     Type
  7601 ;;                  1    wreg      unsigned char 
  7602 ;; Registers used:
  7603 ;;		wreg, status,2, status,0
  7604 ;; Tracked objects:
  7605 ;;		On entry : 0/0
  7606 ;;		On exit  : 0/0
  7607 ;;		Unchanged: 0/0
  7608 ;; Data sizes:     COMMON   BANK0   BANK1   BANK3   BANK2
  7609 ;;      Params:         0       0       0       0       0
  7610 ;;      Locals:         1       0       0       0       0
  7611 ;;      Temps:          1       0       0       0       0
  7612 ;;      Totals:         2       0       0       0       0
  7613 ;;Total ram usage:        2 bytes
  7614 ;; Hardware stack levels used:    1
  7615 ;; This function calls:
  7616 ;;		Nothing
  7617 ;; This function is called by:
  7618 ;;		_isr
  7619 ;; This function uses a non-reentrant model
  7620 ;;
  7621                           
  7622                           
  7623                           ;psect for function _eeprom_read
  7624  164F                     _eeprom_read:	
  7625                           
  7626                           ;incstack = 0
  7627                           ; Regs used in _eeprom_read: [wreg+status,2+status,0]
  7628                           ;eeprom_read@addr stored from wreg
  7629  164F  00F1               	movwf	eeprom_read@addr
  7630  1650                     i1l380:	
  7631  1650  0064               	clrwdt	;# 
  7632  1651  1683               	bsf	3,5	;RP0=1, select bank3
  7633  1652  1703               	bsf	3,6	;RP1=1, select bank3
  7634  1653  188C               	btfsc	12,1	;volsfr
  7635  1654  2E50               	goto	i1l380
  7636  1655  0871               	movf	eeprom_read@addr,w
  7637  1656  1283               	bcf	3,5	;RP0=0, select bank2
  7638  1657  1703               	bsf	3,6	;RP1=1, select bank2
  7639  1658  008D               	movwf	13	;volatile
  7640  1659  303F               	movlw	63
  7641  165A  00F0               	movwf	??_eeprom_read
  7642  165B  0870               	movf	??_eeprom_read,w
  7643  165C  1683               	bsf	3,5	;RP0=1, select bank3
  7644  165D  1703               	bsf	3,6	;RP1=1, select bank3
  7645  165E  058C               	andwf	12,f	;volsfr
  7646  165F  140C               	bsf	12,0	;volsfr
  7647  1660  1003               	clrc
  7648  1661  180C               	btfsc	12,0	;volsfr
  7649  1662  1403               	setc
  7650  1663  3000               	movlw	0
  7651  1664  1803               	skipnc
  7652  1665  3001               	movlw	1
  7653  1666  1283               	bcf	3,5	;RP0=0, select bank2
  7654  1667  1703               	bsf	3,6	;RP1=1, select bank2
  7655  1668  080C               	movf	12,w	;volatile
  7656  1669  0008               	return
  7657  166A                     __end_of_eeprom_read:	
  7658  007E                     btemp	set	126	;btemp
  7659  007E                     wtemp0	set	126


Data Sizes:
    Strings     0
    Constant    0
    Data        93
    BSS         11
    Persistent  0
    Stack       0

Auto Spaces:
    Space          Size  Autos    Used
    COMMON           14     14      14
    BANK0            80     25      68
    BANK1            80      6      69
    BANK3            96      0       0
    BANK2            96      0       0

Pointer List with Targets:

    spec_func3@input	PTR volatile unsigned long  size(1) Largest target is 4
		 -> isr@input(BANK0[4]), 

    spec_func4@input	PTR volatile unsigned long  size(1) Largest target is 4
		 -> isr@input(BANK0[4]), 

    spec_func1@input	PTR volatile unsigned long  size(1) Largest target is 4
		 -> isr@input(BANK0[4]), 

    ?___lmul	unsigned long  size(1) Largest target is 0

    disp@line	PTR unsigned char  size(1) Largest target is 17
		 -> suc(BANK0[14]), rng(BANK1[16]), chk(BANK0[16]), pschng(BANK1[17]), 
		 -> new(BANK1[15]), old(BANK1[15]), 

    keypad_read@input	PTR volatile unsigned long  size(1) Largest target is 4
		 -> isr@input(BANK0[4]), 

    spec_func2@inp	PTR volatile unsigned long  size(1) Largest target is 4
		 -> isr@input(BANK0[4]), 

    read@inp	PTR volatile unsigned long  size(1) Largest target is 4
		 -> isr@input(BANK0[4]), 


Critical Paths under _main in COMMON

    None.

Critical Paths under _isr in COMMON

    _disp_off->i1_chk_bf
    _spec_func3->i1_init
    _spec_func2->_read
    _disp->i1_chk_bf
    _read->___lmul
    i1_init->i1_chk_bf

Critical Paths under _main in BANK0

    None.

Critical Paths under _isr in BANK0

    _isr->_keypad_read
    _keypad_read->_spec_func2
    _spec_func2->_read

Critical Paths under _main in BANK1

    _main->_init
    _init->_chk_bf

Critical Paths under _isr in BANK1

    None.

Critical Paths under _main in BANK3

    None.

Critical Paths under _isr in BANK3

    None.

Critical Paths under _main in BANK2

    None.

Critical Paths under _isr in BANK2

    None.

Call Graph Tables:

 ---------------------------------------------------------------------------------
 (Depth) Function   	        Calls       Base Space   Used Autos Params    Refs
 ---------------------------------------------------------------------------------
 (0) _main                                                 1     1      0     332
                                              5 BANK1      1     1      0
                               _init
 ---------------------------------------------------------------------------------
 (1) _init                                                 3     3      0     332
                                              2 BANK1      3     3      0
                             _chk_bf
 ---------------------------------------------------------------------------------
 (2) _chk_bf                                               2     2      0      34
                                              0 BANK1      2     2      0
 ---------------------------------------------------------------------------------
 Estimated maximum stack depth 2
 ---------------------------------------------------------------------------------
 (Depth) Function   	        Calls       Base Space   Used Autos Params    Refs
 ---------------------------------------------------------------------------------
 (3) _isr                                                 11    11      0    3622
                                             14 BANK0     11    11      0
                               _disp
                        _eeprom_read
                        _keypad_read
                           _disp_off
 ---------------------------------------------------------------------------------
 (4) _disp_off                                             1     1      0      75
                                              2 COMMON     1     1      0
                           i1_chk_bf
 ---------------------------------------------------------------------------------
 (4) _keypad_read                                          3     3      0    3071
                                             11 BANK0      3     3      0
                         _spec_func1
                         _spec_func4
                         _spec_func2
                         _spec_func3
                             ___lmul
 ---------------------------------------------------------------------------------
 (5) _spec_func3                                           3     3      0     640
                                              5 COMMON     2     2      0
                             i1_init
 ---------------------------------------------------------------------------------
 (5) _spec_func2                                           9     9      0    1811
                                              2 BANK0      9     9      0
                               _read
                               _disp
                       _eeprom_write
 ---------------------------------------------------------------------------------
 (6) _eeprom_write                                         3     2      1      44
                                              0 COMMON     3     2      1
 ---------------------------------------------------------------------------------
 (6) _disp                                                 9     6      3     302
                                              2 COMMON     9     6      3
                           i1_chk_bf
 ---------------------------------------------------------------------------------
 (6) _read                                                 3     3      0    1216
                                             13 COMMON     1     1      0
                                              0 BANK0      2     2      0
                         _spec_func1
                         _spec_func4
                             ___lmul
                             i1_init
 ---------------------------------------------------------------------------------
 (6) i1_init                                               3     3      0     640
                                              2 COMMON     3     3      0
                           i1_chk_bf
 ---------------------------------------------------------------------------------
 (5) i1_chk_bf                                             2     2      0      75
                                              0 COMMON     2     2      0
 ---------------------------------------------------------------------------------
 (5) ___lmul                                              13     5      8      92
                                              0 COMMON    13     5      8
 ---------------------------------------------------------------------------------
 (7) _spec_func4                                           1     1      0       0
 ---------------------------------------------------------------------------------
 (7) _spec_func1                                           1     1      0       0
 ---------------------------------------------------------------------------------
 (4) _eeprom_read                                          2     2      0      22
                                              0 COMMON     2     2      0
 ---------------------------------------------------------------------------------
 Estimated maximum stack depth 7
 ---------------------------------------------------------------------------------

 Call Graph Graphs:

 _main (ROOT)
   _init
     _chk_bf

 _isr (ROOT)
   _disp
     i1_chk_bf
   _eeprom_read
   _keypad_read
     _spec_func1
     _spec_func4
     _spec_func2
       _read
         _spec_func1
         _spec_func4
         ___lmul
         i1_init
           i1_chk_bf
       _disp
         i1_chk_bf
       _eeprom_write
     _spec_func3
       i1_init
         i1_chk_bf
     ___lmul
   _disp_off
     i1_chk_bf

 Address spaces:
Name               Size   Autos  Total    Cost      Usage
BANK3               60      0       0       9        0.0%
BITBANK3            60      0       0       8        0.0%
SFR3                 0      0       0       4        0.0%
BITSFR3              0      0       0       4        0.0%
BANK2               60      0       0      11        0.0%
BITBANK2            60      0       0      10        0.0%
SFR2                 0      0       0       5        0.0%
BITSFR2              0      0       0       5        0.0%
BANK1               50      6      45       7       86.2%
BITBANK1            50      0       0       6        0.0%
SFR1                 0      0       0       2        0.0%
BITSFR1              0      0       0       2        0.0%
BANK0               50     19      44       5       85.0%
BITBANK0            50      0       2       4        2.5%
SFR0                 0      0       0       1        0.0%
BITSFR0              0      0       0       1        0.0%
COMMON               E      E       E       1      100.0%
BITCOMMON            E      0       0       0        0.0%
CODE                 0      0       0       0        0.0%
DATA                 0      0      A5      12        0.0%
ABS                  0      0      97       3        0.0%
NULL                 0      0       0       0        0.0%
STACK                0      0       E       2        0.0%
EEDATA             100      0       0       0        0.0%


Microchip Technology PIC Macro Assembler V1.21 build 54009 
Symbol Table                                                                                   Fri Apr 25 17:50:26 2014

                      _B 0310                        _C 0311                        _D 0318  
                      _F 0312                        _N 031A                        _S 0313  
                      pc 0002                       _RD 0C60                       _WR 0C61  
                     fsr 0004                      l220 17FE                      l218 17F9  
                    _GIE 005F                      _RA0 0028                      _RA1 0029  
                    _RA2 002A                      _RA3 002B                      _RC0 0038  
                    _RC1 0039                      _RA5 002D                      _RC2 003A  
                    _RB4 0034                      _RC3 003B                      _RB5 0035  
                    _RE0 0048                      _RB6 0036                      _RE1 0049  
                    _RB7 0037                      _RE2 004A                      _I_D 0319  
                    _chk 0020                      _old 00D0                      _new 00C1  
                    _isr 0C52                      _rng 00B1                      fsr0 0004  
                    _suc 0030                      _wrn 0315                      indf 0000  
           __CFG_FOSC$HS 0000             __CFG_LVP$OFF 0000                     l4403 0F3C  
                   l4315 0E78                     l4309 0E6D                     l4343 0EBD  
                   l4427 0F5A                     l4461 0F9E                     l4429 0F77  
                   l4373 0EEC                     l4349 0EC8                     l4615 16F6  
                   l4463 0FBB                     l4391 0F26                     l4375 0F09  
                   l4485 0FE3                     l4397 0F31                     l4479 0FD8  
                   l4575 17FC                     ?_isr 0070                     _ADON 00F8  
                   _T0CS 040D               i1chk_bf@bf 0071                     u2707 0EF8  
                   u2717 0F55                     u2727 0F66                     u2737 0F96  
                   u2747 0FAA                     u2667 0E1B                     u2757 0FFC  
                   u2677 0E47                     _INTE 005C                     _INTF 0059  
                   u2687 0E97                     _RBIE 005B                     _RBIF 0058  
                   u2697 0EE7                     _WREN 0C62           ??_eeprom_write 0071  
                   _disp 0AE8                     _main 17B5                     _init 0E15  
                   _read 003E                     btemp 007E                     start 0012  
                  ??_isr 004C                    ?_disp 0072                    ?_main 0070  
                  ?_init 0070                    ?_read 0070                    _EEADR 010D  
          __CFG_WDTE$OFF 0000               i1init@temp 0074                    _CARRY 0018  
                  _CMCON 009C                    _T1CON 0010                    _CVREN 04EF  
                  i1l200 0D46                    i1l210 0DF8                    i1l212 0E00  
                  i1l204 0D63                    i1l141 0138                    i1l213 0E01  
                  i1l205 0D7B                    i1l215 0E0A                    i1l152 02CC  
                  i1l208 0DF4                    i1l161 0403                    i1l145 019B  
                  i1l137 0095                    i1l241 0479                    i1l162 03FF  
                  i1l154 0314                    i1l402 166B                    i1l170 09A2  
                  i1l147 01E3                    i1l139 00DD                    i1l251 05C7  
                  i1l243 04C1                    i1l156 036F                    i1l260 0753  
                  i1l149 023D                    i1l173 09DD                    i1l253 0621  
                  i1l245 051C                    i1l159 03A7                    i1l175 0A7A  
                  i1l263 078B                    i1l360 0C4D                    i1l344 0BA0  
                  i1l184 1771                    i1l256 06B0                    i1l192 0E02  
                  i1l265 07A8                    i1l249 057F                    i1l354 0BE1  
                  i1l178 0A90                    i1l258 06F8                    i1l339 0B05  
                  i1l267 07C5                    i1l380 1650                    i1l198 0CC5  
                  i1l367 081A                    _PORTB 0006                    _PORTC 0007  
                  _PORTD 0008                    _TRISA 0085                    _TRISB 0086  
                  _TRISC 0087                    _TRISD 0088      ___lmul@multiplicand 0074  
                  _nRBPU 040F             ?_keypad_read 0070                    _paswd 0057  
                  disp@i 0078           __CFG_BOREN$OFF 0000                    pclath 000A  
       __end_ofi1_chk_bf 16C2                    status 0003                    wtemp0 007E  
        __initialization 0015             __end_of_disp 0C52             __end_of_main 1800  
           __end_of_init 1000             __end_of_read 0420                   ??_disp 0075  
                 ??_main 00E4                   ??_init 00E1                   ??_read 003E  
                 _ADCON1 009F                   _EEDATA 010C                   _EECON1 018C  
                 _EECON2 018D                   i1l4013 042D                   i1l4007 0AE6  
                 i1l3261 1700                   i1l3309 16C0                   i1l3413 0BA4  
                 i1l3325 0AEC                   i1l4221 0CB3                   i1l3423 0BB5  
                 i1l4055 0535                   i1l4231 0D49                   i1l3265 1716  
                 i1l4225 0CC8                   i1l4139 076C                   i1l4243 0D7E  
                 i1l3461 0C05                   i1l3445 0BDF                   i1l3381 0B63  
                 i1l3357 0B27                   u210_25 0A09                   i1l3509 0802  
                 i1l3631 08C4                   i1l3391 0B74                   i1l3359 0B40  
                 i1l4095 0665                   i1l4255 0DF0                   i1l4247 0DE3  
                 i1l3721 0962                   i1l3633 08DD                   i1l4097 0666  
                 i1l3803 0151                   i1l3459 0BEC                   u211_25 0A24  
                 i1l3719 0949                   i1l3761 0049                   i1l3843 0281  
                 i1l3685 090D                   i1l3845 0282                   u212_25 0A3F  
                 i1l3687 0926                   u300_27 0480                   i1l3955 09E0  
                 i1l3947 09A5                   i1l3939 1774                   i1l3887 0388  
                 u301_27 048A                   _INTEDG 040E                   i1l3999 0A93  
                 u310_27 05CE                   u302_27 04C8                   u311_27 05D8  
                 u303_27 04D2                   u208_25 09C9                   u320_27 075A  
                 u312_27 0628                   u304_27 0523                   u233_25 0C93  
                 u321_27 0764                   u313_27 0632                   u305_27 052D  
                 u234_25 0C9E                   u330_27 173E                   u322_27 0775  
                 u314_27 066F                   u306_27 053E                   u235_25 0CA9  
                 u331_27 1746                   u323_27 077F                   u315_27 0679  
                 u307_27 0548                   u156_25 1718                   u172_25 0BE7  
                 u340_27 0AC9                   u332_27 174E                   u324_27 0792  
                 u316_27 06B7                   u308_27 0586                   u157_25 1720  
                 u341_27 0AD3                   u333_27 1756                   u325_27 079C  
                 u317_27 06C1                   u309_27 0590                   u350_27 0BDD  
                 u342_27 0ADD                   u334_27 175E                   u326_27 07AF  
                 u318_27 06FF                   u239_25 0D5F                   u351_27 0BF6  
                 u343_27 0AF6                   u335_27 0A97                   u327_27 07B9  
                 u319_27 0709                   u360_27 0149                   u352_27 0C44  
                 u344_27 0B22                   u336_27 0AA1                   u328_27 07CC  
                 u280_27 0CF8                   u361_27 015A                   u353_27 0054  
                 u345_27 0B31                   u337_27 0AAB                   u329_27 07D6  
                 u281_27 0D03                   u370_27 0295                   u362_27 0164  
                 u354_27 005E                   u346_27 0B5C                   u338_27 0AB5  
                 u290_27 0DAA                   u282_27 0D0E                   u371_27 02D3  
                 u363_27 01A2                   u355_27 009C                   u347_27 0B65  
                 u339_27 0ABF                   u291_27 0DB4                   u283_27 0D19  
                 u380_27 03B8                   u372_27 02DD                   u364_27 01AC  
                 u356_27 00A6                   u348_27 0B9E                   u292_27 0DBE  
                 u284_27 0D24                   u276_27 0CCC                   u381_27 03C4  
                 u373_27 031B                   u365_27 01EA                   u357_27 00E4  
                 u349_27 0BA6                   u293_27 0DC8                   u285_27 0D2F  
                 u277_27 0CD7                   u390_27 088D                   u382_27 03CE  
                 u374_27 0325                   u366_27 01F4                   u358_27 00EE  
                 u294_27 0DD2                   u286_27 0D82                   u278_27 0CE2  
                 u391_27 08BF                   u383_27 03D8                   u375_27 0376  
                 u367_27 0244                   u359_27 013F                   u295_27 0DDC  
                 u287_27 0D8C                   u279_27 0CED                   u392_27 08CE  
                 u384_27 03E2                   u376_27 0380                   u368_27 024E  
                 u296_27 080C                   u288_27 0D96                   u393_27 0908  
                 u385_27 03EC                   u377_27 0391                   u369_27 028B  
                 u297_27 0836                   u289_27 0DA0                   u394_27 0917  
                 u386_27 040A                   u378_27 039B                   u298_27 0438  
                 u395_27 0941                   u387_27 0414                   u379_27 03AE  
                 u299_27 0442                   u396_27 0953                   u388_27 083D  
                 u397_27 0989                   u389_27 085B                   _TRISE0 0448  
                 _TRISE1 0449                   _TRISE2 044A                   i1_init 0839  
   __size_of_eeprom_read 001B                   _t0_ovs 0060         __end_of_disp_off 0839  
                 ___lmul 16F8                   _chk_bf 16C2                   _paswd0 005C  
                 _paswd1 005D                   _paswd2 005E                   _paswd3 005F  
                 _pschng 00A0                   disp@ch 007A     __end_of_eeprom_write 1690  
                 saved_w 007E  __end_of__initialization 003A          eeprom_read@addr 0071  
         __pcstackCOMMON 0070             __pidataBANK0 07E2             __pidataBANK1 1776  
           __pbitnvBANK0 0318                ?i1_chk_bf 0070        eeprom_write@value 0070  
             __pbssBANK0 0057     __size_of_keypad_read 03C2                  ?i1_init 0070  
             __pmaintext 17B5                  ?___lmul 0070                  ?_chk_bf 0070  
             __pintentry 0004           ___lmul@product 0079               ??i1_chk_bf 0070  
              ?_disp_off 0070          __size_ofi1_init 0154    __size_of_eeprom_write 0026  
        __size_of___lmul 003F          __size_of_chk_bf 0036                  __ptext1 0E15  
                __ptext2 16C2                  __ptext3 0C52                  __ptext4 0802  
                __ptext5 0420                  __ptext6 1737                  __ptext7 098D  
                __ptext8 166A                  __ptext9 0AE8             __size_of_isr 01C3  
                disp@cnt 0072               _paswd_chng 0314               ??_disp_off 0072  
                _wrn_num 0061     end_of_initialization 003A                  read@inp 007D  
                isr@temp 0052             _eeprom_write 166A               _spec_func1 163C  
             _spec_func2 098D               _spec_func3 1737               _spec_func4 0800  
          ??_eeprom_read 0070           __end_ofi1_init 098D           __end_of___lmul 1737  
         __end_of_chk_bf 16F8            __pbitbssBANK0 0310      start_initialization 0015  
      __size_ofi1_chk_bf 0032              __end_of_isr 0E15                 ??i1_init 0072  
               ??___lmul 0078      __end_of_eeprom_read 166A               init_fetch0 163E  
               ??_chk_bf 00DF              __pdataBANK0 0020              __pdataBANK1 00A0  
            ?_spec_func1 0070              ?_spec_func2 0070              ?_spec_func3 0070  
            ?_spec_func4 0070            __pcstackBANK0 003E            __pcstackBANK1 00DF  
          ??_keypad_read 0049         eeprom_write@addr 0072        __size_of_disp_off 0037  
    __size_of_spec_func1 0002      __size_of_spec_func2 015B      __size_of_spec_func3 003F  
    __size_of_spec_func4 0002        interrupt_function 0004      __end_of_keypad_read 07E2  
            _eeprom_read 164F                disp@linum 0074                 i1_chk_bf 1690  
        spec_func1@input 0070          spec_func3@input 0070          spec_func4@input 0070  
      ___lmul@multiplier 0070                 _bf_fails 005B                 __ptext10 003E  
               __ptext11 0839                 __ptext12 1690                 __ptext13 16F8  
               __ptext14 0800                 __ptext15 163C                 __ptext16 164F  
            _keypad_read 0420                 _disp_off 0802                 chk_bf@bf 00E0  
          __size_of_disp 016A            __size_of_main 004B            __size_of_init 01EB  
          __size_of_read 03E2                 disp@line 0077             ??_spec_func1 0070  
           ??_spec_func2 0040             ??_spec_func3 0075             ??_spec_func4 0070  
         spec_func2@temp 0045                 init@temp 00E3                 isr@input 0053  
               init_ram0 1642                 intlevel1 0000       __end_of_spec_func1 163E  
     __end_of_spec_func2 0AE8       __end_of_spec_func3 1776       __end_of_spec_func4 0802  
       keypad_read@input 004B            spec_func2@inp 0044            ?_eeprom_write 0070  
           ?_eeprom_read 0070  
